TN:
SF:/home/bruce/work/RAPTor/common/logging.h
FN:20,_ZN14raptor_physics11init_loggerC2Ev
FN:34,_ZN14raptor_physics13method_loggerC2ERKSs
FN:39,_ZN14raptor_physics13method_loggerD2Ev
FN:57,_ZN14raptor_physics15array_to_streamIN9__gnu_cxx17__normal_iteratorIP7point_tSt6vectorIS3_SaIS3_EEEEZNKS_7simplex16center_of_impactERKS9_RKS3_EUlPSt18basic_stringstreamIcSt11char_traitsIcESaIcEESD_E_EESsT_SL_RKT0_
FN:57,_ZN14raptor_physics15array_to_streamIN9__gnu_cxx17__normal_iteratorIPK7point_tSt6vectorIS3_SaIS3_EEEEZNS_12clip_polygonEPS8_RKS8_RS4_EUlPSt18basic_stringstreamIcSt11char_traitsIcESaIcEESD_E0_EESsT_SL_RKT0_
FN:57,_ZN14raptor_physics15array_to_streamIN9__gnu_cxx17__normal_iteratorIP7point_tSt6vectorIS3_SaIS3_EEEEZNS_12clip_polygonEPS7_RKS7_RKS3_EUlPSt18basic_stringstreamIcSt11char_traitsIcESaIcEESD_E_EESsT_SL_RKT0_
FN:57,_ZN14raptor_physics15array_to_streamIN9__gnu_cxx17__normal_iteratorIP7point_tSt6vectorIS3_SaIS3_EEEEZNS_12clip_polygonEPS7_RKS7_RKS3_EUlPSt18basic_stringstreamIcSt11char_traitsIcESaIcEESD_E2_EESsT_SL_RKT0_
FN:57,_ZN14raptor_physics15array_to_streamIN9__gnu_cxx17__normal_iteratorIP7point_tSt6vectorIS3_SaIS3_EEEEZNKS_7simplex16center_of_impactERKS9_RKS3_EUlPSt18basic_stringstreamIcSt11char_traitsIcESaIcEESD_E0_EESsT_SL_RKT0_
FN:57,_ZN14raptor_physics15array_to_streamIPfZNS_29find_first_positive_real_rootES1_ffffEUlPSt18basic_stringstreamIcSt11char_traitsIcESaIcEEfE_EESsT_S9_RKT0_
FN:57,_ZN14raptor_physics15array_to_streamIP7point_tZNS_12clip_polygonEPSt6vectorIS1_SaIS1_EERKS5_RKS1_EUlPSt18basic_stringstreamIcSt11char_traitsIcESaIcEESA_E1_EESsT_SI_RKT0_
FN:62,_ZZN14raptor_physics15array_to_streamIPfZNS_29find_first_positive_real_rootES1_ffffEUlPSt18basic_stringstreamIcSt11char_traitsIcESaIcEEfE_EESsT_S9_RKT0_ENKUlS7_fE_clES7_f
FN:62,_ZZN14raptor_physics15array_to_streamIN9__gnu_cxx17__normal_iteratorIP7point_tSt6vectorIS3_SaIS3_EEEEZNKS_7simplex16center_of_impactERKS9_RKS3_EUlPSt18basic_stringstreamIcSt11char_traitsIcESaIcEESD_E_EESsT_SL_RKT0_ENKUlSJ_S3_E_clESJ_S3_
FN:62,_ZZN14raptor_physics15array_to_streamIN9__gnu_cxx17__normal_iteratorIPK7point_tSt6vectorIS3_SaIS3_EEEEZNS_12clip_polygonEPS8_RKS8_RS4_EUlPSt18basic_stringstreamIcSt11char_traitsIcESaIcEESD_E0_EESsT_SL_RKT0_ENKUlSJ_S3_E_clESJ_S3_
FN:62,_ZZN14raptor_physics15array_to_streamIN9__gnu_cxx17__normal_iteratorIP7point_tSt6vectorIS3_SaIS3_EEEEZNS_12clip_polygonEPS7_RKS7_RKS3_EUlPSt18basic_stringstreamIcSt11char_traitsIcESaIcEESD_E_EESsT_SL_RKT0_ENKUlSJ_S3_E_clESJ_S3_
FN:62,_ZZN14raptor_physics15array_to_streamIN9__gnu_cxx17__normal_iteratorIP7point_tSt6vectorIS3_SaIS3_EEEEZNS_12clip_polygonEPS7_RKS7_RKS3_EUlPSt18basic_stringstreamIcSt11char_traitsIcESaIcEESD_E2_EESsT_SL_RKT0_ENKUlSJ_S3_E_clESJ_S3_
FN:62,_ZZN14raptor_physics15array_to_streamIP7point_tZNS_12clip_polygonEPSt6vectorIS1_SaIS1_EERKS5_RKS1_EUlPSt18basic_stringstreamIcSt11char_traitsIcESaIcEESA_E1_EESsT_SI_RKT0_ENKUlSG_S1_E_clESG_S1_
FN:62,_ZZN14raptor_physics15array_to_streamIN9__gnu_cxx17__normal_iteratorIP7point_tSt6vectorIS3_SaIS3_EEEEZNKS_7simplex16center_of_impactERKS9_RKS3_EUlPSt18basic_stringstreamIcSt11char_traitsIcESaIcEESD_E0_EESsT_SL_RKT0_ENKUlSJ_S3_E_clESJ_S3_
FN:68,_ZN14raptor_physics15array_to_streamIPfZNS_10lcp_solver5solveES1_EUlPSt18basic_stringstreamIcSt11char_traitsIcESaIcEEiE_PKcEESsT_SC_RKT0_T1_
FN:68,_ZN14raptor_physics15array_to_streamIPiZNKS_10lcp_solver4dumpEvEUlPSt18basic_stringstreamIcSt11char_traitsIcESaIcEEiE_PKcEESsT_SC_RKT0_T1_
FN:73,_ZZN14raptor_physics15array_to_streamIPiZNKS_10lcp_solver4dumpEvEUlPSt18basic_stringstreamIcSt11char_traitsIcESaIcEEiE_PKcEESsT_SC_RKT0_T1_ENKUlS8_iE_clES8_i
FN:73,_ZZN14raptor_physics15array_to_streamIPfZNS_10lcp_solver5solveES1_EUlPSt18basic_stringstreamIcSt11char_traitsIcESaIcEEiE_PKcEESsT_SC_RKT0_T1_ENKUlS8_fE_clES8_f
FN:80,_ZN14raptor_physics15array_to_streamIfZNKS_10lcp_solver4dumpEvEUlPSt18basic_stringstreamIcSt11char_traitsIcESaIcEEfE0_SsEESsPKT_RKT0_iiT1_
FNDA:0,_ZZN14raptor_physics15array_to_streamIPiZNKS_10lcp_solver4dumpEvEUlPSt18basic_stringstreamIcSt11char_traitsIcESaIcEEiE_PKcEESsT_SC_RKT0_T1_ENKUlS8_iE_clES8_i
FNDA:96,_ZN14raptor_physics15array_to_streamIN9__gnu_cxx17__normal_iteratorIP7point_tSt6vectorIS3_SaIS3_EEEEZNKS_7simplex16center_of_impactERKS9_RKS3_EUlPSt18basic_stringstreamIcSt11char_traitsIcESaIcEESD_E_EESsT_SL_RKT0_
FNDA:0,_ZZN14raptor_physics15array_to_streamIPfZNS_10lcp_solver5solveES1_EUlPSt18basic_stringstreamIcSt11char_traitsIcESaIcEEiE_PKcEESsT_SC_RKT0_T1_ENKUlS8_fE_clES8_f
FNDA:0,_ZZN14raptor_physics15array_to_streamIPfZNS_29find_first_positive_real_rootES1_ffffEUlPSt18basic_stringstreamIcSt11char_traitsIcESaIcEEfE_EESsT_S9_RKT0_ENKUlS7_fE_clES7_f
FNDA:288,_ZZN14raptor_physics15array_to_streamIN9__gnu_cxx17__normal_iteratorIP7point_tSt6vectorIS3_SaIS3_EEEEZNKS_7simplex16center_of_impactERKS9_RKS3_EUlPSt18basic_stringstreamIcSt11char_traitsIcESaIcEESD_E_EESsT_SL_RKT0_ENKUlSJ_S3_E_clESJ_S3_
FNDA:3684,_ZN14raptor_physics13method_loggerD2Ev
FNDA:0,_ZN14raptor_physics15array_to_streamIPfZNS_10lcp_solver5solveES1_EUlPSt18basic_stringstreamIcSt11char_traitsIcESaIcEEiE_PKcEESsT_SC_RKT0_T1_
FNDA:0,_ZN14raptor_physics15array_to_streamIN9__gnu_cxx17__normal_iteratorIPK7point_tSt6vectorIS3_SaIS3_EEEEZNS_12clip_polygonEPS8_RKS8_RS4_EUlPSt18basic_stringstreamIcSt11char_traitsIcESaIcEESD_E0_EESsT_SL_RKT0_
FNDA:0,_ZN14raptor_physics15array_to_streamIfZNKS_10lcp_solver4dumpEvEUlPSt18basic_stringstreamIcSt11char_traitsIcESaIcEEfE0_SsEESsPKT_RKT0_iiT1_
FNDA:0,_ZN14raptor_physics15array_to_streamIN9__gnu_cxx17__normal_iteratorIP7point_tSt6vectorIS3_SaIS3_EEEEZNS_12clip_polygonEPS7_RKS7_RKS3_EUlPSt18basic_stringstreamIcSt11char_traitsIcESaIcEESD_E_EESsT_SL_RKT0_
FNDA:8,_ZN14raptor_physics11init_loggerC2Ev
FNDA:0,_ZN14raptor_physics15array_to_streamIN9__gnu_cxx17__normal_iteratorIP7point_tSt6vectorIS3_SaIS3_EEEEZNS_12clip_polygonEPS7_RKS7_RKS3_EUlPSt18basic_stringstreamIcSt11char_traitsIcESaIcEESD_E2_EESsT_SL_RKT0_
FNDA:96,_ZN14raptor_physics15array_to_streamIN9__gnu_cxx17__normal_iteratorIP7point_tSt6vectorIS3_SaIS3_EEEEZNKS_7simplex16center_of_impactERKS9_RKS3_EUlPSt18basic_stringstreamIcSt11char_traitsIcESaIcEESD_E0_EESsT_SL_RKT0_
FNDA:3684,_ZN14raptor_physics13method_loggerC2ERKSs
FNDA:0,_ZN14raptor_physics15array_to_streamIPiZNKS_10lcp_solver4dumpEvEUlPSt18basic_stringstreamIcSt11char_traitsIcESaIcEEiE_PKcEESsT_SC_RKT0_T1_
FNDA:0,_ZZN14raptor_physics15array_to_streamIN9__gnu_cxx17__normal_iteratorIPK7point_tSt6vectorIS3_SaIS3_EEEEZNS_12clip_polygonEPS8_RKS8_RS4_EUlPSt18basic_stringstreamIcSt11char_traitsIcESaIcEESD_E0_EESsT_SL_RKT0_ENKUlSJ_S3_E_clESJ_S3_
FNDA:0,_ZN14raptor_physics15array_to_streamIPfZNS_29find_first_positive_real_rootES1_ffffEUlPSt18basic_stringstreamIcSt11char_traitsIcESaIcEEfE_EESsT_S9_RKT0_
FNDA:0,_ZZN14raptor_physics15array_to_streamIN9__gnu_cxx17__normal_iteratorIP7point_tSt6vectorIS3_SaIS3_EEEEZNS_12clip_polygonEPS7_RKS7_RKS3_EUlPSt18basic_stringstreamIcSt11char_traitsIcESaIcEESD_E_EESsT_SL_RKT0_ENKUlSJ_S3_E_clESJ_S3_
FNDA:0,_ZZN14raptor_physics15array_to_streamIN9__gnu_cxx17__normal_iteratorIP7point_tSt6vectorIS3_SaIS3_EEEEZNS_12clip_polygonEPS7_RKS7_RKS3_EUlPSt18basic_stringstreamIcSt11char_traitsIcESaIcEESD_E2_EESsT_SL_RKT0_ENKUlSJ_S3_E_clESJ_S3_
FNDA:0,_ZN14raptor_physics15array_to_streamIP7point_tZNS_12clip_polygonEPSt6vectorIS1_SaIS1_EERKS5_RKS1_EUlPSt18basic_stringstreamIcSt11char_traitsIcESaIcEESA_E1_EESsT_SI_RKT0_
FNDA:0,_ZZN14raptor_physics15array_to_streamIP7point_tZNS_12clip_polygonEPSt6vectorIS1_SaIS1_EERKS5_RKS1_EUlPSt18basic_stringstreamIcSt11char_traitsIcESaIcEESA_E1_EESsT_SI_RKT0_ENKUlSG_S1_E_clESG_S1_
FNDA:288,_ZZN14raptor_physics15array_to_streamIN9__gnu_cxx17__normal_iteratorIP7point_tSt6vectorIS3_SaIS3_EEEEZNKS_7simplex16center_of_impactERKS9_RKS3_EUlPSt18basic_stringstreamIcSt11char_traitsIcESaIcEESD_E0_EESsT_SL_RKT0_ENKUlSJ_S3_E_clESJ_S3_
FNF:22
FNH:7
DA:20,8
DA:24,16
DA:25,8
DA:26,8
DA:34,3684
DA:36,7368
DA:37,3684
DA:39,3684
DA:40,3684
DA:41,7368
DA:42,3684
DA:57,192
DA:61,192
DA:62,768
DA:64,192
DA:68,0
DA:72,0
DA:73,0
DA:75,0
DA:76,0
DA:80,0
DA:82,0
DA:83,0
DA:85,0
DA:88,0
DA:89,0
LF:26
LH:15
end_of_record
TN:
SF:/home/bruce/work/RAPTor/common/quaternion_t.h
FN:24,_ZN12quaternion_tC2Effff
FN:41,_ZN12quaternion_tC2ERK7point_t
FN:83,_ZN12quaternion_tmLERKS_
FN:139,_ZNK12quaternion_t6rotateEP7point_t
FN:145,_ZNK12quaternion_t15rotation_matrixEPf
FN:195,_ZlsRSoRK12quaternion_t
FN:279,_Z13cross_productRK12quaternion_tRK7point_t
FNDA:48,_ZN12quaternion_tmLERKS_
FNDA:0,_ZlsRSoRK12quaternion_t
FNDA:256,_ZN12quaternion_tC2Effff
FNDA:384,_ZNK12quaternion_t6rotateEP7point_t
FNDA:1152,_Z13cross_productRK12quaternion_tRK7point_t
FNDA:0,_ZNK12quaternion_t15rotation_matrixEPf
FNDA:48,_ZN12quaternion_tC2ERK7point_t
FNF:7
FNH:5
DA:24,256
DA:25,256
DA:41,48
DA:43,48
DA:44,48
DA:45,48
DA:47,48
DA:48,48
DA:49,48
DA:51,48
DA:52,48
DA:53,48
DA:54,48
DA:55,48
DA:83,48
DA:85,48
DA:86,48
DA:87,48
DA:88,48
DA:90,48
DA:91,48
DA:92,48
DA:93,48
DA:94,48
DA:139,384
DA:141,384
DA:142,384
DA:145,0
DA:147,0
DA:148,0
DA:149,0
DA:150,0
DA:152,0
DA:153,0
DA:154,0
DA:156,0
DA:157,0
DA:159,0
DA:160,0
DA:161,0
DA:163,0
DA:164,0
DA:165,0
DA:167,0
DA:168,0
DA:169,0
DA:171,0
DA:195,0
DA:197,0
DA:279,1152
DA:281,1152
LF:51
LH:29
end_of_record
TN:
SF:/home/bruce/work/RAPTor/physics_engine/colliders/collider.h
FN:12,_ZN14raptor_physics8colliderC2Ev
FN:16,_ZN14raptor_physics8colliderD2Ev
FN:16,_ZN14raptor_physics8colliderD0Ev
FNDA:64,_ZN14raptor_physics8colliderC2Ev
FNDA:64,_ZN14raptor_physics8colliderD2Ev
FNDA:0,_ZN14raptor_physics8colliderD0Ev
FNF:3
FNH:2
DA:12,64
DA:16,64
LF:2
LH:2
end_of_record
TN:
SF:/home/bruce/work/RAPTor/physics_engine/colliders/rigid_body_collider.h
FN:20,_ZN14raptor_physics34instantaneous_frictionless_collideINS_12vertex_groupEEEvPT_S3_RK7point_tS6_ff
FN:88,_ZN14raptor_physics19rigid_body_colliderD2Ev
FN:88,_ZN14raptor_physics19rigid_body_colliderD0Ev
FN:91,_ZN14raptor_physics19rigid_body_colliderC2Eff
FN:94,_ZNK14raptor_physics19rigid_body_collider7collideEPNS_12vertex_groupES2_RK7point_tS5_NS_11collision_tE
FNDA:0,_ZNK14raptor_physics19rigid_body_collider7collideEPNS_12vertex_groupES2_RK7point_tS5_NS_11collision_tE
FNDA:0,_ZN14raptor_physics34instantaneous_frictionless_collideINS_12vertex_groupEEEvPT_S3_RK7point_tS6_ff
FNDA:64,_ZN14raptor_physics19rigid_body_colliderC2Eff
FNDA:64,_ZN14raptor_physics19rigid_body_colliderD2Ev
FNDA:64,_ZN14raptor_physics19rigid_body_colliderD0Ev
FNF:5
FNH:3
DA:20,0
DA:22,0
DA:27,0
DA:28,0
DA:29,0
DA:30,0
DA:32,0
DA:33,0
DA:34,0
DA:35,0
DA:36,0
DA:37,0
DA:39,0
DA:40,0
DA:41,0
DA:42,0
DA:44,0
DA:47,0
DA:48,0
DA:51,0
DA:52,0
DA:54,0
DA:55,0
DA:56,0
DA:57,0
DA:59,0
DA:60,0
DA:61,0
DA:63,0
DA:64,0
DA:66,0
DA:67,0
DA:68,0
DA:70,0
DA:71,0
DA:74,0
DA:75,0
DA:76,0
DA:77,0
DA:78,0
DA:79,0
DA:80,0
DA:81,0
DA:82,0
DA:83,0
DA:84,0
DA:88,128
DA:91,64
DA:92,64
DA:94,0
DA:96,0
DA:99,0
DA:102,0
DA:104,0
LF:54
LH:3
end_of_record
TN:
SF:/home/bruce/work/RAPTor/physics_engine/collision_info.h
FN:19,_ZN14raptor_physics14collision_infoC2EPNS_7simplexERKS1_fNS_11collision_tE
FN:27,_ZN14raptor_physics14collision_infoD2Ev
FN:33,_ZN14raptor_physics14collision_info6updateEPNS_7simplexERKS1_fNS_11collision_tE
FN:50,_ZN14raptor_physics14collision_info24successful_retest_updateEPNS_7simplexERKS1_
FN:60,_ZN14raptor_physics14collision_info14void_collisionEv
FN:68,_ZNK14raptor_physics14collision_info11get_simplexEv
FN:69,_ZNK14raptor_physics14collision_info23get_normal_of_collisionEv
FN:70,_ZNK14raptor_physics14collision_info22get_point_of_collisionEv
FN:71,_ZNK14raptor_physics14collision_info8get_timeEv
FN:72,_ZNK14raptor_physics14collision_info8get_typeEv
FNDA:108,_ZNK14raptor_physics14collision_info22get_point_of_collisionEv
FNDA:204,_ZNK14raptor_physics14collision_info8get_typeEv
FNDA:264,_ZNK14raptor_physics14collision_info8get_timeEv
FNDA:64,_ZN14raptor_physics14collision_infoD2Ev
FNDA:108,_ZNK14raptor_physics14collision_info23get_normal_of_collisionEv
FNDA:0,_ZN14raptor_physics14collision_info24successful_retest_updateEPNS_7simplexERKS1_
FNDA:0,_ZNK14raptor_physics14collision_info11get_simplexEv
FNDA:96,_ZN14raptor_physics14collision_infoC2EPNS_7simplexERKS1_fNS_11collision_tE
FNDA:48,_ZN14raptor_physics14collision_info14void_collisionEv
FNDA:0,_ZN14raptor_physics14collision_info6updateEPNS_7simplexERKS1_fNS_11collision_tE
FNF:10
FNH:7
DA:19,96
DA:21,96
DA:22,192
DA:24,384
DA:27,64
DA:29,64
DA:30,64
DA:33,0
DA:35,0
DA:36,0
DA:37,0
DA:40,0
DA:42,0
DA:43,0
DA:46,0
DA:50,0
DA:52,0
DA:53,0
DA:54,0
DA:55,0
DA:56,0
DA:60,48
DA:62,48
DA:63,48
DA:64,48
DA:68,0
DA:69,108
DA:70,108
DA:71,264
DA:72,204
LF:30
LH:15
end_of_record
TN:
SF:/home/bruce/work/RAPTor/physics_engine/contact_graph.h
FN:35,_ZN14raptor_physics18contact_graph_edgeC2EPNS_14collision_infoEii
FN:41,_ZNK14raptor_physics18contact_graph_edge4infoEv
FN:42,_ZNK14raptor_physics18contact_graph_edge2toEv
FN:43,_ZNK14raptor_physics18contact_graph_edge7edge_idEv
FN:54,_ZN14raptor_physics13contact_graphINS_7vg_metaEED2Ev
FN:61,_ZN14raptor_physics13contact_graphINS_7vg_metaEEC2Ev
FN:73,_ZN14raptor_physics13contact_graphINS_7vg_metaEE7rebuildERSt3mapIPS1_PNS_13tracking_infoIS1_EESt4lessIS4_ESaISt4pairIKS4_S7_EEES4_
FN:89,_ZNK14raptor_physics13contact_graphINS_7vg_metaEE15number_of_edgesEv
FN:94,_ZN14raptor_physics13contact_graphINS_7vg_metaEE14resolve_forcesEf
FN:183,_ZNK14raptor_physics13contact_graphINS_7vg_metaEE15void_collisionsEPSt3mapIPS1_PNS_13tracking_infoIS1_EESt4lessIS4_ESaISt4pairIKS4_S7_EEE
FN:197,_ZN14raptor_physics13contact_graphINS_7vg_metaEE25start_build_contact_graphERSt3mapIPS1_PNS_13tracking_infoIS1_EESt4lessIS4_ESaISt4pairIKS4_S7_EEES4_
FN:208,_ZN14raptor_physics13contact_graphINS_7vg_metaEE19build_contact_graphERSt3mapIPS1_PNS_13tracking_infoIS1_EESt4lessIS4_ESaISt4pairIKS4_S7_EEES4_i
FN:256,_ZNK14raptor_physics13contact_graphINS_7vg_metaEE22compute_contact_matrixEPf
FN:316,_ZN14raptor_physics13contact_graphINS_7vg_metaEE25compute_relative_velocityEPf
FN:352,_ZN14raptor_physics13contact_graphINS_7vg_metaEE27compute_relative_accelationEPf
FN:410,_ZNK14raptor_physics13contact_graphINS_7vg_metaEE8minimiseEPKfS4_Pf
FN:441,_ZN14raptor_physics13contact_graphINS_7vg_metaEE9find_edgeEii
FN:444,_ZZN14raptor_physics13contact_graphINS_7vg_metaEE9find_edgeEiiENKUlRKNS_18contact_graph_edgeEE_clES5_
FNDA:0,_ZNK14raptor_physics18contact_graph_edge2toEv
FNDA:24,_ZN14raptor_physics13contact_graphINS_7vg_metaEEC2Ev
FNDA:0,_ZN14raptor_physics13contact_graphINS_7vg_metaEE25compute_relative_velocityEPf
FNDA:0,_ZNK14raptor_physics18contact_graph_edge7edge_idEv
FNDA:0,_ZN14raptor_physics13contact_graphINS_7vg_metaEE19build_contact_graphERSt3mapIPS1_PNS_13tracking_infoIS1_EESt4lessIS4_ESaISt4pairIKS4_S7_EEES4_i
FNDA:0,_ZNK14raptor_physics13contact_graphINS_7vg_metaEE8minimiseEPKfS4_Pf
FNDA:0,_ZNK14raptor_physics13contact_graphINS_7vg_metaEE15void_collisionsEPSt3mapIPS1_PNS_13tracking_infoIS1_EESt4lessIS4_ESaISt4pairIKS4_S7_EEE
FNDA:0,_ZNK14raptor_physics13contact_graphINS_7vg_metaEE15number_of_edgesEv
FNDA:0,_ZN14raptor_physics13contact_graphINS_7vg_metaEE9find_edgeEii
FNDA:0,_ZN14raptor_physics18contact_graph_edgeC2EPNS_14collision_infoEii
FNDA:0,_ZN14raptor_physics13contact_graphINS_7vg_metaEE7rebuildERSt3mapIPS1_PNS_13tracking_infoIS1_EESt4lessIS4_ESaISt4pairIKS4_S7_EEES4_
FNDA:0,_ZN14raptor_physics13contact_graphINS_7vg_metaEE25start_build_contact_graphERSt3mapIPS1_PNS_13tracking_infoIS1_EESt4lessIS4_ESaISt4pairIKS4_S7_EEES4_
FNDA:0,_ZZN14raptor_physics13contact_graphINS_7vg_metaEE9find_edgeEiiENKUlRKNS_18contact_graph_edgeEE_clES5_
FNDA:0,_ZNK14raptor_physics18contact_graph_edge4infoEv
FNDA:0,_ZN14raptor_physics13contact_graphINS_7vg_metaEE14resolve_forcesEf
FNDA:24,_ZN14raptor_physics13contact_graphINS_7vg_metaEED2Ev
FNDA:0,_ZNK14raptor_physics13contact_graphINS_7vg_metaEE22compute_contact_matrixEPf
FNDA:0,_ZN14raptor_physics13contact_graphINS_7vg_metaEE27compute_relative_accelationEPf
FNF:18
FNH:2
DA:35,0
DA:36,0
DA:41,0
DA:42,0
DA:43,0
DA:54,24
DA:61,24
DA:73,0
DA:75,0
DA:78,0
DA:79,0
DA:80,0
DA:81,0
DA:84,0
DA:85,0
DA:89,0
DA:94,0
DA:96,0
DA:99,0
DA:100,0
DA:104,0
DA:107,0
DA:108,0
DA:111,0
DA:112,0
DA:113,0
DA:116,0
DA:117,0
DA:120,0
DA:122,0
DA:125,0
DA:126,0
DA:127,0
DA:129,0
DA:131,0
DA:132,0
DA:133,0
DA:134,0
DA:136,0
DA:142,0
DA:145,0
DA:146,0
DA:149,0
DA:150,0
DA:151,0
DA:154,0
DA:155,0
DA:158,0
DA:160,0
DA:163,0
DA:164,0
DA:165,0
DA:167,0
DA:169,0
DA:170,0
DA:171,0
DA:172,0
DA:174,0
DA:178,0
DA:183,0
DA:185,0
DA:187,0
DA:189,0
DA:193,0
DA:197,0
DA:200,0
DA:201,0
DA:204,0
DA:205,0
DA:206,0
DA:208,0
DA:210,0
DA:212,0
DA:213,0
DA:215,0
DA:220,0
DA:221,0
DA:224,0
DA:225,0
DA:226,0
DA:227,0
DA:232,0
DA:233,0
DA:236,0
DA:237,0
DA:239,0
DA:240,0
DA:245,0
DA:246,0
DA:247,0
DA:248,0
DA:251,0
DA:254,0
DA:256,0
DA:259,0
DA:262,0
DA:263,0
DA:266,0
DA:267,0
DA:270,0
DA:272,0
DA:275,0
DA:276,0
DA:277,0
DA:279,0
DA:280,0
DA:283,0
DA:285,0
DA:286,0
DA:288,0
DA:290,0
DA:291,0
DA:292,0
DA:296,0
DA:298,0
DA:299,0
DA:301,0
DA:303,0
DA:304,0
DA:305,0
DA:309,0
DA:312,0
DA:316,0
DA:319,0
DA:320,0
DA:321,0
DA:324,0
DA:325,0
DA:326,0
DA:329,0
DA:331,0
DA:334,0
DA:336,0
DA:337,0
DA:340,0
DA:341,0
DA:342,0
DA:345,0
DA:348,0
DA:352,0
DA:355,0
DA:356,0
DA:357,0
DA:360,0
DA:361,0
DA:362,0
DA:365,0
DA:367,0
DA:370,0
DA:372,0
DA:373,0
DA:376,0
DA:377,0
DA:379,0
DA:380,0
DA:381,0
DA:384,0
DA:385,0
DA:387,0
DA:388,0
DA:389,0
DA:390,0
DA:394,0
DA:395,0
DA:397,0
DA:400,0
DA:401,0
DA:404,0
DA:407,0
DA:410,0
DA:413,0
DA:414,0
DA:417,0
DA:418,0
DA:419,0
DA:421,0
DA:423,0
DA:424,0
DA:425,0
DA:430,0
DA:431,0
DA:433,0
DA:434,0
DA:438,0
DA:441,0
DA:444,0
DA:446,0
DA:447,0
DA:449,0
LF:189
LH:2
end_of_record
TN:
SF:/home/bruce/work/RAPTor/physics_engine/force_info.h
FN:10,_ZN10force_infoC2ERK7point_tS2_f
FNDA:48,_ZN10force_infoC2ERK7point_tS2_f
FNF:1
FNH:1
DA:10,48
DA:11,48
LF:2
LH:2
end_of_record
TN:
SF:/home/bruce/work/RAPTor/physics_engine/gjk.cc
FN:7,_ZN14raptor_physics3gjk21find_minimum_distanceEP7point_tRKS1_S4_b
FN:63,_ZNK14raptor_physics3gjk30find_closest_feature_to_originEPK7point_tPiPS1_
FN:254,_ZNK14raptor_physics3gjk11in_triangleERK7point_tS3_S3_S3_PS1_Piiii
FN:295,_Z41__static_initialization_and_destruction_0ii
FN:295,_GLOBAL__sub_I_gjk.cc
FNDA:12,_Z41__static_initialization_and_destruction_0ii
FNDA:0,_ZNK14raptor_physics3gjk11in_triangleERK7point_tS3_S3_S3_PS1_Piiii
FNDA:480,_ZN14raptor_physics3gjk21find_minimum_distanceEP7point_tRKS1_S4_b
FNDA:1440,_ZNK14raptor_physics3gjk30find_closest_feature_to_originEPK7point_tPiPS1_
FNDA:12,_GLOBAL__sub_I_gjk.cc
FNF:5
FNH:4
DA:7,480
DA:9,480
DA:11,480
DA:12,480
DA:15,960
DA:16,960
DA:27,1440
DA:31,1440
DA:32,2880
DA:33,2880
DA:36,1440
DA:38,0
DA:39,0
DA:40,0
DA:44,1440
DA:45,1440
DA:46,2880
DA:48,1440
DA:49,1440
DA:50,1440
DA:51,1440
DA:53,480
DA:54,960
DA:55,480
DA:58,960
DA:59,960
DA:60,480
DA:63,1440
DA:65,1440
DA:68,1440
DA:69,1440
DA:72,480
DA:73,480
DA:74,480
DA:82,960
DA:83,3024
DA:85,3312
DA:87,1248
DA:88,1248
DA:98,3024
DA:100,6624
DA:102,4560
DA:104,2496
DA:110,2688
DA:112,2064
DA:113,6624
DA:115,4560
DA:119,2064
DA:121,336
DA:122,336
DA:123,336
DA:128,624
DA:130,480
DA:131,480
DA:132,480
DA:133,480
DA:134,480
DA:135,480
DA:139,144
DA:140,144
DA:141,144
DA:143,144
DA:144,144
DA:145,144
DA:149,0
DA:150,0
DA:151,0
DA:160,144
DA:162,0
DA:166,144
DA:168,144
DA:172,0
DA:174,0
DA:177,0
DA:179,0
DA:183,0
DA:185,0
DA:189,0
DA:191,0
DA:195,0
DA:197,0
DA:198,0
DA:199,0
DA:201,0
DA:202,0
DA:206,0
DA:207,0
DA:210,0
DA:211,0
DA:212,0
DA:220,0
DA:221,0
DA:223,0
DA:226,0
DA:227,0
DA:229,0
DA:232,0
DA:233,0
DA:235,0
DA:238,0
DA:239,0
DA:241,0
DA:245,0
DA:246,0
DA:247,0
DA:248,0
DA:249,0
DA:250,0
DA:254,0
DA:258,0
DA:259,0
DA:261,0
DA:262,0
DA:263,0
DA:266,0
DA:267,0
DA:268,0
DA:270,0
DA:271,0
DA:272,0
DA:274,0
DA:275,0
DA:277,0
DA:280,0
DA:281,0
DA:283,0
DA:287,0
DA:288,0
DA:289,0
DA:291,0
DA:293,0
DA:295,36
LF:132
LH:65
end_of_record
TN:
SF:/home/bruce/work/RAPTor/physics_engine/gjk.h
FN:51,_ZNK14raptor_physics3gjk13get_simplex_aEv
FN:52,_ZNK14raptor_physics3gjk13get_simplex_bEv
FN:59,_ZN14raptor_physics3gjk19find_support_vertexERK9matrix_3dRK7point_tS6_b
FN:81,_ZNK14raptor_physics3gjk9test_edgeERK7point_tS3_ffS3_S3_iiPiPS1_
FNDA:480,_ZNK14raptor_physics3gjk13get_simplex_bEv
FNDA:288,_ZNK14raptor_physics3gjk9test_edgeERK7point_tS3_ffS3_S3_iiPiPS1_
FNDA:480,_ZN14raptor_physics3gjkC2ERK9matrix_3dS3_b
FNDA:1440,_ZN14raptor_physics3gjk19find_support_vertexERK9matrix_3dRK7point_tS6_b
FNDA:480,_ZNK14raptor_physics3gjk13get_simplex_aEv
FNDA:480,_ZN14raptor_physics3gjkD2Ev
FNF:6
FNH:6
DA:23,480
DA:26,480
DA:27,960
DA:29,960
DA:30,480
DA:33,480
DA:35,960
DA:37,480
DA:38,480
DA:40,960
DA:41,480
DA:51,480
DA:52,480
DA:59,1440
DA:62,1440
DA:65,1440
DA:66,1440
DA:68,144
DA:71,1440
DA:81,288
DA:85,288
DA:89,288
DA:90,288
DA:91,288
DA:94,144
DA:95,144
DA:96,144
DA:97,144
DA:99,144
DA:100,144
DA:104,0
DA:106,144
DA:110,144
LF:33
LH:32
end_of_record
TN:
SF:/home/bruce/work/RAPTor/physics_engine/inertia_tensor.h
FN:15,_ZN14raptor_physics21invert_inertia_tensorEPfPKf
FN:80,_ZN14raptor_physics14inertia_tensorC2ERK9matrix_3dRKSt6vectorIiSaIiEEf
FN:223,_ZN14raptor_physics14inertia_tensorD2Ev
FN:238,_ZNK14raptor_physics14inertia_tensor4massEv
FN:239,_ZNK14raptor_physics14inertia_tensor14center_of_massEv
FN:240,_ZNK14raptor_physics14inertia_tensor6tensorEv
FN:241,_ZNK14raptor_physics14inertia_tensor14inverse_tensorEv
FN:243,_ZN14raptor_physics14inertia_tensor19move_center_of_massERK7point_t
FN:250,_ZN14raptor_physics14inertia_tensor31surface_integral_subexpressionsEPfS1_S1_S1_S1_S1_fff
FN:277,_ZN14raptor_physics19inertia_tensor_viewC2ERKNS_14inertia_tensorERK12quaternion_t
FN:302,_ZNK14raptor_physics19inertia_tensor_view14inverse_tensorEv
FN:303,_ZNK14raptor_physics19inertia_tensor_view6tensorEv
FN:306,_ZN14raptor_physics19inertia_tensor_view6rotateEPfPKfS3_
FN:336,_ZN14raptor_physicsdvINS_14inertia_tensorEEE7point_tRKS2_RKT_
FN:336,_ZN14raptor_physicsdvINS_19inertia_tensor_viewEEE7point_tRKS2_RKT_
FN:347,_ZN14raptor_physicsmlINS_19inertia_tensor_viewEEE7point_tRKT_RKS2_
FNDA:0,_ZNK14raptor_physics19inertia_tensor_view14inverse_tensorEv
FNDA:256,_ZN14raptor_physics14inertia_tensorC2ERK9matrix_3dRKSt6vectorIiSaIiEEf
FNDA:0,_ZN14raptor_physics19inertia_tensor_viewC2ERKNS_14inertia_tensorERK12quaternion_t
FNDA:48,_ZN14raptor_physics14inertia_tensor19move_center_of_massERK7point_t
FNDA:0,_ZNK14raptor_physics14inertia_tensor6tensorEv
FNDA:192,_ZN14raptor_physics14inertia_tensorD2Ev
FNDA:2040,_ZNK14raptor_physics14inertia_tensor4massEv
FNDA:144,_ZNK14raptor_physics14inertia_tensor14center_of_massEv
FNDA:48,_ZN14raptor_physicsdvINS_14inertia_tensorEEE7point_tRKS2_RKT_
FNDA:48,_ZNK14raptor_physics14inertia_tensor14inverse_tensorEv
FNDA:0,_ZN14raptor_physics19inertia_tensor_view6rotateEPfPKfS3_
FNDA:0,_ZN14raptor_physicsdvINS_19inertia_tensor_viewEEE7point_tRKS2_RKT_
FNDA:384,_ZN14raptor_physics21invert_inertia_tensorEPfPKf
FNDA:9216,_ZN14raptor_physics14inertia_tensor31surface_integral_subexpressionsEPfS1_S1_S1_S1_S1_fff
FNDA:0,_ZNK14raptor_physics19inertia_tensor_view6tensorEv
FNDA:0,_ZN14raptor_physicsmlINS_19inertia_tensor_viewEEE7point_tRKT_RKS2_
FNF:16
FNH:9
DA:15,384
DA:18,384
DA:19,384
DA:20,384
DA:22,384
DA:23,384
DA:25,384
DA:28,384
DA:29,384
DA:31,0
DA:32,0
DA:33,0
DA:34,0
DA:35,0
DA:36,0
DA:37,384
DA:41,384
DA:42,384
DA:43,384
DA:44,384
DA:45,384
DA:46,384
DA:47,384
DA:49,768
DA:50,768
DA:51,768
DA:52,768
DA:80,256
DA:81,256
DA:83,256
DA:86,256
DA:88,0
DA:90,0
DA:91,0
DA:93,0
DA:94,0
DA:96,0
DA:98,0
DA:99,0
DA:101,0
DA:102,0
DA:103,0
DA:104,0
DA:105,0
DA:106,0
DA:107,0
DA:108,0
DA:109,0
DA:110,0
DA:112,0
DA:113,0
DA:114,0
DA:115,0
DA:116,0
DA:117,0
DA:118,0
DA:119,0
DA:120,0
DA:121,0
DA:123,256
DA:127,256
DA:128,256
DA:129,256
DA:130,256
DA:131,256
DA:132,256
DA:133,256
DA:134,3328
DA:136,3072
DA:137,3072
DA:138,3072
DA:140,3072
DA:141,3072
DA:142,3072
DA:144,3072
DA:146,3072
DA:147,3072
DA:148,3072
DA:149,3072
DA:150,3072
DA:151,3072
DA:152,3072
DA:153,3072
DA:154,3072
DA:155,3072
DA:157,256
DA:158,256
DA:159,256
DA:160,256
DA:161,256
DA:162,256
DA:163,256
DA:164,256
DA:165,256
DA:166,256
DA:169,256
DA:170,512
DA:173,256
DA:174,256
DA:175,256
DA:176,512
DA:179,256
DA:180,256
DA:181,256
DA:182,256
DA:183,256
DA:184,256
DA:187,256
DA:188,256
DA:189,256
DA:190,256
DA:191,256
DA:192,256
DA:193,256
DA:194,256
DA:195,256
DA:196,256
DA:197,256
DA:198,256
DA:199,512
DA:200,512
DA:201,512
DA:202,512
DA:205,256
DA:223,192
DA:225,192
DA:226,192
DA:228,192
DA:231,192
DA:233,192
DA:234,192
DA:235,192
DA:238,2040
DA:239,144
DA:240,0
DA:241,48
DA:243,48
DA:245,48
DA:246,48
DA:250,9216
DA:254,9216
DA:255,9216
DA:256,9216
DA:258,9216
DA:259,9216
DA:260,9216
DA:262,9216
DA:263,9216
DA:264,9216
DA:265,9216
DA:277,0
DA:279,0
DA:280,0
DA:283,0
DA:285,0
DA:286,0
DA:287,0
DA:292,0
DA:295,0
DA:298,0
DA:302,0
DA:303,0
DA:306,0
DA:310,0
DA:311,0
DA:312,0
DA:313,0
DA:314,0
DA:315,0
DA:316,0
DA:317,0
DA:318,0
DA:319,0
DA:321,0
DA:322,0
DA:323,0
DA:324,0
DA:325,0
DA:326,0
DA:327,0
DA:336,48
DA:338,48
DA:339,48
DA:340,48
DA:341,48
DA:343,48
DA:347,0
DA:349,0
DA:350,0
DA:351,0
DA:352,0
DA:354,0
LF:192
LH:121
end_of_record
TN:
SF:/home/bruce/work/RAPTor/physics_engine/lcp_solver.h
FN:28,_ZN14raptor_physics10lcp_solverC2Eii
FN:91,_ZN14raptor_physics10lcp_solverD2Ev
FN:121,_ZN14raptor_physics10lcp_solver12initialise_mEv
FN:122,_ZN14raptor_physics10lcp_solver12initialise_qEv
FN:126,_ZN14raptor_physics10lcp_solver5solveEPf
FN:181,_ZZN14raptor_physics10lcp_solver5solveEPfENKUlPSt18basic_stringstreamIcSt11char_traitsIcESaIcEEiE_clES7_i
FN:195,_ZNK14raptor_physics10lcp_solver10find_pivotEi
FN:223,_ZNK14raptor_physics10lcp_solver10find_pivotEv
FN:248,_ZN14raptor_physics10lcp_solver20gaussian_eliminationEii
FN:295,_ZN14raptor_physics10lcp_solver22gaussian_elimination_qEii
FN:315,_ZNK14raptor_physics10lcp_solver4dumpEv
FN:317,_ZZNK14raptor_physics10lcp_solver4dumpEvENKUlPSt18basic_stringstreamIcSt11char_traitsIcESaIcEEiE_clES6_i
FN:327,_ZZNK14raptor_physics10lcp_solver4dumpEvENKUlPSt18basic_stringstreamIcSt11char_traitsIcESaIcEEfE0_clES6_f
FNDA:0,_ZN14raptor_physics10lcp_solver5solveEPf
FNDA:0,_ZN14raptor_physics10lcp_solver22gaussian_elimination_qEii
FNDA:0,_ZZNK14raptor_physics10lcp_solver4dumpEvENKUlPSt18basic_stringstreamIcSt11char_traitsIcESaIcEEiE_clES6_i
FNDA:0,_ZNK14raptor_physics10lcp_solver10find_pivotEv
FNDA:0,_ZZNK14raptor_physics10lcp_solver4dumpEvENKUlPSt18basic_stringstreamIcSt11char_traitsIcESaIcEEfE0_clES6_f
FNDA:0,_ZN14raptor_physics10lcp_solver12initialise_qEv
FNDA:0,_ZN14raptor_physics10lcp_solver12initialise_mEv
FNDA:0,_ZNK14raptor_physics10lcp_solver10find_pivotEi
FNDA:0,_ZNK14raptor_physics10lcp_solver4dumpEv
FNDA:0,_ZN14raptor_physics10lcp_solver20gaussian_eliminationEii
FNDA:0,_ZN14raptor_physics10lcp_solverC2Eii
FNDA:0,_ZN14raptor_physics10lcp_solverD2Ev
FNDA:0,_ZZN14raptor_physics10lcp_solver5solveEPfENKUlPSt18basic_stringstreamIcSt11char_traitsIcESaIcEEiE_clES7_i
FNF:13
FNH:0
DA:28,0
DA:29,0
DA:30,0
DA:32,0
DA:35,0
DA:36,0
DA:38,0
DA:43,0
DA:44,0
DA:46,0
DA:50,0
DA:52,0
DA:56,0
DA:58,0
DA:59,0
DA:60,0
DA:91,0
DA:93,0
DA:95,0
DA:97,0
DA:100,0
DA:102,0
DA:105,0
DA:107,0
DA:110,0
DA:112,0
DA:115,0
DA:117,0
DA:118,0
DA:119,0
DA:121,0
DA:122,0
DA:126,0
DA:128,0
DA:129,0
DA:132,0
DA:133,0
DA:136,0
DA:138,0
DA:139,0
DA:143,0
DA:144,0
DA:147,0
DA:148,0
DA:149,0
DA:152,0
DA:153,0
DA:154,0
DA:157,0
DA:158,0
DA:161,0
DA:163,0
DA:164,0
DA:167,0
DA:168,0
DA:172,0
DA:173,0
DA:175,0
DA:177,0
DA:181,0
DA:183,0
DA:184,0
DA:185,0
DA:188,0
DA:195,0
DA:199,0
DA:200,0
DA:201,0
DA:202,0
DA:204,0
DA:207,0
DA:208,0
DA:210,0
DA:211,0
DA:212,0
DA:217,0
DA:223,0
DA:226,0
DA:227,0
DA:228,0
DA:229,0
DA:231,0
DA:233,0
DA:234,0
DA:235,0
DA:239,0
DA:248,0
DA:250,0
DA:253,0
DA:255,0
DA:257,0
DA:259,0
DA:260,0
DA:262,0
DA:264,0
DA:266,0
DA:269,0
DA:274,0
DA:275,0
DA:276,0
DA:278,0
DA:280,0
DA:283,0
DA:286,0
DA:287,0
DA:288,0
DA:290,0
DA:295,0
DA:297,0
DA:300,0
DA:302,0
DA:304,0
DA:305,0
DA:310,0
DA:311,0
DA:312,0
DA:315,0
DA:317,0
DA:319,0
DA:320,0
DA:321,0
DA:323,0
DA:325,0
DA:326,0
DA:327,0
DA:329,0
DA:330,0
DA:331,0
DA:332,0
DA:333,0
LF:130
LH:0
end_of_record
TN:
SF:/home/bruce/work/RAPTor/physics_engine/matrix_3d.h
FN:17,_ZN9matrix_3dC2EP7point_ti
FN:20,_ZN9matrix_3dD2Ev
FN:26,_ZN9matrix_3dpLERK7point_t
FN:36,_ZN9matrix_3dmIERK7point_t
FN:157,_ZN9matrix_3d23rotate_all_about_originERK12quaternion_t
FN:182,_ZNK9matrix_3d15get_extremitiesEP7point_tS1_
FN:198,_ZNK9matrix_3d7get_rowEi
FN:203,_ZNK9matrix_3d4sizeEv
FNDA:48,_ZN9matrix_3dmIERK7point_t
FNDA:45360,_ZNK9matrix_3d7get_rowEi
FNDA:25344,_ZNK9matrix_3d4sizeEv
FNDA:48,_ZN9matrix_3dpLERK7point_t
FNDA:48,_ZN9matrix_3d23rotate_all_about_originERK12quaternion_t
FNDA:312,_ZNK9matrix_3d15get_extremitiesEP7point_tS1_
FNDA:192,_ZN9matrix_3dD2Ev
FNDA:256,_ZN9matrix_3dC2EP7point_ti
FNF:8
FNH:8
DA:17,256
DA:18,256
DA:20,192
DA:22,192
DA:23,192
DA:26,48
DA:28,432
DA:30,384
DA:33,48
DA:36,48
DA:38,432
DA:40,384
DA:43,48
DA:157,48
DA:159,432
DA:161,384
DA:164,48
DA:182,312
DA:185,312
DA:186,312
DA:189,2496
DA:191,2184
DA:192,2184
DA:195,312
DA:198,45360
DA:200,45360
DA:203,25344
DA:205,25344
LF:28
LH:28
end_of_record
TN:
SF:/home/bruce/work/RAPTor/physics_engine/physics_common.cc
FN:16,_ZN14raptor_physics14project_vectorERK7point_tS2_
FN:32,_ZN14raptor_physics19find_support_vertexERK9matrix_3dRK7point_t
FN:40,_ZN14raptor_physics19find_support_vertexERK9matrix_3dRK7point_tPf
FN:59,_ZN14raptor_physics19find_support_vertexERK9matrix_3dRK7point_tS5_S5_S5_Pf
FN:113,_ZN14raptor_physics14is_inside_edgeERK7point_tS2_S2_
FN:121,_ZN14raptor_physics13is_coincidentERK7point_tS2_
FN:129,_ZN14raptor_physics12clip_polygonEPSt6vectorI7point_tSaIS1_EERKS3_RKS1_
FN:134,_ZZN14raptor_physics12clip_polygonEPSt6vectorI7point_tSaIS1_EERKS3_RKS1_ENKUlPSt18basic_stringstreamIcSt11char_traitsIcESaIcEES8_E_clESE_S8_
FN:140,_ZZN14raptor_physics12clip_polygonEPSt6vectorI7point_tSaIS1_EERKS3_RKS1_ENKUlPSt18basic_stringstreamIcSt11char_traitsIcESaIcEES8_E0_clESE_S8_
FN:205,_ZZN14raptor_physics12clip_polygonEPSt6vectorI7point_tSaIS1_EERKS3_RKS1_ENKUlPSt18basic_stringstreamIcSt11char_traitsIcESaIcEES8_E1_clESE_S8_
FN:243,_ZZN14raptor_physics12clip_polygonEPSt6vectorI7point_tSaIS1_EERKS3_RKS1_ENKUlPSt18basic_stringstreamIcSt11char_traitsIcESaIcEES8_E2_clESE_S8_
FN:251,_ZN14raptor_physics29find_first_positive_real_rootEPfffff
FN:353,_ZZN14raptor_physics29find_first_positive_real_rootEPfffffENKUlPSt18basic_stringstreamIcSt11char_traitsIcESaIcEEfE_clES6_f
FN:370,_ZN14raptor_physics42find_exact_none_translating_collision_timeERK7point_tS2_S2_S2_S2_S2_ff
FN:416,_ZN14raptor_physics25find_exact_collision_timeERK7point_tS2_S2_S2_S2_S2_S2_ff
FN:462,_ZN14raptor_physics30interpolated_quaternion_rotateERK7point_tS2_S2_fff
FN:479,_ZN14raptor_physics25find_exact_collision_timeERK7point_tS2_S2_S2_S2_S2_S2_S2_ff
FN:574,_ZN14raptor_physics42find_exact_none_translating_collision_timeERK7point_tS2_S2_S2_S2_S2_S2_ff
FN:656,_Z41__static_initialization_and_destruction_0ii
FN:656,_GLOBAL__sub_I_physics_common.cc
FNDA:12,_Z41__static_initialization_and_destruction_0ii
FNDA:0,_ZN14raptor_physics42find_exact_none_translating_collision_timeERK7point_tS2_S2_S2_S2_S2_S2_ff
FNDA:0,_ZN14raptor_physics13is_coincidentERK7point_tS2_
FNDA:0,_ZZN14raptor_physics12clip_polygonEPSt6vectorI7point_tSaIS1_EERKS3_RKS1_ENKUlPSt18basic_stringstreamIcSt11char_traitsIcESaIcEES8_E1_clESE_S8_
FNDA:0,_ZN14raptor_physics29find_first_positive_real_rootEPfffff
FNDA:0,_ZN14raptor_physics25find_exact_collision_timeERK7point_tS2_S2_S2_S2_S2_S2_S2_ff
FNDA:0,_ZZN14raptor_physics12clip_polygonEPSt6vectorI7point_tSaIS1_EERKS3_RKS1_ENKUlPSt18basic_stringstreamIcSt11char_traitsIcESaIcEES8_E0_clESE_S8_
FNDA:0,_ZN14raptor_physics25find_exact_collision_timeERK7point_tS2_S2_S2_S2_S2_S2_ff
FNDA:0,_ZZN14raptor_physics29find_first_positive_real_rootEPfffffENKUlPSt18basic_stringstreamIcSt11char_traitsIcESaIcEEfE_clES6_f
FNDA:0,_ZZN14raptor_physics12clip_polygonEPSt6vectorI7point_tSaIS1_EERKS3_RKS1_ENKUlPSt18basic_stringstreamIcSt11char_traitsIcESaIcEES8_E_clESE_S8_
FNDA:48,_ZN14raptor_physics19find_support_vertexERK9matrix_3dRK7point_tS5_S5_S5_Pf
FNDA:0,_ZN14raptor_physics14is_inside_edgeERK7point_tS2_S2_
FNDA:2880,_ZN14raptor_physics19find_support_vertexERK9matrix_3dRK7point_tPf
FNDA:2880,_ZN14raptor_physics19find_support_vertexERK9matrix_3dRK7point_t
FNDA:0,_ZN14raptor_physics42find_exact_none_translating_collision_timeERK7point_tS2_S2_S2_S2_S2_ff
FNDA:12,_GLOBAL__sub_I_physics_common.cc
FNDA:0,_ZN14raptor_physics12clip_polygonEPSt6vectorI7point_tSaIS1_EERKS3_RKS1_
FNDA:0,_ZN14raptor_physics14project_vectorERK7point_tS2_
FNDA:0,_ZN14raptor_physics30interpolated_quaternion_rotateERK7point_tS2_S2_fff
FNDA:0,_ZZN14raptor_physics12clip_polygonEPSt6vectorI7point_tSaIS1_EERKS3_RKS1_ENKUlPSt18basic_stringstreamIcSt11char_traitsIcESaIcEES8_E2_clESE_S8_
FNF:20
FNH:5
DA:16,0
DA:19,0
DA:20,0
DA:22,0
DA:26,0
DA:27,0
DA:32,2880
DA:35,2880
DA:40,2880
DA:43,2880
DA:44,2880
DA:45,23040
DA:47,20160
DA:48,20160
DA:50,2256
DA:51,2256
DA:55,2880
DA:59,48
DA:63,48
DA:64,48
DA:66,24
DA:67,24
DA:71,24
DA:72,24
DA:76,24
DA:77,24
DA:78,192
DA:80,168
DA:81,168
DA:83,48
DA:84,48
DA:88,24
DA:113,0
DA:115,0
DA:116,0
DA:121,0
DA:123,0
DA:124,0
DA:129,0
DA:131,0
DA:133,0
DA:134,0
DA:136,0
DA:137,0
DA:138,0
DA:139,0
DA:140,0
DA:142,0
DA:143,0
DA:144,0
DA:150,0
DA:151,0
DA:152,0
DA:153,0
DA:154,0
DA:155,0
DA:158,0
DA:159,0
DA:162,0
DA:163,0
DA:164,0
DA:166,0
DA:167,0
DA:168,0
DA:169,0
DA:171,0
DA:172,0
DA:174,0
DA:175,0
DA:176,0
DA:178,0
DA:179,0
DA:181,0
DA:183,0
DA:184,0
DA:185,0
DA:186,0
DA:188,0
DA:189,0
DA:191,0
DA:193,0
DA:194,0
DA:195,0
DA:196,0
DA:199,0
DA:200,0
DA:204,0
DA:205,0
DA:207,0
DA:208,0
DA:209,0
DA:212,0
DA:213,0
DA:214,0
DA:215,0
DA:221,0
DA:222,0
DA:224,0
DA:225,0
DA:227,0
DA:228,0
DA:233,0
DA:234,0
DA:236,0
DA:237,0
DA:239,0
DA:242,0
DA:243,0
DA:245,0
DA:246,0
DA:247,0
DA:248,0
DA:251,0
DA:254,0
DA:256,0
DA:259,0
DA:260,0
DA:261,0
DA:264,0
DA:265,0
DA:266,0
DA:269,0
DA:270,0
DA:273,0
DA:274,0
DA:275,0
DA:277,0
DA:278,0
DA:279,0
DA:280,0
DA:281,0
DA:283,0
DA:284,0
DA:287,0
DA:289,0
DA:290,0
DA:291,0
DA:293,0
DA:294,0
DA:295,0
DA:300,0
DA:301,0
DA:302,0
DA:303,0
DA:304,0
DA:305,0
DA:306,0
DA:308,0
DA:309,0
DA:310,0
DA:311,0
DA:314,0
DA:317,0
DA:318,0
DA:319,0
DA:321,0
DA:322,0
DA:323,0
DA:327,0
DA:328,0
DA:329,0
DA:330,0
DA:332,0
DA:333,0
DA:334,0
DA:336,0
DA:338,0
DA:339,0
DA:341,0
DA:342,0
DA:346,0
DA:348,0
DA:349,0
DA:352,0
DA:353,0
DA:355,0
DA:356,0
DA:357,0
DA:359,0
DA:370,0
DA:373,0
DA:374,0
DA:375,0
DA:376,0
DA:377,0
DA:378,0
DA:379,0
DA:382,0
DA:383,0
DA:386,0
DA:387,0
DA:388,0
DA:390,0
DA:391,0
DA:392,0
DA:393,0
DA:394,0
DA:397,0
DA:398,0
DA:399,0
DA:400,0
DA:403,0
DA:404,0
DA:416,0
DA:419,0
DA:420,0
DA:421,0
DA:422,0
DA:423,0
DA:424,0
DA:425,0
DA:426,0
DA:429,0
DA:430,0
DA:431,0
DA:434,0
DA:435,0
DA:436,0
DA:437,0
DA:438,0
DA:439,0
DA:440,0
DA:441,0
DA:442,0
DA:445,0
DA:446,0
DA:447,0
DA:448,0
DA:451,0
DA:452,0
DA:462,0
DA:464,0
DA:465,0
DA:466,0
DA:479,0
DA:482,0
DA:485,0
DA:486,0
DA:487,0
DA:488,0
DA:491,0
DA:492,0
DA:493,0
DA:496,0
DA:498,0
DA:499,0
DA:500,0
DA:501,0
DA:502,0
DA:503,0
DA:506,0
DA:507,0
DA:508,0
DA:509,0
DA:511,0
DA:512,0
DA:515,0
DA:517,0
DA:518,0
DA:519,0
DA:520,0
DA:521,0
DA:522,0
DA:524,0
DA:525,0
DA:526,0
DA:527,0
DA:529,0
DA:530,0
DA:531,0
DA:532,0
DA:533,0
DA:536,0
DA:537,0
DA:538,0
DA:539,0
DA:540,0
DA:543,0
DA:546,0
DA:548,0
DA:549,0
DA:550,0
DA:552,0
DA:554,0
DA:556,0
DA:558,0
DA:562,0
DA:574,0
DA:577,0
DA:580,0
DA:581,0
DA:582,0
DA:585,0
DA:586,0
DA:587,0
DA:590,0
DA:592,0
DA:593,0
DA:594,0
DA:595,0
DA:596,0
DA:597,0
DA:600,0
DA:601,0
DA:602,0
DA:603,0
DA:605,0
DA:606,0
DA:609,0
DA:611,0
DA:612,0
DA:613,0
DA:614,0
DA:615,0
DA:616,0
DA:618,0
DA:619,0
DA:620,0
DA:621,0
DA:623,0
DA:624,0
DA:625,0
DA:626,0
DA:629,0
DA:630,0
DA:631,0
DA:632,0
DA:635,0
DA:638,0
DA:640,0
DA:641,0
DA:642,0
DA:644,0
DA:646,0
DA:648,0
DA:650,0
DA:654,0
DA:656,36
LF:338
LH:27
end_of_record
TN:
SF:/home/bruce/work/RAPTor/physics_engine/physics_engine.cc
FN:16,_ZN14raptor_physics14physics_engine12advance_timeEf
FN:174,_ZZN14raptor_physics14physics_engine12advance_timeEfENKUlRKSt4pairIiPNS_7vg_metaEEE_clES6_
FN:175,_ZZN14raptor_physics14physics_engine12advance_timeEfENKUlRKSt4pairIiPNS_7vg_metaEEE0_clES6_
FN:223,_ZN14raptor_physics14physics_engine17collide_and_cacheEPNS_7vg_metaES2_fb
FN:255,_ZN14raptor_physics14physics_engine16retest_and_cacheEPNS_7vg_metaES2_fb
FN:290,_ZN14raptor_physics14physics_engine23collision_detect_versusERKNSt8__detail20_Node_const_iteratorISt4pairIKiPNS_7vg_metaEELb0ELb0EEEfb
FN:299,_Z41__static_initialization_and_destruction_0ii
FN:299,_GLOBAL__sub_I_physics_engine.cc
FNDA:12,_Z41__static_initialization_and_destruction_0ii
FNDA:0,_ZN14raptor_physics14physics_engine16retest_and_cacheEPNS_7vg_metaES2_fb
FNDA:492,_ZN14raptor_physics14physics_engine17collide_and_cacheEPNS_7vg_metaES2_fb
FNDA:0,_ZZN14raptor_physics14physics_engine12advance_timeEfENKUlRKSt4pairIiPNS_7vg_metaEEE0_clES6_
FNDA:0,_ZZN14raptor_physics14physics_engine12advance_timeEfENKUlRKSt4pairIiPNS_7vg_metaEEE_clES6_
FNDA:12,_GLOBAL__sub_I_physics_engine.cc
FNDA:264,_ZN14raptor_physics14physics_engine23collision_detect_versusERKNSt8__detail20_Node_const_iteratorISt4pairIKiPNS_7vg_metaEELb0ELb0EEEfb
FNDA:24,_ZN14raptor_physics14physics_engine12advance_timeEf
FNF:8
FNH:5
DA:16,24
DA:18,24
DA:21,24
DA:24,24
DA:25,24
DA:26,72
DA:29,24
DA:30,72
DA:32,48
DA:34,24
DA:35,48
DA:39,72
DA:41,48
DA:47,24
DA:49,0
DA:51,0
DA:53,0
DA:55,0
DA:62,48
DA:63,24
DA:64,24
DA:82,0
DA:83,0
DA:85,0
DA:86,0
DA:93,48
DA:94,72
DA:96,48
DA:101,24
DA:102,48
DA:106,24
DA:107,24
DA:108,24
DA:111,48
DA:112,24
DA:113,24
DA:114,24
DA:116,48
DA:117,48
DA:121,0
DA:123,0
DA:124,0
DA:126,0
DA:131,0
DA:132,0
DA:133,0
DA:134,0
DA:136,0
DA:137,0
DA:141,0
DA:142,0
DA:143,0
DA:144,0
DA:147,0
DA:148,0
DA:150,0
DA:153,0
DA:154,0
DA:155,0
DA:159,0
DA:162,0
DA:165,0
DA:166,0
DA:167,0
DA:170,0
DA:171,0
DA:174,0
DA:175,0
DA:176,0
DA:179,0
DA:181,0
DA:185,0
DA:186,0
DA:187,0
DA:188,0
DA:192,0
DA:193,0
DA:195,0
DA:196,0
DA:197,0
DA:200,0
DA:204,120
DA:206,48
DA:210,24
DA:211,24
DA:212,24
DA:214,0
DA:215,0
DA:217,24
DA:219,24
DA:223,492
DA:227,492
DA:228,492
DA:229,492
DA:231,96
DA:233,48
DA:234,48
DA:236,0
DA:240,48
DA:241,48
DA:243,48
DA:247,444
DA:248,444
DA:251,444
DA:255,0
DA:259,0
DA:260,0
DA:261,0
DA:264,0
DA:266,0
DA:267,0
DA:269,0
DA:274,0
DA:275,0
DA:277,0
DA:283,0
DA:284,0
DA:286,0
DA:290,264
DA:292,756
DA:294,492
DA:297,264
DA:299,36
LF:123
LH:56
end_of_record
TN:
SF:/home/bruce/work/RAPTor/physics_engine/physics_engine.h
FN:34,_ZN14raptor_physics14physics_engineC2EPKNS_8colliderE
FN:44,_ZN14raptor_physics14physics_engineD2Ev
FN:69,_ZN14raptor_physics14physics_engine11apply_forceERK7point_tS3_fi
FN:75,_ZN14raptor_physics14physics_engine18apply_accelerationERK7point_tS3_fi
FN:84,_ZNK14raptor_physics14physics_engine18scene_to_trianglesEv
FN:97,_ZN14raptor_physics14physics_engine24void_all_collisions_withEi
FN:110,_ZN14raptor_physics14physics_engine24void_all_collisions_withEPNS_7vg_metaE
FN:121,_ZNK14raptor_physics14physics_engine16default_colliderEv
FN:130,_ZNK14raptor_physics14physics_engine17number_of_objectsEv
FN:133,_ZNK14raptor_physics14physics_engine10get_objectEi
FN:146,_ZN14raptor_physics14physics_engine10add_objectEPNS_12vertex_groupE
FN:156,_ZN14raptor_physics14physics_engine13remove_objectEi
FN:163,_ZNK14raptor_physics14physics_engine20number_of_collisionsEv
FN:165,_ZNK14raptor_physics14physics_engine13get_collisionEii
FN:199,_ZN14raptor_physics14physics_engine12is_collisionC2ENS_11collision_tE
FN:201,_ZNK14raptor_physics14physics_engine12is_collisionclERKSt4pairIPNS_7vg_metaEPNS_13tracking_infoIS3_EEE
FN:212,_ZN14raptor_physics14physics_engine20update_tracking_infoEPNS_7vg_metaES2_PNS_7simplexERKS3_fNS_11collision_tE
FN:229,_ZN14raptor_physics14physics_engine20update_tracking_infoEPNS_7vg_metaES2_PNS_7simplexERKS3_
FNDA:128,_ZNK14raptor_physics14physics_engine20number_of_collisionsEv
FNDA:144,_ZN14raptor_physics14physics_engine10add_objectEPNS_12vertex_groupE
FNDA:256,_ZNK14raptor_physics14physics_engine13get_collisionEii
FNDA:16,_ZN14raptor_physics14physics_engine13remove_objectEi
FNDA:88,_ZNK14raptor_physics14physics_engine16default_colliderEv
FNDA:96,_ZN14raptor_physics14physics_engine20update_tracking_infoEPNS_7vg_metaES2_PNS_7simplexERKS3_fNS_11collision_tE
FNDA:16,_ZN14raptor_physics14physics_engine18apply_accelerationERK7point_tS3_fi
FNDA:0,_ZN14raptor_physics14physics_engine20update_tracking_infoEPNS_7vg_metaES2_PNS_7simplexERKS3_
FNDA:64,_ZN14raptor_physics14physics_engineD2Ev
FNDA:88,_ZNK14raptor_physics14physics_engine17number_of_objectsEv
FNDA:64,_ZN14raptor_physics14physics_engineC2EPKNS_8colliderE
FNDA:0,_ZNK14raptor_physics14physics_engine12is_collisionclERKSt4pairIPNS_7vg_metaEPNS_13tracking_infoIS3_EEE
FNDA:16,_ZN14raptor_physics14physics_engine11apply_forceERK7point_tS3_fi
FNDA:8,_ZNK14raptor_physics14physics_engine18scene_to_trianglesEv
FNDA:464,_ZNK14raptor_physics14physics_engine10get_objectEi
FNDA:48,_ZN14raptor_physics14physics_engine12is_collisionC2ENS_11collision_tE
FNDA:40,_ZN14raptor_physics14physics_engine24void_all_collisions_withEi
FNDA:48,_ZN14raptor_physics14physics_engine24void_all_collisions_withEPNS_7vg_metaE
FNF:18
FNH:16
DA:34,64
DA:35,64
DA:36,0
DA:38,0
DA:39,0
DA:40,0
DA:41,128
DA:44,64
DA:47,192
DA:49,128
DA:51,64
DA:54,112
DA:56,48
DA:58,64
DA:61,64
DA:64,64
DA:65,64
DA:66,64
DA:67,64
DA:69,16
DA:71,16
DA:72,16
DA:75,16
DA:77,16
DA:78,16
DA:79,16
DA:84,8
DA:86,8
DA:87,24
DA:89,16
DA:92,8
DA:97,40
DA:99,40
DA:100,40
DA:102,8
DA:106,32
DA:110,48
DA:112,192
DA:114,144
DA:117,48
DA:121,88
DA:130,88
DA:133,464
DA:135,464
DA:136,464
DA:138,112
DA:142,352
DA:146,144
DA:148,144
DA:149,144
DA:150,144
DA:152,144
DA:153,144
DA:156,16
DA:158,16
DA:159,16
DA:163,128
DA:165,256
DA:168,256
DA:169,256
DA:170,256
DA:172,16
DA:176,240
DA:177,240
DA:179,24
DA:183,216
DA:199,48
DA:201,0
DA:203,0
DA:212,96
DA:215,96
DA:216,96
DA:218,24
DA:222,72
DA:225,96
DA:229,0
DA:231,0
DA:234,0
DA:236,0
DA:238,0
LF:80
LH:69
end_of_record
TN:
SF:/home/bruce/work/RAPTor/physics_engine/simplex.cc
FN:15,_ZNK14raptor_physics7simplex16normal_of_impactERKS0_
FN:112,_ZNK14raptor_physics7simplex27get_points_in_contact_planeERK7point_t
FN:137,_ZNK14raptor_physics7simplex34get_point_indices_in_contact_planeERK7point_t
FN:162,_ZNK14raptor_physics7simplex16center_of_impactERKS0_RK7point_t
FN:172,_ZZNK14raptor_physics7simplex16center_of_impactERKS0_RK7point_tENKUlPSt18basic_stringstreamIcSt11char_traitsIcESaIcEES5_E_clESB_S5_
FN:177,_ZZNK14raptor_physics7simplex16center_of_impactERKS0_RK7point_tENKUlPSt18basic_stringstreamIcSt11char_traitsIcESaIcEES5_E0_clESB_S5_
FN:211,_ZNK14raptor_physics7simplex17get_unique_pointsEP7point_t
FN:234,_Z41__static_initialization_and_destruction_0ii
FN:234,_GLOBAL__sub_I_simplex.cc
FNDA:12,_Z41__static_initialization_and_destruction_0ii
FNDA:96,_ZNK14raptor_physics7simplex16normal_of_impactERKS0_
FNDA:288,_ZZNK14raptor_physics7simplex16center_of_impactERKS0_RK7point_tENKUlPSt18basic_stringstreamIcSt11char_traitsIcESaIcEES5_E_clESB_S5_
FNDA:0,_ZNK14raptor_physics7simplex34get_point_indices_in_contact_planeERK7point_t
FNDA:12,_GLOBAL__sub_I_simplex.cc
FNDA:288,_ZZNK14raptor_physics7simplex16center_of_impactERKS0_RK7point_tENKUlPSt18basic_stringstreamIcSt11char_traitsIcESaIcEES5_E0_clESB_S5_
FNDA:192,_ZNK14raptor_physics7simplex27get_points_in_contact_planeERK7point_t
FNDA:192,_ZNK14raptor_physics7simplex17get_unique_pointsEP7point_t
FNDA:96,_ZNK14raptor_physics7simplex16center_of_impactERKS0_RK7point_t
FNF:9
FNH:8
DA:15,96
DA:17,96
DA:18,192
DA:21,96
DA:24,96
DA:25,96
DA:26,96
DA:31,96
DA:32,96
DA:35,96
DA:36,96
DA:41,96
DA:43,96
DA:44,96
DA:48,0
DA:49,0
DA:52,96
DA:53,96
DA:57,0
DA:58,0
DA:63,96
DA:64,96
DA:67,96
DA:70,96
DA:73,96
DA:74,96
DA:75,96
DA:80,0
DA:81,0
DA:83,0
DA:85,0
DA:88,96
DA:92,0
DA:93,0
DA:95,0
DA:97,0
DA:98,0
DA:102,96
DA:104,0
DA:107,192
DA:108,96
DA:112,192
DA:115,192
DA:118,192
DA:119,1728
DA:122,1536
DA:123,1536
DA:124,1536
DA:126,768
DA:131,192
DA:133,192
DA:137,0
DA:140,0
DA:143,0
DA:144,0
DA:147,0
DA:148,0
DA:149,0
DA:151,0
DA:156,0
DA:158,0
DA:162,96
DA:164,96
DA:167,96
DA:170,192
DA:171,192
DA:172,1056
DA:174,288
DA:175,288
DA:176,576
DA:177,1056
DA:179,288
DA:180,288
DA:181,576
DA:186,96
DA:187,96
DA:188,384
DA:190,288
DA:191,288
DA:194,96
DA:195,96
DA:196,384
DA:198,288
DA:199,288
DA:202,96
DA:203,96
DA:206,192
DA:207,192
DA:211,192
DA:215,192
DA:216,576
DA:219,384
DA:220,576
DA:222,192
DA:226,384
DA:228,384
DA:232,192
DA:234,36
LF:98
LH:74
end_of_record
TN:
SF:/home/bruce/work/RAPTor/physics_engine/simplex.h
FN:20,_ZN14raptor_physics7simplexC2ERK9matrix_3db
FN:31,_ZN14raptor_physics7simplexC2ERKS0_
FN:47,_ZNK14raptor_physics7simplex15compute_c_spaceERKS0_P7point_tRKS3_S6_
FN:82,_ZNK14raptor_physics7simplex4sizeEv
FN:87,_ZNK14raptor_physics7simplex11is_new_pairERKS0_ii
FN:106,_ZN14raptor_physics7simplex15retain_verticesEPKij
FN:124,_ZN14raptor_physics7simplex3addEi
FN:146,_ZNK14raptor_physics7simplex34rate_of_change_of_normal_of_impactINS_12vertex_groupEEE7point_tRKS0_RKT_S8_RKS3_
FN:255,_ZNK14raptor_physics7simplex20get_displaced_vertexERK7point_ti
FN:269,_ZNK14raptor_physics7simplex10get_vertexEi
FNDA:960,_ZN14raptor_physics7simplexC2ERKS0_
FNDA:624,_ZNK14raptor_physics7simplex10get_vertexEi
FNDA:5088,_ZNK14raptor_physics7simplex20get_displaced_vertexERK7point_ti
FNDA:0,_ZNK14raptor_physics7simplex34rate_of_change_of_normal_of_impactINS_12vertex_groupEEE7point_tRKS0_RKT_S8_RKS3_
FNDA:1920,_ZN14raptor_physics7simplex3addEi
FNDA:2880,_ZN14raptor_physics7simplex15retain_verticesEPKij
FNDA:1440,_ZNK14raptor_physics7simplex11is_new_pairERKS0_ii
FNDA:2880,_ZNK14raptor_physics7simplex4sizeEv
FNDA:1488,_ZN14raptor_physics7simplexC2ERK9matrix_3db
FNDA:1440,_ZNK14raptor_physics7simplex15compute_c_spaceERKS0_P7point_tRKS3_S6_
FNF:10
FNH:9
DA:20,1488
DA:22,1488
DA:24,1488
DA:26,48
DA:28,1488
DA:31,960
DA:33,960
DA:34,960
DA:36,960
DA:37,960
DA:41,0
DA:42,0
DA:44,960
DA:47,1440
DA:50,1440
DA:56,3984
DA:58,2544
DA:64,1440
DA:66,0
DA:67,0
DA:68,0
DA:69,0
DA:70,0
DA:71,0
DA:73,0
DA:74,0
DA:75,0
DA:78,1440
DA:82,2880
DA:84,2880
DA:87,1440
DA:90,1440
DA:93,3024
DA:96,2064
DA:98,480
DA:102,960
DA:106,2880
DA:108,2880
DA:111,7008
DA:113,4128
DA:117,2880
DA:118,2880
DA:120,2880
DA:124,1920
DA:126,1920
DA:127,1920
DA:129,1920
DA:146,0
DA:148,0
DA:149,0
DA:152,0
DA:155,0
DA:156,0
DA:157,0
DA:162,0
DA:163,0
DA:166,0
DA:167,0
DA:171,0
DA:173,0
DA:174,0
DA:178,0
DA:179,0
DA:182,0
DA:183,0
DA:187,0
DA:188,0
DA:189,0
DA:190,0
DA:191,0
DA:193,0
DA:197,0
DA:198,0
DA:201,0
DA:203,0
DA:204,0
DA:205,0
DA:206,0
DA:208,0
DA:209,0
DA:210,0
DA:211,0
DA:213,0
DA:214,0
DA:215,0
DA:217,0
DA:218,0
DA:219,0
DA:220,0
DA:222,0
DA:223,0
DA:224,0
DA:228,0
DA:229,0
DA:230,0
DA:231,0
DA:232,0
DA:233,0
DA:236,0
DA:239,0
DA:240,0
DA:244,0
DA:246,0
DA:249,0
DA:250,0
DA:255,5088
DA:257,5088
DA:258,5088
DA:260,288
DA:264,4800
DA:269,624
DA:271,624
LF:112
LH:43
end_of_record
TN:
SF:/home/bruce/work/RAPTor/physics_engine/tracking_info.h
FN:27,_ZN14raptor_physics13tracking_infoINS_7vg_metaEEC2EPS1_PNS_7simplexERKS4_fNS_11collision_tE
FN:34,_ZN14raptor_physics13tracking_infoINS_7vg_metaEED2Ev
FN:44,_ZN14raptor_physics13tracking_infoINS_7vg_metaEE6updateEPS1_PNS_7simplexERKS4_fNS_11collision_tE
FN:73,_ZN14raptor_physics13tracking_infoINS_7vg_metaEE24successful_retest_updateEPS1_PNS_7simplexERKS4_
FN:89,_ZN14raptor_physics13tracking_infoINS_7vg_metaEE14void_collisionEPS1_
FN:108,_ZNK14raptor_physics13tracking_infoINS_7vg_metaEE24get_first_collision_typeEv
FN:109,_ZNK14raptor_physics13tracking_infoINS_7vg_metaEE24get_first_collision_timeEv
FN:110,_ZNK14raptor_physics13tracking_infoINS_7vg_metaEE19get_first_collisionEv
FN:113,_ZN14raptor_physics13tracking_infoINS_7vg_metaEEixEPS1_
FN:126,_ZNK14raptor_physics13tracking_infoINS_7vg_metaEE5beginEv
FN:127,_ZNK14raptor_physics13tracking_infoINS_7vg_metaEE3endEv
FN:130,_ZN14raptor_physics13tracking_infoINS_7vg_metaEE20find_first_collisionEv
FNDA:0,_ZNK14raptor_physics13tracking_infoINS_7vg_metaEE24get_first_collision_typeEv
FNDA:72,_ZN14raptor_physics13tracking_infoINS_7vg_metaEEC2EPS1_PNS_7simplexERKS4_fNS_11collision_tE
FNDA:144,_ZN14raptor_physics13tracking_infoINS_7vg_metaEE14void_collisionEPS1_
FNDA:0,_ZNK14raptor_physics13tracking_infoINS_7vg_metaEE19get_first_collisionEv
FNDA:324,_ZN14raptor_physics13tracking_infoINS_7vg_metaEEixEPS1_
FNDA:48,_ZN14raptor_physics13tracking_infoINS_7vg_metaEED2Ev
FNDA:24,_ZN14raptor_physics13tracking_infoINS_7vg_metaEE6updateEPS1_PNS_7simplexERKS4_fNS_11collision_tE
FNDA:0,_ZN14raptor_physics13tracking_infoINS_7vg_metaEE24successful_retest_updateEPS1_PNS_7simplexERKS4_
FNDA:0,_ZNK14raptor_physics13tracking_infoINS_7vg_metaEE5beginEv
FNDA:48,_ZN14raptor_physics13tracking_infoINS_7vg_metaEE20find_first_collisionEv
FNDA:0,_ZNK14raptor_physics13tracking_infoINS_7vg_metaEE24get_first_collision_timeEv
FNDA:0,_ZNK14raptor_physics13tracking_infoINS_7vg_metaEE3endEv
FNF:12
FNH:6
DA:27,72
DA:31,72
DA:34,48
DA:36,112
DA:38,64
DA:40,48
DA:41,48
DA:44,24
DA:47,24
DA:48,24
DA:50,0
DA:54,24
DA:58,24
DA:60,0
DA:61,0
DA:62,0
DA:64,24
DA:66,0
DA:69,24
DA:73,0
DA:75,0
DA:78,0
DA:80,0
DA:81,0
DA:85,0
DA:89,144
DA:92,144
DA:93,144
DA:95,48
DA:99,144
DA:101,48
DA:104,144
DA:108,0
DA:109,0
DA:110,0
DA:113,324
DA:115,324
DA:116,324
DA:118,36
DA:122,288
DA:126,0
DA:127,0
DA:130,48
DA:132,48
DA:133,48
DA:134,48
DA:135,120
DA:137,72
DA:138,72
DA:140,12
DA:141,12
DA:142,12
DA:146,48
LF:53
LH:37
end_of_record
TN:
SF:/home/bruce/work/RAPTor/physics_engine/vertex_group.cc
FN:417,_ZN14raptor_physics12vertex_group15commit_movementEf
FN:447,_ZNK14raptor_physics12vertex_group19project_translationEf
FN:454,_ZNK14raptor_physics12vertex_group19project_translationEP7point_tf
FN:472,_ZNK14raptor_physics12vertex_group16project_rotationEf
FN:479,_ZNK14raptor_physics12vertex_group16project_rotationEP7point_tf
FN:504,_ZNK14raptor_physics12vertex_group29project_maximum_rotation_ontoERK7point_tS3_f
FN:544,_Z41__static_initialization_and_destruction_0ii
FN:544,_GLOBAL__sub_I_vertex_group.cc
FNDA:12,_Z41__static_initialization_and_destruction_0ii
FNDA:0,_ZNK14raptor_physics12vertex_group33close_contact_collision_detectionEPS0_PPNS_7simplexES4_PfRK7point_t
FNDA:48,_ZN14raptor_physics12vertex_group15commit_movementEf
FNDA:1872,_ZNK14raptor_physics12vertex_group19project_translationEf
FNDA:444,_ZN14raptor_physics12vertex_group26exactly_resolve_collisionsEPS0_PPNS_7simplexES4_Pf
FNDA:480,_ZN14raptor_physics12vertex_group12has_collidedEPS0_PPNS_7simplexES4_P7point_tffb
FNDA:0,_ZNK14raptor_physics12vertex_group16project_rotationEf
FNDA:12,_GLOBAL__sub_I_vertex_group.cc
FNDA:48,_ZNK14raptor_physics12vertex_group16project_rotationEP7point_tf
FNDA:24,_ZNK14raptor_physics12vertex_group29project_maximum_movement_ontoERKS0_RK7point_tS5_S5_f
FNDA:48,_ZNK14raptor_physics12vertex_group29project_maximum_rotation_ontoERK7point_tS3_f
FNDA:48,_ZN14raptor_physics12vertex_group33conservatively_resolve_collisionsEPS0_PPNS_7simplexES4_Pf
FNDA:1920,_ZNK14raptor_physics12vertex_group19project_translationEP7point_tf
FNF:13
FNH:11
DA:18,480
DA:21,480
DA:24,480
DA:26,0
DA:27,0
DA:28,0
DA:29,0
DA:33,960
DA:36,480
DA:37,480
DA:38,960
DA:41,480
DA:42,480
DA:43,480
DA:44,960
DA:50,444
DA:52,444
DA:55,444
DA:57,240
DA:58,240
DA:59,240
DA:62,204
DA:63,204
DA:64,408
DA:67,204
DA:68,204
DA:69,204
DA:70,204
DA:71,204
DA:74,204
DA:75,204
DA:76,204
DA:79,204
DA:81,312
DA:82,156
DA:85,48
DA:87,48
DA:88,48
DA:89,48
DA:91,0
DA:92,0
DA:97,96
DA:98,48
DA:102,0
DA:105,0
DA:106,0
DA:107,0
DA:108,0
DA:109,0
DA:111,0
DA:112,0
DA:114,0
DA:115,0
DA:116,0
DA:118,0
DA:120,0
DA:124,0
DA:125,0
DA:127,0
DA:128,0
DA:129,0
DA:131,0
DA:132,0
DA:133,0
DA:137,0
DA:138,0
DA:139,0
DA:140,0
DA:141,0
DA:145,0
DA:146,0
DA:149,0
DA:150,0
DA:152,0
DA:154,0
DA:158,0
DA:160,0
DA:161,0
DA:163,0
DA:169,0
DA:171,0
DA:172,0
DA:176,0
DA:177,0
DA:180,0
DA:181,0
DA:182,0
DA:183,0
DA:185,0
DA:186,0
DA:189,0
DA:190,0
DA:194,48
DA:196,48
DA:199,48
DA:201,24
DA:202,24
DA:203,24
DA:206,24
DA:207,24
DA:208,48
DA:212,24
DA:213,24
DA:216,24
DA:217,48
DA:218,24
DA:220,24
DA:221,24
DA:226,24
DA:227,24
DA:228,24
DA:231,24
DA:233,0
DA:235,0
DA:255,24
DA:257,48
DA:258,24
DA:262,0
DA:263,0
DA:264,0
DA:265,0
DA:267,0
DA:269,0
DA:272,0
DA:274,0
DA:275,0
DA:279,0
DA:280,0
DA:284,0
DA:285,0
DA:286,0
DA:289,0
DA:292,0
DA:295,0
DA:297,0
DA:298,0
DA:299,0
DA:305,0
DA:307,0
DA:308,0
DA:319,0
DA:341,0
DA:342,0
DA:345,0
DA:346,0
DA:347,0
DA:349,0
DA:350,0
DA:351,0
DA:355,0
DA:357,0
DA:358,0
DA:361,0
DA:363,0
DA:364,0
DA:365,0
DA:367,0
DA:368,0
DA:371,0
DA:372,0
DA:373,0
DA:376,0
DA:377,0
DA:380,0
DA:386,0
DA:387,0
DA:388,0
DA:393,0
DA:394,0
DA:396,0
DA:397,0
DA:399,0
DA:400,0
DA:401,0
DA:403,0
DA:405,0
DA:406,0
DA:407,0
DA:411,0
DA:412,0
DA:413,0
DA:417,48
DA:420,48
DA:423,48
DA:424,48
DA:427,48
DA:428,48
DA:431,48
DA:435,48
DA:436,48
DA:437,48
DA:441,48
DA:443,48
DA:447,1872
DA:449,1872
DA:450,1872
DA:454,1920
DA:457,1920
DA:461,1920
DA:465,1920
DA:468,1920
DA:472,0
DA:474,0
DA:475,0
DA:479,48
DA:482,48
DA:486,48
DA:490,48
DA:500,48
DA:504,48
DA:507,48
DA:511,48
DA:515,48
DA:516,48
DA:520,48
DA:524,48
DA:527,48
DA:531,24
DA:534,24
DA:535,24
DA:538,24
DA:539,48
DA:542,24
DA:544,36
LF:224
LH:100
end_of_record
TN:
SF:/home/bruce/work/RAPTor/physics_engine/vertex_group.h
FN:38,_ZN14raptor_physics12is_uncertainENS_11collision_tE
FN:44,_ZN14raptor_physics10to_certainENS_11collision_tE
FN:54,_ZN14raptor_physics12vertex_groupC2EP7point_tPSt6vectorIiSaIiEEP8materialfi
FN:67,_ZN14raptor_physics12vertex_groupD2Ev
FN:79,_ZN14raptor_physics12vertex_group11apply_forceERK10force_infof
FN:119,_ZN14raptor_physics12vertex_group13apply_impulseERK7point_tS3_
FN:129,_ZN14raptor_physics12vertex_group13apply_impulseERK7point_tS3_f
FN:137,_ZNK14raptor_physics12vertex_group10get_boundsEP7point_tS2_
FN:147,_ZN14raptor_physics12vertex_group18resolve_collisionsEPS0_PPNS_7simplexES4_Pf
FN:166,_ZNK14raptor_physics12vertex_group9trianglesEPSt6vectorIP8triangleSaIS3_EE
FN:180,_ZNK14raptor_physics12vertex_group12get_velocityEv
FN:181,_ZNK14raptor_physics12vertex_group20get_angular_velocityEv
FN:189,_ZNK14raptor_physics12vertex_group20get_angular_momentumEv
FN:195,_ZNK14raptor_physics12vertex_group12get_velocityERK7point_t
FN:206,_ZNK14raptor_physics12vertex_group9get_forceEv
FN:207,_ZNK14raptor_physics12vertex_group10get_torqueEv
FN:208,_ZNK14raptor_physics12vertex_group9get_speedEv
FN:209,_ZNK14raptor_physics12vertex_group8get_massEv
FN:210,_ZNK14raptor_physics12vertex_group18get_center_of_massEv
FN:213,_ZNK14raptor_physics12vertex_group21get_orientated_tensorEv
FN:216,_ZN14raptor_physics12vertex_group10reset_timeEv
FN:256,_ZNK14raptor_physics12vertex_group21build_edges_from_trisEv
FN:334,_ZN14raptor_physics9make_cubeEP8materialRK7point_tS4_f
FNDA:72,_ZNK14raptor_physics12vertex_group8get_massEv
FNDA:144,_ZNK14raptor_physics12vertex_group9get_forceEv
FNDA:144,_ZNK14raptor_physics12vertex_group10get_torqueEv
FNDA:256,_ZN14raptor_physics12vertex_groupC2EP7point_tPSt6vectorIiSaIiEEP8materialfi
FNDA:256,_ZN14raptor_physics9make_cubeEP8materialRK7point_tS4_f
FNDA:192,_ZN14raptor_physics12vertex_groupD2Ev
FNDA:0,_ZNK14raptor_physics12vertex_group20get_angular_velocityEv
FNDA:24,_ZNK14raptor_physics12vertex_group12get_velocityEv
FNDA:0,_ZN14raptor_physics12vertex_group13apply_impulseERK7point_tS3_f
FNDA:0,_ZNK14raptor_physics12vertex_group18get_center_of_massEv
FNDA:48,_ZN14raptor_physics12vertex_group11apply_forceERK10force_infof
FNDA:492,_ZN14raptor_physics12vertex_group18resolve_collisionsEPS0_PPNS_7simplexES4_Pf
FNDA:0,_ZNK14raptor_physics12vertex_group20get_angular_momentumEv
FNDA:0,_ZN14raptor_physics12vertex_group13apply_impulseERK7point_tS3_
FNDA:256,_ZNK14raptor_physics12vertex_group21build_edges_from_trisEv
FNDA:0,_ZNK14raptor_physics12vertex_group12get_velocityERK7point_t
FNDA:192,_ZN14raptor_physics12is_uncertainENS_11collision_tE
FNDA:16,_ZNK14raptor_physics12vertex_group9trianglesEPSt6vectorIP8triangleSaIS3_EE
FNDA:48,_ZNK14raptor_physics12vertex_group9get_speedEv
FNDA:312,_ZNK14raptor_physics12vertex_group10get_boundsEP7point_tS2_
FNDA:0,_ZN14raptor_physics10to_certainENS_11collision_tE
FNDA:48,_ZN14raptor_physics12vertex_group10reset_timeEv
FNDA:0,_ZNK14raptor_physics12vertex_group21get_orientated_tensorEv
FNF:23
FNH:15
DA:38,192
DA:40,192
DA:44,0
DA:46,0
DA:54,256
DA:55,256
DA:56,256
DA:58,256
DA:65,1024
DA:67,192
DA:69,192
DA:70,192
DA:71,192
DA:72,192
DA:73,192
DA:79,48
DA:82,48
DA:84,0
DA:88,48
DA:89,48
DA:92,48
DA:93,48
DA:94,48
DA:96,48
DA:119,0
DA:121,0
DA:122,0
DA:124,0
DA:125,0
DA:126,0
DA:129,0
DA:131,0
DA:132,0
DA:133,0
DA:137,312
DA:139,312
DA:140,312
DA:147,492
DA:150,1920
DA:151,1380
DA:153,444
DA:158,48
DA:166,16
DA:169,208
DA:172,192
DA:173,192
DA:174,384
DA:176,16
DA:180,24
DA:181,0
DA:189,0
DA:192,0
DA:195,0
DA:198,0
DA:199,0
DA:201,0
DA:206,144
DA:207,144
DA:208,48
DA:209,72
DA:210,0
DA:213,0
DA:216,48
DA:218,48
DA:219,48
DA:220,48
DA:221,48
DA:256,256
DA:258,256
DA:260,3328
DA:262,3072
DA:263,3072
DA:264,3072
DA:267,256
DA:334,256
DA:347,256
DA:358,256
DA:361,256
LF:78
LH:56
end_of_record
TN:
SF:/home/bruce/work/RAPTor/physics_engine/vg_meta.cc
FN:7,_ZN14raptor_physics7vg_metaD2Ev
FN:42,_ZN14raptor_physics7vg_meta12build_boundsEv
FN:64,_GLOBAL__sub_I_vg_meta.cc
FN:64,_Z41__static_initialization_and_destruction_0ii
FNDA:12,_GLOBAL__sub_I_vg_meta.cc
FNDA:12,_Z41__static_initialization_and_destruction_0ii
FNDA:216,_ZN14raptor_physics7vg_meta12build_boundsEv
FNDA:192,_ZN14raptor_physics7vg_metaD2Ev
FNF:4
FNH:4
DA:7,192
DA:10,192
DA:11,192
DA:12,192
DA:14,192
DA:15,192
DA:16,192
DA:18,192
DA:19,192
DA:20,192
DA:22,192
DA:23,192
DA:24,192
DA:25,192
DA:26,192
DA:27,192
DA:28,192
DA:31,216
DA:33,24
DA:35,192
DA:38,192
DA:39,192
DA:42,216
DA:44,216
DA:45,216
DA:46,216
DA:48,216
DA:49,216
DA:50,216
DA:51,216
DA:52,216
DA:53,216
DA:54,216
DA:55,216
DA:56,216
DA:57,216
DA:58,216
DA:59,216
DA:60,216
DA:62,216
DA:64,36
LF:41
LH:41
end_of_record
TN:
SF:/home/bruce/work/RAPTor/physics_engine/vg_meta.h
FN:30,_ZN14raptor_physics7vg_metaC2ERNS_14physics_engineEPNS_12vertex_groupE
FN:39,_ZN14raptor_physics7vg_meta11apply_forceERK7point_tS3_f
FN:44,_ZN14raptor_physics7vg_meta12apply_forcesEf
FN:67,_ZN14raptor_physics7vg_meta18resolve_collisionsEPKS0_PPNS_7simplexES5_Pf
FN:72,_ZN14raptor_physics7vg_meta7collideERKNS_8colliderEPS0_RK7point_tS7_NS_11collision_tE
FN:78,_ZN14raptor_physics7vg_meta15commit_movementEf
FN:112,_ZNK14raptor_physics7vg_meta9trianglesEPSt6vectorIP8triangleSaIS3_EE
FN:119,_ZNK14raptor_physics7vg_meta16get_vertex_groupEv
FN:122,_ZNK14raptor_physics7vg_meta9get_speedEv
FN:123,_ZNK14raptor_physics7vg_meta8get_massEv
FNDA:492,_ZN14raptor_physics7vg_meta18resolve_collisionsEPKS0_PPNS_7simplexES5_Pf
FNDA:32,_ZN14raptor_physics7vg_meta11apply_forceERK7point_tS3_f
FNDA:48,_ZNK14raptor_physics7vg_meta9get_speedEv
FNDA:16,_ZNK14raptor_physics7vg_meta9trianglesEPSt6vectorIP8triangleSaIS3_EE
FNDA:48,_ZN14raptor_physics7vg_meta12apply_forcesEf
FNDA:528,_ZNK14raptor_physics7vg_meta16get_vertex_groupEv
FNDA:0,_ZN14raptor_physics7vg_meta7collideERKNS_8colliderEPS0_RK7point_tS7_NS_11collision_tE
FNDA:16,_ZNK14raptor_physics7vg_meta8get_massEv
FNDA:144,_ZN14raptor_physics7vg_metaC2ERNS_14physics_engineEPNS_12vertex_groupE
FNDA:48,_ZN14raptor_physics7vg_meta15commit_movementEf
FNF:10
FNH:9
DA:30,144
DA:33,0
DA:34,144
DA:35,144
DA:39,32
DA:41,32
DA:42,32
DA:44,48
DA:46,48
DA:49,96
DA:51,48
DA:55,48
DA:56,48
DA:57,48
DA:59,48
DA:60,48
DA:61,48
DA:62,48
DA:63,48
DA:64,48
DA:65,48
DA:67,492
DA:69,492
DA:72,0
DA:74,0
DA:75,0
DA:78,48
DA:81,96
DA:83,48
DA:84,48
DA:86,24
DA:87,24
DA:93,48
DA:96,48
DA:99,48
DA:100,48
DA:101,48
DA:103,48
DA:104,48
DA:105,48
DA:106,48
DA:107,48
DA:108,48
DA:109,48
DA:112,16
DA:114,16
DA:115,16
DA:119,528
DA:122,48
DA:123,16
LF:50
LH:46
end_of_record
TN:
SF:/home/bruce/work/RAPTor/raytracer/ext_colour_t.h
FN:16,_ZN12ext_colour_tC2Efff
FN:54,_ZmlRK12ext_colour_tf
FNDA:128,_ZmlRK12ext_colour_tf
FNDA:256,_ZN12ext_colour_tC2Efff
FNF:2
FNH:2
DA:16,256
DA:54,128
DA:56,128
LF:3
LH:3
end_of_record
TN:
SF:/home/bruce/work/RAPTor/raytracer/materials/material.h
FN:47,_ZN8materialC2Eb
FN:48,_ZN8materialD0Ev
FN:48,_ZN8materialD2Ev
FNDA:0,_ZN8materialD0Ev
FNDA:64,_ZN8materialC2Eb
FNDA:0,_ZN8materialD2Ev
FNF:3
FNH:1
DA:47,64
DA:48,0
LF:2
LH:1
end_of_record
TN:
SF:/home/bruce/work/RAPTor/raytracer/materials/phong_shader.h
FN:16,_ZN12phong_shaderC2ERK12ext_colour_tffffffff
FN:52,_ZN12phong_shaderD2Ev
FN:52,_ZN12phong_shaderD0Ev
FNDA:0,_ZN12phong_shaderD2Ev
FNDA:0,_ZN12phong_shaderD0Ev
FNDA:64,_ZN12phong_shaderC2ERK12ext_colour_tffffffff
FNF:3
FNH:1
DA:16,64
DA:17,64
DA:21,64
DA:22,64
DA:23,64
DA:24,64
DA:25,64
DA:26,64
DA:27,64
DA:28,64
DA:29,64
DA:52,0
LF:12
LH:11
end_of_record
TN:
SF:/home/bruce/work/RAPTor/raytracer/point_t.h
FN:17,_ZN7point_tC2Efff
FN:24,_ZNK7point_tngEv
FN:27,_ZNK7point_teqERKS_
FN:28,_ZNK7point_tneERKS_
FN:32,_ZN7point_tpLERKS_
FN:33,_ZN7point_tmIERKS_
FN:39,_ZN7point_tneEf
FN:44,_ZN7point_tdVEf
FN:59,_ZlsRSoRK7point_t
FN:75,_ZmlRK7point_tf
FN:80,_ZdvRK7point_tf
FN:85,_ZplRK7point_tS1_
FN:90,_ZmiRK7point_tS1_
FN:95,_ZmlRK7point_tS1_
FN:115,_ZmlfRK7point_t
FN:130,_Z3maxRK7point_tS1_
FN:141,_Z3minRK7point_tS1_
FN:297,_Z9magnitudeRK7point_t
FN:432,_Z13cross_productRK7point_tS1_PS_
FN:445,_Z13cross_productRK7point_tS1_
FN:456,_Z11dot_productRK7point_tS1_
FN:467,_Z9normaliseP7point_t
FN:477,_Z9normalise7point_t
FNDA:768,_ZmlfRK7point_t
FNDA:0,_ZmlRK7point_tS1_
FNDA:576,_ZNK7point_tneERKS_
FNDA:384,_ZN7point_tmIERKS_
FNDA:30888,_Z11dot_productRK7point_tS1_
FNDA:192,_ZN7point_tneEf
FNDA:736,_ZNK7point_teqERKS_
FNDA:192,_Z9normalise7point_t
FNDA:2856,_ZNK7point_tngEv
FNDA:83088,_ZN7point_tC2Efff
FNDA:480,_Z13cross_productRK7point_tS1_PS_
FNDA:0,_ZN7point_tdVEf
FNDA:2736,_ZdvRK7point_tf
FNDA:528,_ZN7point_tpLERKS_
FNDA:2856,_Z3minRK7point_tS1_
FNDA:4488,_Z9magnitudeRK7point_t
FNDA:5064,_ZmlRK7point_tf
FNDA:18312,_ZmiRK7point_tS1_
FNDA:288,_Z9normaliseP7point_t
FNDA:5448,_Z13cross_productRK7point_tS1_
FNDA:5184,_ZlsRSoRK7point_t
FNDA:7824,_ZplRK7point_tS1_
FNDA:2856,_Z3maxRK7point_tS1_
FNF:23
FNH:21
DA:17,83088
DA:24,2856
DA:27,736
DA:28,576
DA:32,528
DA:33,384
DA:39,192
DA:44,0
DA:59,5184
DA:61,5184
DA:75,5064
DA:77,5064
DA:80,2736
DA:82,2736
DA:85,7824
DA:87,7824
DA:90,18312
DA:92,18312
DA:95,0
DA:97,0
DA:115,768
DA:117,768
DA:130,2856
DA:132,2856
DA:133,2856
DA:134,2856
DA:135,2856
DA:137,2856
DA:141,2856
DA:143,2856
DA:144,2856
DA:145,2856
DA:146,2856
DA:148,2856
DA:297,4488
DA:299,4488
DA:432,480
DA:434,480
DA:435,480
DA:436,480
DA:437,480
DA:445,5448
DA:447,5448
DA:456,30888
DA:458,30888
DA:467,288
DA:469,288
DA:470,288
DA:471,288
DA:472,288
DA:473,288
DA:477,192
DA:479,192
DA:480,192
DA:481,192
DA:482,192
DA:483,192
LF:57
LH:54
end_of_record
TN:
SF:/home/bruce/work/RAPTor/raytracer/triangle.h
FN:53,_ZNK8triangle12get_vertex_aEv
FN:54,_ZNK8triangle12get_vertex_bEv
FN:55,_ZNK8triangle12get_vertex_cEv
FN:152,_ZN8triangle22calculate_pre_computesEv
FN:290,_ZN8triangleC2EP8materialRK7point_tS4_S4_bPS3_S5_
FNDA:192,_ZN8triangleC2EP8materialRK7point_tS4_S4_bPS3_S5_
FNDA:192,_ZNK8triangle12get_vertex_aEv
FNDA:192,_ZNK8triangle12get_vertex_cEv
FNDA:192,_ZN8triangle22calculate_pre_computesEv
FNDA:192,_ZNK8triangle12get_vertex_bEv
FNF:5
FNH:5
DA:53,192
DA:54,192
DA:55,192
DA:152,192
DA:155,192
DA:156,192
DA:157,192
DA:161,192
DA:162,192
DA:163,192
DA:164,192
DA:165,192
DA:166,192
DA:169,192
DA:171,64
DA:173,192
DA:175,64
DA:177,192
DA:179,64
DA:181,192
DA:182,192
DA:185,192
DA:186,192
DA:187,192
DA:188,192
DA:189,192
DA:190,192
DA:193,192
DA:194,192
DA:195,192
DA:196,192
DA:200,192
DA:202,64
DA:204,64
DA:205,64
DA:206,64
DA:207,64
DA:208,64
DA:209,64
DA:210,64
DA:211,64
DA:215,0
DA:216,0
DA:217,0
DA:218,0
DA:219,0
DA:220,0
DA:221,0
DA:222,0
DA:223,0
DA:224,0
DA:225,0
DA:230,128
DA:232,64
DA:233,64
DA:234,64
DA:235,64
DA:236,64
DA:237,64
DA:238,64
DA:239,64
DA:240,64
DA:241,64
DA:242,64
DA:246,64
DA:247,64
DA:248,64
DA:249,64
DA:250,64
DA:251,64
DA:252,64
DA:253,64
DA:254,64
DA:255,64
DA:256,64
DA:261,192
DA:262,192
DA:263,192
DA:264,192
DA:266,192
DA:267,192
DA:268,192
DA:269,192
DA:270,192
DA:273,192
DA:274,192
DA:290,192
DA:291,192
DA:294,192
DA:296,0
DA:297,0
DA:298,0
DA:299,0
DA:303,192
DA:307,192
DA:309,0
DA:310,0
DA:311,0
DA:312,0
DA:316,192
DA:319,192
DA:320,192
LF:102
LH:83
end_of_record
