TN:
SF:/home/bruce/work/RAPTor/common/logging.h
FNDA:0,_ZN14raptor_physics13method_loggerC2ERKSs
FNDA:0,_ZN14raptor_physics13method_loggerD2Ev
FNF:2
FNH:0
DA:34,0
DA:36,0
DA:37,0
DA:39,0
DA:40,0
DA:41,0
DA:42,0
LF:7
LH:0
end_of_record
SF:/home/bruce/work/RAPTor/common/quaternion_t.h
FN:41,_ZN12quaternion_tC2ERK7point_t
FN:83,_ZN12quaternion_tmLERKS_
FN:139,_ZNK12quaternion_t6rotateEP7point_t
FN:279,_Z13cross_productRK12quaternion_tRK7point_t
FNDA:24,_ZN12quaternion_tC2ERK7point_t
FNDA:24,_ZN12quaternion_tmLERKS_
FNDA:192,_ZNK12quaternion_t6rotateEP7point_t
FNDA:576,_Z13cross_productRK12quaternion_tRK7point_t
FNF:4
FNH:4
DA:41,24
DA:43,24
DA:44,24
DA:45,24
DA:47,24
DA:48,24
DA:49,24
DA:51,24
DA:52,24
DA:53,24
DA:54,24
DA:55,24
DA:83,24
DA:85,24
DA:86,24
DA:87,24
DA:88,24
DA:90,24
DA:91,24
DA:92,24
DA:93,24
DA:94,24
DA:139,192
DA:141,192
DA:142,192
DA:279,576
DA:281,576
LF:27
LH:27
end_of_record
SF:/home/bruce/work/RAPTor/raytracer/point_t.h
FN:17,_ZN7point_tC2Efff
FN:24,_ZNK7point_tngEv
FN:32,_ZN7point_tpLERKS_
FN:33,_ZN7point_tmIERKS_
FN:59,_ZlsRSoRK7point_t
FN:75,_ZmlRK7point_tf
FN:80,_ZdvRK7point_tf
FN:85,_ZplRK7point_tS1_
FN:90,_ZmiRK7point_tS1_
FN:115,_ZmlfRK7point_t
FN:297,_Z9magnitudeRK7point_t
FN:445,_Z13cross_productRK7point_tS1_
FN:456,_Z11dot_productRK7point_tS1_
FNDA:0,_ZN7point_tC2Efff
FNDA:0,_ZNK7point_tngEv
FNDA:0,_ZN7point_tpLERKS_
FNDA:192,_ZN7point_tmIERKS_
FNDA:0,_ZlsRSoRK7point_t
FNDA:0,_ZmlRK7point_tf
FNDA:0,_ZdvRK7point_tf
FNDA:0,_ZplRK7point_tS1_
FNDA:0,_ZmiRK7point_tS1_
FNDA:0,_ZmlfRK7point_t
FNDA:0,_Z9magnitudeRK7point_t
FNDA:0,_Z13cross_productRK7point_tS1_
FNDA:0,_Z11dot_productRK7point_tS1_
FNF:13
FNH:1
DA:17,0
DA:24,0
DA:32,0
DA:33,192
DA:59,0
DA:61,0
DA:75,0
DA:77,0
DA:80,0
DA:82,0
DA:85,0
DA:87,0
DA:90,0
DA:92,0
DA:115,0
DA:117,0
DA:297,0
DA:299,0
DA:445,0
DA:447,0
DA:456,0
DA:458,0
LF:22
LH:1
end_of_record
SF:/home/bruce/work/lib/boost_1_54_0/boost/log/core/core.hpp
DA:308,0
LF:1
LH:0
end_of_record
SF:/home/bruce/work/lib/boost_1_54_0/boost/log/core/record.hpp
FN:66,_ZN5boost3log11v2_mt_posix6recordC2Ev
FN:79,_ZN5boost3log11v2_mt_posix6recordD2Ev
FN:125,_ZNK5boost3log11v2_mt_posix6recordntEv
FN:149,_ZN5boost3log11v2_mt_posix6record5resetEv
FNDA:0,_ZN5boost3log11v2_mt_posix6recordC2Ev
FNDA:0,_ZN5boost3log11v2_mt_posix6recordD2Ev
FNDA:0,_ZNK5boost3log11v2_mt_posix6recordntEv
FNDA:0,_ZN5boost3log11v2_mt_posix6record5resetEv
FNF:4
FNH:0
DA:66,0
DA:79,0
DA:81,0
DA:82,0
DA:125,0
DA:127,0
DA:149,0
DA:151,0
DA:153,0
DA:154,0
DA:156,0
LF:11
LH:0
end_of_record
SF:/home/bruce/work/lib/boost_1_54_0/boost/log/detail/attachable_sstream_buf.hpp
FN:109,_ZNK5boost3log11v2_mt_posix3aux22basic_ostringstreambufIcSt11char_traitsIcESaIcEE7storageEv
FNDA:0,_ZNK5boost3log11v2_mt_posix3aux22basic_ostringstreambufIcSt11char_traitsIcESaIcEE7storageEv
FNF:1
FNH:0
DA:109,0
LF:1
LH:0
end_of_record
SF:/home/bruce/work/lib/boost_1_54_0/boost/log/detail/code_conversion.hpp
FN:59,_ZN5boost3log11v2_mt_posix3aux12code_convertIcSt11char_traitsIcESaIcEEEvPKT_mRSbIS7_T0_T1_ERKSt6locale
FNDA:0,_ZN5boost3log11v2_mt_posix3aux12code_convertIcSt11char_traitsIcESaIcEEEvPKT_mRSbIS7_T0_T1_ERKSt6locale
FNF:1
FNH:0
DA:59,0
DA:61,0
DA:62,0
LF:3
LH:0
end_of_record
SF:/home/bruce/work/lib/boost_1_54_0/boost/log/detail/light_rw_mutex.hpp
FN:142,_ZN5boost3log11v2_mt_posix3aux14light_rw_mutex11lock_sharedEv
FN:146,_ZN5boost3log11v2_mt_posix3aux14light_rw_mutex13unlock_sharedEv
FNDA:0,_ZN5boost3log11v2_mt_posix3aux14light_rw_mutex11lock_sharedEv
FNDA:0,_ZN5boost3log11v2_mt_posix3aux14light_rw_mutex13unlock_sharedEv
FNF:2
FNH:0
DA:142,0
DA:144,0
DA:145,0
DA:146,0
DA:148,0
DA:149,0
LF:6
LH:0
end_of_record
SF:/home/bruce/work/lib/boost_1_54_0/boost/log/detail/locks.hpp
FN:56,_ZN5boost3log11v2_mt_posix7no_lockINS1_7sources18multi_thread_modelINS1_3aux14light_rw_mutexEEEEC2ERS7_
FN:120,_ZN5boost3log11v2_mt_posix3aux17shared_lock_guardINS1_7sources18multi_thread_modelINS2_14light_rw_mutexEEEEC2ERS7_
FN:124,_ZN5boost3log11v2_mt_posix3aux17shared_lock_guardINS1_7sources18multi_thread_modelINS2_14light_rw_mutexEEEED2Ev
FNDA:0,_ZN5boost3log11v2_mt_posix7no_lockINS1_7sources18multi_thread_modelINS1_3aux14light_rw_mutexEEEEC2ERS7_
FNDA:0,_ZN5boost3log11v2_mt_posix3aux17shared_lock_guardINS1_7sources18multi_thread_modelINS2_14light_rw_mutexEEEEC2ERS7_
FNDA:0,_ZN5boost3log11v2_mt_posix3aux17shared_lock_guardINS1_7sources18multi_thread_modelINS2_14light_rw_mutexEEEED2Ev
FNF:3
FNH:0
DA:56,0
DA:120,0
DA:122,0
DA:123,0
DA:124,0
DA:126,0
DA:127,0
LF:7
LH:0
end_of_record
SF:/home/bruce/work/lib/boost_1_54_0/boost/log/sources/basic_logger.hpp
FN:180,_ZNK5boost3log11v2_mt_posix7sources12basic_loggerIcNS2_18severity_logger_mtINS1_7trivial14severity_levelEEENS2_18multi_thread_modelINS1_3aux14light_rw_mutexEEEE4coreEv
FN:192,_ZN5boost3log11v2_mt_posix7sources12basic_loggerIcNS2_18severity_logger_mtINS1_7trivial14severity_levelEEENS2_18multi_thread_modelINS1_3aux14light_rw_mutexEEEE19get_threading_modelEv
FN:258,_ZN5boost3log11v2_mt_posix7sources12basic_loggerIcNS2_18severity_logger_mtINS1_7trivial14severity_levelEEENS2_18multi_thread_modelINS1_3aux14light_rw_mutexEEEE20open_record_unlockedINS_9parameter3aux15tagged_argumentINS1_8keywords3tag8severityEKS6_EEEENS1_6recordERKT_
FN:266,_ZN5boost3log11v2_mt_posix7sources12basic_loggerIcNS2_18severity_logger_mtINS1_7trivial14severity_levelEEENS2_18multi_thread_modelINS1_3aux14light_rw_mutexEEEE20push_record_unlockedEONS1_6recordE
FN:454,_ZN5boost3log11v2_mt_posix7sources22basic_composite_loggerIcNS2_18severity_logger_mtINS1_7trivial14severity_levelEEENS2_18multi_thread_modelINS1_3aux14light_rw_mutexEEENS2_8featuresIINS2_8severityIS6_EEEEEE11open_recordINS_9parameter3aux15tagged_argumentINS1_8keywords3tag8severityEKS6_EEEENS1_6recordERKT_
FN:470,_ZN5boost3log11v2_mt_posix7sources22basic_composite_loggerIcNS2_18severity_logger_mtINS1_7trivial14severity_levelEEENS2_18multi_thread_modelINS1_3aux14light_rw_mutexEEENS2_8featuresIINS2_8severityIS6_EEEEEE11push_recordEONS1_6recordE
FNDA:0,_ZNK5boost3log11v2_mt_posix7sources12basic_loggerIcNS2_18severity_logger_mtINS1_7trivial14severity_levelEEENS2_18multi_thread_modelINS1_3aux14light_rw_mutexEEEE4coreEv
FNDA:0,_ZN5boost3log11v2_mt_posix7sources12basic_loggerIcNS2_18severity_logger_mtINS1_7trivial14severity_levelEEENS2_18multi_thread_modelINS1_3aux14light_rw_mutexEEEE19get_threading_modelEv
FNDA:0,_ZN5boost3log11v2_mt_posix7sources12basic_loggerIcNS2_18severity_logger_mtINS1_7trivial14severity_levelEEENS2_18multi_thread_modelINS1_3aux14light_rw_mutexEEEE20open_record_unlockedINS_9parameter3aux15tagged_argumentINS1_8keywords3tag8severityEKS6_EEEENS1_6recordERKT_
FNDA:0,_ZN5boost3log11v2_mt_posix7sources12basic_loggerIcNS2_18severity_logger_mtINS1_7trivial14severity_levelEEENS2_18multi_thread_modelINS1_3aux14light_rw_mutexEEEE20push_record_unlockedEONS1_6recordE
FNDA:0,_ZN5boost3log11v2_mt_posix7sources22basic_composite_loggerIcNS2_18severity_logger_mtINS1_7trivial14severity_levelEEENS2_18multi_thread_modelINS1_3aux14light_rw_mutexEEENS2_8featuresIINS2_8severityIS6_EEEEEE11open_recordINS_9parameter3aux15tagged_argumentINS1_8keywords3tag8severityEKS6_EEEENS1_6recordERKT_
FNDA:0,_ZN5boost3log11v2_mt_posix7sources22basic_composite_loggerIcNS2_18severity_logger_mtINS1_7trivial14severity_levelEEENS2_18multi_thread_modelINS1_3aux14light_rw_mutexEEENS2_8featuresIINS2_8severityIS6_EEEEEE11push_recordEONS1_6recordE
FNF:6
FNH:0
DA:180,0
DA:192,0
DA:258,0
DA:260,0
DA:266,0
DA:268,0
DA:269,0
DA:454,0
DA:457,0
DA:459,0
DA:460,0
DA:463,0
DA:470,0
DA:472,0
DA:473,0
DA:474,0
LF:16
LH:0
end_of_record
SF:/home/bruce/work/lib/boost_1_54_0/boost/log/sources/record_ostream.hpp
FN:124,_ZN5boost3log11v2_mt_posix20basic_record_ostreamIcE10get_recordEv
FN:242,_ZN5boost3log11v2_mt_posix3aux11record_pumpINS1_7sources18severity_logger_mtINS1_7trivial14severity_levelEEEE12auto_releaseC2EPNS2_15stream_providerIcE15stream_compoundE
FN:243,_ZN5boost3log11v2_mt_posix3aux11record_pumpINS1_7sources18severity_logger_mtINS1_7trivial14severity_levelEEEE12auto_releaseD2Ev
FN:256,_ZN5boost3log11v2_mt_posix3aux11record_pumpINS1_7sources18severity_logger_mtINS1_7trivial14severity_levelEEEEC2ERS8_RNS1_6recordE
FN:272,_ZN5boost3log11v2_mt_posix3aux11record_pumpINS1_7sources18severity_logger_mtINS1_7trivial14severity_levelEEEED2Ev
FN:284,_ZNK5boost3log11v2_mt_posix3aux11record_pumpINS1_7sources18severity_logger_mtINS1_7trivial14severity_levelEEEE6streamEv
FNDA:0,_ZN5boost3log11v2_mt_posix20basic_record_ostreamIcE10get_recordEv
FNDA:0,_ZN5boost3log11v2_mt_posix3aux11record_pumpINS1_7sources18severity_logger_mtINS1_7trivial14severity_levelEEEE12auto_releaseC2EPNS2_15stream_providerIcE15stream_compoundE
FNDA:0,_ZN5boost3log11v2_mt_posix3aux11record_pumpINS1_7sources18severity_logger_mtINS1_7trivial14severity_levelEEEE12auto_releaseD2Ev
FNDA:0,_ZN5boost3log11v2_mt_posix3aux11record_pumpINS1_7sources18severity_logger_mtINS1_7trivial14severity_levelEEEEC2ERS8_RNS1_6recordE
FNDA:0,_ZN5boost3log11v2_mt_posix3aux11record_pumpINS1_7sources18severity_logger_mtINS1_7trivial14severity_levelEEEED2Ev
FNDA:0,_ZNK5boost3log11v2_mt_posix3aux11record_pumpINS1_7sources18severity_logger_mtINS1_7trivial14severity_levelEEEE6streamEv
FNF:6
FNH:0
DA:124,0
DA:126,0
DA:127,0
DA:128,0
DA:242,0
DA:243,0
DA:256,0
DA:257,0
DA:258,0
DA:259,0
DA:261,0
DA:272,0
DA:274,0
DA:276,0
DA:278,0
DA:279,0
DA:281,0
DA:284,0
DA:286,0
DA:287,0
DA:294,1212
LF:21
LH:1
end_of_record
SF:/home/bruce/work/lib/boost_1_54_0/boost/log/sources/severity_feature.hpp
FN:133,_ZN5boost3log11v2_mt_posix7sources3aux14severity_levelINS1_7trivial14severity_levelEE9set_valueES6_
FN:250,_ZN5boost3log11v2_mt_posix7sources21basic_severity_loggerINS2_12basic_loggerIcNS2_18severity_logger_mtINS1_7trivial14severity_levelEEENS2_18multi_thread_modelINS1_3aux14light_rw_mutexEEEEES7_E20open_record_unlockedINS_9parameter3aux15tagged_argumentINS1_8keywords3tag8severityEKS7_EEEENS1_6recordERKT_
FNDA:0,_ZN5boost3log11v2_mt_posix7sources3aux14severity_levelINS1_7trivial14severity_levelEE9set_valueES6_
FNDA:0,_ZN5boost3log11v2_mt_posix7sources21basic_severity_loggerINS2_12basic_loggerIcNS2_18severity_logger_mtINS1_7trivial14severity_levelEEENS2_18multi_thread_modelINS1_3aux14light_rw_mutexEEEEES7_E20open_record_unlockedINS_9parameter3aux15tagged_argumentINS1_8keywords3tag8severityEKS7_EEEENS1_6recordERKT_
FNF:2
FNH:0
DA:133,0
DA:135,0
DA:136,0
DA:250,0
DA:252,0
DA:253,0
LF:6
LH:0
end_of_record
SF:/home/bruce/work/lib/boost_1_54_0/boost/log/sources/threading_models.hpp
FN:74,_ZNK5boost3log11v2_mt_posix7sources18multi_thread_modelINS1_3aux14light_rw_mutexEE11lock_sharedEv
FN:78,_ZNK5boost3log11v2_mt_posix7sources18multi_thread_modelINS1_3aux14light_rw_mutexEE13unlock_sharedEv
FNDA:0,_ZNK5boost3log11v2_mt_posix7sources18multi_thread_modelINS1_3aux14light_rw_mutexEE11lock_sharedEv
FNDA:0,_ZNK5boost3log11v2_mt_posix7sources18multi_thread_modelINS1_3aux14light_rw_mutexEE13unlock_sharedEv
FNF:2
FNH:0
DA:74,0
DA:78,0
LF:2
LH:0
end_of_record
SF:/home/bruce/work/lib/boost_1_54_0/boost/log/utility/formatting_ostream.hpp
FN:114,_ZN5boost3log11v2_mt_posix24basic_formatting_ostreamIcSt11char_traitsIcESaIcEE6sentryD2Ev
FN:120,_ZN5boost3log11v2_mt_posix24basic_formatting_ostreamIcSt11char_traitsIcESaIcEE6sentryC2ERS6_
FN:247,_ZN5boost3log11v2_mt_posix24basic_formatting_ostreamIcSt11char_traitsIcESaIcEE6streamEv
FN:316,_ZN5boost3log11v2_mt_posix24basic_formatting_ostreamIcSt11char_traitsIcESaIcEE5flushEv
FN:390,_ZN5boost3log11v2_mt_posix24basic_formatting_ostreamIcSt11char_traitsIcESaIcEElsEPKc
FN:451,_ZN5boost3log11v2_mt_posix24basic_formatting_ostreamIcSt11char_traitsIcESaIcEElsEi
FN:466,_ZN5boost3log11v2_mt_posix24basic_formatting_ostreamIcSt11char_traitsIcESaIcEElsEm
FN:484,_ZN5boost3log11v2_mt_posix24basic_formatting_ostreamIcSt11char_traitsIcESaIcEElsEf
FN:514,_ZN5boost3log11v2_mt_posixlsIcSt11char_traitsIcESaIcEEENS1_3aux19enable_if_char_typeIT_RNS1_24basic_formatting_ostreamIcS4_S5_EEE4typeESB_RKSbIS8_T0_T1_E
FN:549,_ZN5boost3log11v2_mt_posix24basic_formatting_ostreamIcSt11char_traitsIcESaIcEE15formatted_writeIcEERS6_PKT_l
FN:662,_ZN5boost3log11v2_mt_posixlsIcSt11char_traitsIcESaIcE7point_tEERNS1_24basic_formatting_ostreamIT_T0_T1_EESC_RKT2_
FNDA:0,_ZN5boost3log11v2_mt_posix24basic_formatting_ostreamIcSt11char_traitsIcESaIcEE6sentryD2Ev
FNDA:0,_ZN5boost3log11v2_mt_posix24basic_formatting_ostreamIcSt11char_traitsIcESaIcEE6sentryC2ERS6_
FNDA:0,_ZN5boost3log11v2_mt_posix24basic_formatting_ostreamIcSt11char_traitsIcESaIcEE6streamEv
FNDA:0,_ZN5boost3log11v2_mt_posix24basic_formatting_ostreamIcSt11char_traitsIcESaIcEE5flushEv
FNDA:0,_ZN5boost3log11v2_mt_posix24basic_formatting_ostreamIcSt11char_traitsIcESaIcEElsEPKc
FNDA:0,_ZN5boost3log11v2_mt_posix24basic_formatting_ostreamIcSt11char_traitsIcESaIcEElsEi
FNDA:96,_ZN5boost3log11v2_mt_posix24basic_formatting_ostreamIcSt11char_traitsIcESaIcEElsEm
FNDA:0,_ZN5boost3log11v2_mt_posix24basic_formatting_ostreamIcSt11char_traitsIcESaIcEElsEf
FNDA:0,_ZN5boost3log11v2_mt_posixlsIcSt11char_traitsIcESaIcEEENS1_3aux19enable_if_char_typeIT_RNS1_24basic_formatting_ostreamIcS4_S5_EEE4typeESB_RKSbIS8_T0_T1_E
FNDA:0,_ZN5boost3log11v2_mt_posix24basic_formatting_ostreamIcSt11char_traitsIcESaIcEE15formatted_writeIcEERS6_PKT_l
FNDA:0,_ZN5boost3log11v2_mt_posixlsIcSt11char_traitsIcESaIcE7point_tEERNS1_24basic_formatting_ostreamIT_T0_T1_EESC_RKT2_
FNF:11
FNH:1
DA:114,0
DA:120,0
DA:122,0
DA:247,0
DA:316,0
DA:318,0
DA:319,0
DA:390,0
DA:392,0
DA:451,0
DA:453,0
DA:454,0
DA:466,96
DA:468,96
DA:469,96
DA:484,0
DA:486,0
DA:487,0
DA:514,0
DA:516,0
DA:549,0
DA:551,0
DA:552,0
DA:554,0
DA:555,0
DA:557,0
DA:558,0
DA:560,0
DA:564,0
DA:566,0
DA:567,0
DA:568,0
DA:570,0
DA:572,0
DA:573,0
DA:576,0
DA:579,0
DA:662,0
DA:664,0
DA:665,0
LF:40
LH:3
end_of_record
SF:/home/bruce/work/lib/boost_1_54_0/boost/move/utility.hpp
FN:138,_ZN5boost4moveIRNS_3log11v2_mt_posix6recordEEEONS_16remove_referenceIT_E4typeEOS6_
FNDA:0,_ZN5boost4moveIRNS_3log11v2_mt_posix6recordEEEONS_16remove_referenceIT_E4typeEOS6_
FNF:1
FNH:0
DA:138,0
DA:139,0
LF:2
LH:0
end_of_record
SF:/home/bruce/work/lib/boost_1_54_0/boost/noncopyable.hpp
FN:27,_ZN5boost12noncopyable_11noncopyableC2Ev
FNDA:0,_ZN5boost12noncopyable_11noncopyableC2Ev
FNF:1
FNH:0
DA:27,0
LF:1
LH:0
end_of_record
SF:/home/bruce/work/lib/boost_1_54_0/boost/parameter/aux_/default.hpp
FN:18,_ZN5boost9parameter3aux8default_INS_3log11v2_mt_posix8keywords3tag8severityENS4_7trivial14severity_levelEEC2ERS9_
FNDA:0,_ZN5boost9parameter3aux8default_INS_3log11v2_mt_posix8keywords3tag8severityENS4_7trivial14severity_levelEEC2ERS9_
FNF:1
FNH:0
DA:18,0
DA:19,0
DA:20,0
LF:3
LH:0
end_of_record
SF:/home/bruce/work/lib/boost_1_54_0/boost/parameter/aux_/tagged_argument.hpp
FN:25,_ZN5boost9parameter3aux20tagged_argument_baseC2Ev
FN:37,_ZN5boost9parameter3aux15tagged_argumentINS_3log11v2_mt_posix8keywords3tag8severityEKNS4_7trivial14severity_levelEEC2ERSA_
FN:123,_ZNK5boost9parameter3aux15tagged_argumentINS_3log11v2_mt_posix8keywords3tag8severityEKNS4_7trivial14severity_levelEEixIS9_EERSA_RKNS1_8default_IS7_T_EE
FNDA:0,_ZN5boost9parameter3aux20tagged_argument_baseC2Ev
FNDA:0,_ZN5boost9parameter3aux15tagged_argumentINS_3log11v2_mt_posix8keywords3tag8severityEKNS4_7trivial14severity_levelEEC2ERSA_
FNDA:0,_ZNK5boost9parameter3aux15tagged_argumentINS_3log11v2_mt_posix8keywords3tag8severityEKNS4_7trivial14severity_levelEEixIS9_EERSA_RKNS1_8default_IS7_T_EE
FNF:3
FNH:0
DA:25,0
DA:37,0
DA:123,0
DA:125,0
LF:4
LH:0
end_of_record
SF:/home/bruce/work/lib/boost_1_54_0/boost/parameter/keyword.hpp
FN:43,_ZNK5boost9parameter7keywordINS_3log11v2_mt_posix8keywords3tag8severityEEorINS3_7trivial14severity_levelEEENS0_3aux8default_IS6_T_EERSD_
FN:58,_ZNK5boost9parameter7keywordINS_3log11v2_mt_posix8keywords3tag8severityEEaSINS3_7trivial14severity_levelEEEKNS0_3aux3tagIS6_KT_E4typeERSE_
FNDA:0,_ZNK5boost9parameter7keywordINS_3log11v2_mt_posix8keywords3tag8severityEEorINS3_7trivial14severity_levelEEENS0_3aux8default_IS6_T_EERSD_
FNDA:0,_ZNK5boost9parameter7keywordINS_3log11v2_mt_posix8keywords3tag8severityEEaSINS3_7trivial14severity_levelEEEKNS0_3aux3tagIS6_KT_E4typeERSE_
FNF:2
FNH:0
DA:43,0
DA:45,0
DA:58,0
DA:61,0
LF:4
LH:0
end_of_record
SF:/home/bruce/work/lib/boost_1_54_0/boost/smart_ptr/shared_ptr.hpp
FN:651,_ZNK5boost10shared_ptrINS_3log11v2_mt_posix4coreEEptEv
FNDA:0,_ZNK5boost10shared_ptrINS_3log11v2_mt_posix4coreEEptEv
FNF:1
FNH:0
DA:651,0
DA:653,0
DA:654,0
LF:3
LH:0
end_of_record
SF:/home/bruce/work/lib/boost_1_54_0/boost/utility/addressof.hpp
FN:28,_ZN5boost6detail13addr_impl_refINS_3log11v2_mt_posix7sources18severity_logger_mtINS3_7trivial14severity_levelEEEEC2ERS8_
FN:29,_ZNK5boost6detail13addr_impl_refINS_3log11v2_mt_posix7sources18severity_logger_mtINS3_7trivial14severity_levelEEEEcvRS8_Ev
FN:37,_ZN5boost6detail14addressof_implINS_3log11v2_mt_posix7sources18severity_logger_mtINS3_7trivial14severity_levelEEEE1fERS8_l
FN:51,_ZN5boost9addressofINS_3log11v2_mt_posix7sources18severity_logger_mtINS2_7trivial14severity_levelEEEEEPT_RS8_
FNDA:0,_ZN5boost6detail13addr_impl_refINS_3log11v2_mt_posix7sources18severity_logger_mtINS3_7trivial14severity_levelEEEEC2ERS8_
FNDA:0,_ZNK5boost6detail13addr_impl_refINS_3log11v2_mt_posix7sources18severity_logger_mtINS3_7trivial14severity_levelEEEEcvRS8_Ev
FNDA:0,_ZN5boost6detail14addressof_implINS_3log11v2_mt_posix7sources18severity_logger_mtINS3_7trivial14severity_levelEEEE1fERS8_l
FNDA:0,_ZN5boost9addressofINS_3log11v2_mt_posix7sources18severity_logger_mtINS2_7trivial14severity_levelEEEEEPT_RS8_
FNF:4
FNH:0
DA:28,0
DA:29,0
DA:37,0
DA:40,0
DA:51,0
DA:59,0
LF:6
LH:0
end_of_record
SF:/usr/include/c++/4.8/bits/basic_ios.h
FN:46,_ZSt13__check_facetISt5ctypeIcEERKT_PS3_
FNDA:0,_ZSt13__check_facetISt5ctypeIcEERKT_PS3_
FNF:1
FNH:0
DA:46,0
DA:48,0
DA:49,0
DA:50,0
LF:4
LH:0
end_of_record
SF:/usr/include/c++/4.8/bits/basic_string.h
FN:272,_ZNSs12_Alloc_hiderD2Ev
FNDA:0,_ZNSs12_Alloc_hiderD2Ev
FNF:1
FNH:0
DA:272,0
LF:1
LH:0
end_of_record
SF:/usr/include/c++/4.8/bits/char_traits.h
FN:258,_ZNSt11char_traitsIcE6lengthEPKc
FNDA:0,_ZNSt11char_traitsIcE6lengthEPKc
FNF:1
FNH:0
DA:258,0
DA:259,0
LF:2
LH:0
end_of_record
SF:/usr/include/c++/4.8/bits/ios_base.h
FN:75,_ZStanSt13_Ios_FmtflagsS_
FN:157,_ZStorSt12_Ios_IostateS_
FN:551,_ZNKSt8ios_base5flagsEv
FN:644,_ZNKSt8ios_base5widthEv
FN:653,_ZNSt8ios_base5widthEl
FN:695,_ZNKSt8ios_base6getlocEv
FNDA:0,_ZStanSt13_Ios_FmtflagsS_
FNDA:0,_ZStorSt12_Ios_IostateS_
FNDA:0,_ZNKSt8ios_base5flagsEv
FNDA:0,_ZNKSt8ios_base5widthEv
FNDA:0,_ZNSt8ios_base5widthEl
FNDA:0,_ZNKSt8ios_base6getlocEv
FNF:6
FNH:0
DA:75,0
DA:76,0
DA:157,0
DA:158,0
DA:551,0
DA:552,0
DA:644,0
DA:645,0
DA:653,0
DA:655,0
DA:656,0
DA:657,0
DA:695,0
DA:696,0
LF:14
LH:0
end_of_record
SF:/usr/include/c++/4.8/bits/locale_facets.h
FN:865,_ZNKSt5ctypeIcE5widenEc
FNDA:0,_ZNKSt5ctypeIcE5widenEc
FNF:1
FNH:0
DA:865,0
DA:867,0
DA:868,0
DA:869,0
DA:870,0
LF:5
LH:0
end_of_record
SF:/usr/include/c++/4.8/bits/move.h
FN:76,_ZSt7forwardIRfEOT_RNSt16remove_referenceIS1_E4typeE
FNDA:648,_ZSt7forwardIRfEOT_RNSt16remove_referenceIS1_E4typeE
FNF:1
FNH:1
DA:76,648
DA:77,648
LF:2
LH:2
end_of_record
SF:/usr/include/c++/4.8/bits/stl_algobase.h
FN:193,_ZSt3minIfERKT_S2_S2_
FN:216,_ZSt3maxIfERKT_S2_S2_
FNDA:0,_ZSt3minIfERKT_S2_S2_
FNDA:0,_ZSt3maxIfERKT_S2_S2_
FNF:2
FNH:0
DA:193,0
DA:198,0
DA:199,0
DA:200,0
DA:216,0
DA:221,0
DA:222,0
DA:223,0
LF:8
LH:0
end_of_record
SF:/usr/include/c++/4.8/bits/stl_pair.h
FN:112,_ZNSt4pairIffEC1ERKfS2_
FN:138,_ZNSt4pairIffEC1IRfvEERKfOT_
FNDA:0,_ZNSt4pairIffEC1ERKfS2_
FNDA:0,_ZNSt4pairIffEC1IRfvEERKfOT_
FNF:2
FNH:0
DA:112,0
DA:113,0
DA:138,0
DA:139,0
LF:4
LH:0
end_of_record
SF:/usr/include/c++/4.8/bits/stl_vector.h
FN:645,_ZNKSt6vectorIiSaIiEE4sizeEv
FN:770,_ZNSt6vectorIiSaIiEEixEm
FNDA:32460,_ZNKSt6vectorIiSaIiEE4sizeEv
FNDA:14256,_ZNSt6vectorIiSaIiEEixEm
FNF:2
FNH:2
DA:645,32460
DA:646,32460
DA:770,14256
DA:771,14256
LF:4
LH:4
end_of_record
SF:/usr/include/c++/4.8/cmath
FN:203,_ZSt3cosf
FN:260,_ZSt4fabsf
FN:444,_ZSt3sinf
FN:482,_ZSt4sqrtf
FNDA:72,_ZSt3cosf
FNDA:0,_ZSt4fabsf
FNDA:72,_ZSt3sinf
FNDA:0,_ZSt4sqrtf
FNF:4
FNH:2
DA:203,72
DA:204,72
DA:260,0
DA:261,0
DA:444,72
DA:445,72
DA:482,0
DA:483,0
LF:8
LH:4
end_of_record
SF:/usr/include/c++/4.8/ext/atomicity.h
FN:48,_ZN9__gnu_cxxL18__exchange_and_addEPVii
FN:65,_ZN9__gnu_cxxL25__exchange_and_add_singleEPii
FN:78,_ZN9__gnu_cxxL27__exchange_and_add_dispatchEPii
FNDA:0,_ZN9__gnu_cxxL18__exchange_and_addEPVii
FNDA:0,_ZN9__gnu_cxxL25__exchange_and_add_singleEPii
FNDA:0,_ZN9__gnu_cxxL27__exchange_and_add_dispatchEPii
FNF:3
FNH:0
DA:48,0
DA:49,0
DA:65,0
DA:67,0
DA:68,0
DA:69,0
DA:78,0
DA:81,0
DA:82,0
DA:84,0
LF:10
LH:0
end_of_record
SF:/usr/include/c++/4.8/ext/new_allocator.h
FN:79,_ZN9__gnu_cxx13new_allocatorIcEC2Ev
FN:81,_ZN9__gnu_cxx13new_allocatorIcEC2ERKS1_
FN:86,_ZN9__gnu_cxx13new_allocatorIcED2Ev
FNDA:0,_ZN9__gnu_cxx13new_allocatorIcEC2Ev
FNDA:0,_ZN9__gnu_cxx13new_allocatorIcEC2ERKS1_
FNDA:0,_ZN9__gnu_cxx13new_allocatorIcED2Ev
FNF:3
FNH:0
DA:79,0
DA:81,0
DA:86,0
LF:3
LH:0
end_of_record
SF:/usr/include/c++/4.8/iostream
DA:74,6
LF:1
LH:1
end_of_record
SF:/usr/include/x86_64-linux-gnu/c++/4.8/bits/gthr-default.h
FN:247,_ZL18__gthread_active_pv
FNDA:0,_ZL18__gthread_active_pv
FNF:1
FNH:0
DA:247,0
DA:251,0
LF:2
LH:0
end_of_record
SF:/home/bruce/work/RAPTor/physics_engine/gjk.h
FN:51,_ZNK14raptor_physics3gjk13get_simplex_aEv
FN:52,_ZNK14raptor_physics3gjk13get_simplex_bEv
FNDA:240,_ZN14raptor_physics3gjkC2ERK9matrix_3dS3_b
FNDA:240,_ZN14raptor_physics3gjkD2Ev
FNDA:240,_ZNK14raptor_physics3gjk13get_simplex_aEv
FNDA:240,_ZNK14raptor_physics3gjk13get_simplex_bEv
FNF:4
FNH:4
DA:23,240
DA:26,240
DA:27,480
DA:29,480
DA:30,240
DA:33,240
DA:35,480
DA:37,240
DA:38,240
DA:40,480
DA:41,240
DA:51,240
DA:52,240
LF:13
LH:13
end_of_record
SF:/home/bruce/work/RAPTor/physics_engine/inertia_tensor.h
FN:238,_ZNK14raptor_physics14inertia_tensor4massEv
FN:239,_ZNK14raptor_physics14inertia_tensor14center_of_massEv
FN:241,_ZNK14raptor_physics14inertia_tensor14inverse_tensorEv
FN:243,_ZN14raptor_physics14inertia_tensor19move_center_of_massERK7point_t
FN:336,_ZN14raptor_physicsdvINS_14inertia_tensorEEE7point_tRKS2_RKT_
FNDA:0,_ZNK14raptor_physics14inertia_tensor4massEv
FNDA:0,_ZNK14raptor_physics14inertia_tensor14center_of_massEv
FNDA:0,_ZNK14raptor_physics14inertia_tensor14inverse_tensorEv
FNDA:24,_ZN14raptor_physics14inertia_tensor19move_center_of_massERK7point_t
FNDA:24,_ZN14raptor_physicsdvINS_14inertia_tensorEEE7point_tRKS2_RKT_
FNF:5
FNH:2
DA:238,0
DA:239,0
DA:241,0
DA:243,24
DA:245,24
DA:246,24
DA:336,24
DA:338,24
DA:339,24
DA:340,24
DA:341,24
DA:343,24
LF:12
LH:9
end_of_record
SF:/home/bruce/work/RAPTor/physics_engine/matrix_3d.h
FN:26,_ZN9matrix_3dpLERK7point_t
FN:36,_ZN9matrix_3dmIERK7point_t
FN:157,_ZN9matrix_3d23rotate_all_about_originERK12quaternion_t
FN:198,_ZNK9matrix_3d7get_rowEi
FN:203,_ZNK9matrix_3d4sizeEv
FNDA:24,_ZN9matrix_3dpLERK7point_t
FNDA:24,_ZN9matrix_3dmIERK7point_t
FNDA:24,_ZN9matrix_3d23rotate_all_about_originERK12quaternion_t
FNDA:22680,_ZNK9matrix_3d7get_rowEi
FNDA:12672,_ZNK9matrix_3d4sizeEv
FNF:5
FNH:5
DA:26,24
DA:28,216
DA:30,192
DA:33,24
DA:36,24
DA:38,216
DA:40,192
DA:43,24
DA:157,24
DA:159,216
DA:161,192
DA:164,24
DA:198,22680
DA:200,22680
DA:203,12672
DA:205,12672
LF:16
LH:16
end_of_record
SF:/home/bruce/work/RAPTor/physics_engine/simplex.h
FN:20,_ZN14raptor_physics7simplexC2ERK9matrix_3db
FN:31,_ZN14raptor_physics7simplexC2ERKS0_
FN:269,_ZNK14raptor_physics7simplex10get_vertexEi
FNDA:744,_ZN14raptor_physics7simplexC2ERK9matrix_3db
FNDA:480,_ZN14raptor_physics7simplexC2ERKS0_
FNDA:312,_ZNK14raptor_physics7simplex10get_vertexEi
FNF:3
FNH:3
DA:20,744
DA:22,744
DA:24,744
DA:26,24
DA:28,744
DA:31,480
DA:33,480
DA:34,480
DA:36,480
DA:37,480
DA:41,0
DA:42,0
DA:44,480
DA:269,312
DA:271,312
LF:15
LH:13
end_of_record
SF:/home/bruce/work/RAPTor/physics_engine/vertex_group.cc
FN:417,_ZN14raptor_physics12vertex_group15commit_movementEf
FN:447,_ZNK14raptor_physics12vertex_group19project_translationEf
FN:454,_ZNK14raptor_physics12vertex_group19project_translationEP7point_tf
FN:472,_ZNK14raptor_physics12vertex_group16project_rotationEf
FN:479,_ZNK14raptor_physics12vertex_group16project_rotationEP7point_tf
FN:504,_ZNK14raptor_physics12vertex_group29project_maximum_rotation_ontoERK7point_tS3_f
FN:544,_Z41__static_initialization_and_destruction_0ii
FN:544,_GLOBAL__sub_I_vertex_group.cc
FNDA:240,_ZN14raptor_physics12vertex_group12has_collidedEPS0_PPNS_7simplexES4_P7point_tffb
FNDA:222,_ZN14raptor_physics12vertex_group26exactly_resolve_collisionsEPS0_PPNS_7simplexES4_Pf
FNDA:24,_ZN14raptor_physics12vertex_group33conservatively_resolve_collisionsEPS0_PPNS_7simplexES4_Pf
FNDA:0,_ZNK14raptor_physics12vertex_group33close_contact_collision_detectionEPS0_PPNS_7simplexES4_PfRK7point_t
FNDA:24,_ZN14raptor_physics12vertex_group15commit_movementEf
FNDA:936,_ZNK14raptor_physics12vertex_group19project_translationEf
FNDA:960,_ZNK14raptor_physics12vertex_group19project_translationEP7point_tf
FNDA:0,_ZNK14raptor_physics12vertex_group16project_rotationEf
FNDA:24,_ZNK14raptor_physics12vertex_group16project_rotationEP7point_tf
FNDA:24,_ZNK14raptor_physics12vertex_group29project_maximum_rotation_ontoERK7point_tS3_f
FNDA:12,_ZNK14raptor_physics12vertex_group29project_maximum_movement_ontoERKS0_RK7point_tS5_S5_f
FNDA:6,_GLOBAL__sub_I_vertex_group.cc
FNDA:6,_Z41__static_initialization_and_destruction_0ii
FNF:13
FNH:11
DA:18,240
DA:21,240
DA:24,240
DA:26,0
DA:27,0
DA:28,0
DA:29,0
DA:33,480
DA:36,240
DA:37,240
DA:38,480
DA:41,240
DA:42,240
DA:43,240
DA:44,480
DA:50,222
DA:52,222
DA:55,222
DA:57,120
DA:58,120
DA:59,120
DA:62,102
DA:63,102
DA:64,204
DA:67,102
DA:68,102
DA:69,102
DA:70,102
DA:71,102
DA:74,102
DA:75,102
DA:76,102
DA:79,102
DA:81,156
DA:82,78
DA:85,24
DA:87,24
DA:88,24
DA:89,24
DA:91,0
DA:92,0
DA:97,48
DA:98,24
DA:102,0
DA:105,0
DA:106,0
DA:107,0
DA:108,0
DA:109,0
DA:111,0
DA:112,0
DA:114,0
DA:115,0
DA:116,0
DA:118,0
DA:120,0
DA:124,0
DA:125,0
DA:127,0
DA:128,0
DA:129,0
DA:131,0
DA:132,0
DA:133,0
DA:137,0
DA:138,0
DA:139,0
DA:140,0
DA:141,0
DA:145,0
DA:146,0
DA:149,0
DA:150,0
DA:152,0
DA:154,0
DA:158,0
DA:160,0
DA:161,0
DA:163,0
DA:169,0
DA:171,0
DA:172,0
DA:176,0
DA:177,0
DA:180,0
DA:181,0
DA:182,0
DA:183,0
DA:185,0
DA:186,0
DA:189,0
DA:190,0
DA:194,24
DA:196,24
DA:199,24
DA:201,12
DA:202,12
DA:203,12
DA:206,12
DA:207,12
DA:208,24
DA:212,12
DA:213,12
DA:216,12
DA:217,24
DA:218,12
DA:220,12
DA:221,12
DA:226,12
DA:227,12
DA:228,12
DA:231,12
DA:233,0
DA:235,0
DA:255,12
DA:257,24
DA:258,12
DA:262,0
DA:263,0
DA:264,0
DA:265,0
DA:267,0
DA:269,0
DA:272,0
DA:274,0
DA:275,0
DA:279,0
DA:280,0
DA:284,0
DA:285,0
DA:286,0
DA:289,0
DA:292,0
DA:295,0
DA:297,0
DA:298,0
DA:299,0
DA:305,0
DA:307,0
DA:308,0
DA:319,0
DA:341,0
DA:342,0
DA:345,0
DA:346,0
DA:347,0
DA:349,0
DA:350,0
DA:351,0
DA:355,0
DA:357,0
DA:358,0
DA:361,0
DA:363,0
DA:364,0
DA:365,0
DA:367,0
DA:368,0
DA:371,0
DA:372,0
DA:373,0
DA:376,0
DA:377,0
DA:380,0
DA:386,0
DA:387,0
DA:388,0
DA:393,0
DA:394,0
DA:396,0
DA:397,0
DA:399,0
DA:400,0
DA:401,0
DA:403,0
DA:405,0
DA:406,0
DA:407,0
DA:411,0
DA:412,0
DA:413,0
DA:417,24
DA:420,24
DA:423,24
DA:424,24
DA:427,24
DA:428,24
DA:431,24
DA:435,24
DA:436,24
DA:437,24
DA:441,24
DA:443,24
DA:447,936
DA:449,936
DA:450,936
DA:454,960
DA:457,960
DA:461,960
DA:465,960
DA:468,960
DA:472,0
DA:474,0
DA:475,0
DA:479,24
DA:482,24
DA:486,24
DA:490,24
DA:500,24
DA:504,24
DA:507,24
DA:511,24
DA:515,24
DA:516,24
DA:520,24
DA:524,24
DA:527,24
DA:531,12
DA:534,12
DA:535,12
DA:538,12
DA:539,24
DA:542,12
DA:544,18
LF:224
LH:100
end_of_record
TN:
SF:/home/bruce/work/RAPTor/common/logging.h
FN:34,_ZN14raptor_physics13method_loggerC2ERKSs
FN:39,_ZN14raptor_physics13method_loggerD2Ev
FN:68,_ZN14raptor_physics15array_to_streamIPfZNS_10lcp_solver5solveES1_EUlPSt18basic_stringstreamIcSt11char_traitsIcESaIcEEiE_PKcEESsT_SC_RKT0_T1_
FN:68,_ZN14raptor_physics15array_to_streamIPiZNKS_10lcp_solver4dumpEvEUlPSt18basic_stringstreamIcSt11char_traitsIcESaIcEEiE_PKcEESsT_SC_RKT0_T1_
FN:73,_ZZN14raptor_physics15array_to_streamIPiZNKS_10lcp_solver4dumpEvEUlPSt18basic_stringstreamIcSt11char_traitsIcESaIcEEiE_PKcEESsT_SC_RKT0_T1_ENKUlS8_iE_clES8_i
FN:73,_ZZN14raptor_physics15array_to_streamIPfZNS_10lcp_solver5solveES1_EUlPSt18basic_stringstreamIcSt11char_traitsIcESaIcEEiE_PKcEESsT_SC_RKT0_T1_ENKUlS8_fE_clES8_f
FN:80,_ZN14raptor_physics15array_to_streamIfZNKS_10lcp_solver4dumpEvEUlPSt18basic_stringstreamIcSt11char_traitsIcESaIcEEfE0_SsEESsPKT_RKT0_iiT1_
FNDA:1842,_ZN14raptor_physics13method_loggerC2ERKSs
FNDA:1842,_ZN14raptor_physics13method_loggerD2Ev
FNDA:0,_ZN14raptor_physics15array_to_streamIPiZNKS_10lcp_solver4dumpEvEUlPSt18basic_stringstreamIcSt11char_traitsIcESaIcEEiE_PKcEESsT_SC_RKT0_T1_
FNDA:0,_ZN14raptor_physics15array_to_streamIPfZNS_10lcp_solver5solveES1_EUlPSt18basic_stringstreamIcSt11char_traitsIcESaIcEEiE_PKcEESsT_SC_RKT0_T1_
FNDA:0,_ZZN14raptor_physics15array_to_streamIPiZNKS_10lcp_solver4dumpEvEUlPSt18basic_stringstreamIcSt11char_traitsIcESaIcEEiE_PKcEESsT_SC_RKT0_T1_ENKUlS8_iE_clES8_i
FNDA:0,_ZZN14raptor_physics15array_to_streamIPfZNS_10lcp_solver5solveES1_EUlPSt18basic_stringstreamIcSt11char_traitsIcESaIcEEiE_PKcEESsT_SC_RKT0_T1_ENKUlS8_fE_clES8_f
FNDA:0,_ZN14raptor_physics15array_to_streamIfZNKS_10lcp_solver4dumpEvEUlPSt18basic_stringstreamIcSt11char_traitsIcESaIcEEfE0_SsEESsPKT_RKT0_iiT1_
FNF:7
FNH:2
DA:34,1842
DA:36,3684
DA:37,1842
DA:39,1842
DA:40,1842
DA:41,3684
DA:42,1842
DA:68,0
DA:72,0
DA:73,0
DA:75,0
DA:76,0
DA:80,0
DA:82,0
DA:83,0
DA:85,0
DA:88,0
DA:89,0
LF:18
LH:7
end_of_record
SF:/home/bruce/work/RAPTor/common/quaternion_t.h
FN:145,_ZNK12quaternion_t15rotation_matrixEPf
FN:195,_ZlsRSoRK12quaternion_t
FNDA:0,_ZNK12quaternion_t15rotation_matrixEPf
FNDA:0,_ZlsRSoRK12quaternion_t
FNF:2
FNH:0
DA:145,0
DA:147,0
DA:148,0
DA:149,0
DA:150,0
DA:152,0
DA:153,0
DA:154,0
DA:156,0
DA:157,0
DA:159,0
DA:160,0
DA:161,0
DA:163,0
DA:164,0
DA:165,0
DA:167,0
DA:168,0
DA:169,0
DA:171,0
DA:195,0
DA:197,0
LF:22
LH:0
end_of_record
SF:/home/bruce/work/RAPTor/raytracer/point_t.h
FN:17,_ZN7point_tC2Efff
FN:24,_ZNK7point_tngEv
FN:32,_ZN7point_tpLERKS_
FN:59,_ZlsRSoRK7point_t
FN:75,_ZmlRK7point_tf
FN:80,_ZdvRK7point_tf
FN:85,_ZplRK7point_tS1_
FN:90,_ZmiRK7point_tS1_
FN:115,_ZmlfRK7point_t
FN:130,_Z3maxRK7point_tS1_
FN:141,_Z3minRK7point_tS1_
FN:297,_Z9magnitudeRK7point_t
FN:432,_Z13cross_productRK7point_tS1_PS_
FN:445,_Z13cross_productRK7point_tS1_
FN:456,_Z11dot_productRK7point_tS1_
FN:477,_Z9normalise7point_t
FNDA:41544,_ZN7point_tC2Efff
FNDA:1428,_ZNK7point_tngEv
FNDA:264,_ZN7point_tpLERKS_
FNDA:2592,_ZlsRSoRK7point_t
FNDA:2532,_ZmlRK7point_tf
FNDA:1368,_ZdvRK7point_tf
FNDA:3912,_ZplRK7point_tS1_
FNDA:9156,_ZmiRK7point_tS1_
FNDA:384,_ZmlfRK7point_t
FNDA:1428,_Z3maxRK7point_tS1_
FNDA:1428,_Z3minRK7point_tS1_
FNDA:2244,_Z9magnitudeRK7point_t
FNDA:240,_Z13cross_productRK7point_tS1_PS_
FNDA:2724,_Z13cross_productRK7point_tS1_
FNDA:15444,_Z11dot_productRK7point_tS1_
FNDA:96,_Z9normalise7point_t
FNF:16
FNH:16
DA:17,41544
DA:24,1428
DA:32,264
DA:59,2592
DA:61,2592
DA:75,2532
DA:77,2532
DA:80,1368
DA:82,1368
DA:85,3912
DA:87,3912
DA:90,9156
DA:92,9156
DA:115,384
DA:117,384
DA:130,1428
DA:132,1428
DA:133,1428
DA:134,1428
DA:135,1428
DA:137,1428
DA:141,1428
DA:143,1428
DA:144,1428
DA:145,1428
DA:146,1428
DA:148,1428
DA:297,2244
DA:299,2244
DA:432,240
DA:434,240
DA:435,240
DA:436,240
DA:437,240
DA:445,2724
DA:447,2724
DA:456,15444
DA:458,15444
DA:477,96
DA:479,96
DA:480,96
DA:481,96
DA:482,96
DA:483,96
LF:44
LH:44
end_of_record
SF:/home/bruce/work/lib/boost_1_54_0/boost/log/core/core.hpp
DA:308,10032
LF:1
LH:1
end_of_record
SF:/home/bruce/work/lib/boost_1_54_0/boost/log/core/record.hpp
FN:66,_ZN5boost3log11v2_mt_posix6recordC2Ev
FN:79,_ZN5boost3log11v2_mt_posix6recordD2Ev
FN:125,_ZNK5boost3log11v2_mt_posix6recordntEv
FN:149,_ZN5boost3log11v2_mt_posix6record5resetEv
FNDA:0,_ZN5boost3log11v2_mt_posix6recordC2Ev
FNDA:10032,_ZN5boost3log11v2_mt_posix6recordD2Ev
FNDA:20064,_ZNK5boost3log11v2_mt_posix6recordntEv
FNDA:10032,_ZN5boost3log11v2_mt_posix6record5resetEv
FNF:4
FNH:3
DA:66,0
DA:79,10032
DA:81,10032
DA:82,10032
DA:125,20064
DA:127,20064
DA:149,10032
DA:151,10032
DA:153,0
DA:154,0
DA:156,10032
LF:11
LH:8
end_of_record
SF:/home/bruce/work/lib/boost_1_54_0/boost/log/detail/attachable_sstream_buf.hpp
FN:109,_ZNK5boost3log11v2_mt_posix3aux22basic_ostringstreambufIcSt11char_traitsIcESaIcEE7storageEv
FNDA:17298,_ZNK5boost3log11v2_mt_posix3aux22basic_ostringstreambufIcSt11char_traitsIcESaIcEE7storageEv
FNF:1
FNH:1
DA:109,17298
LF:1
LH:1
end_of_record
SF:/home/bruce/work/lib/boost_1_54_0/boost/log/detail/code_conversion.hpp
FN:59,_ZN5boost3log11v2_mt_posix3aux12code_convertIcSt11char_traitsIcESaIcEEEvPKT_mRSbIS7_T0_T1_ERKSt6locale
FNDA:17298,_ZN5boost3log11v2_mt_posix3aux12code_convertIcSt11char_traitsIcESaIcEEEvPKT_mRSbIS7_T0_T1_ERKSt6locale
FNF:1
FNH:1
DA:59,17298
DA:61,17298
DA:62,17298
LF:3
LH:3
end_of_record
SF:/home/bruce/work/lib/boost_1_54_0/boost/log/detail/light_rw_mutex.hpp
FN:142,_ZN5boost3log11v2_mt_posix3aux14light_rw_mutex11lock_sharedEv
FN:146,_ZN5boost3log11v2_mt_posix3aux14light_rw_mutex13unlock_sharedEv
FNDA:10032,_ZN5boost3log11v2_mt_posix3aux14light_rw_mutex11lock_sharedEv
FNDA:10032,_ZN5boost3log11v2_mt_posix3aux14light_rw_mutex13unlock_sharedEv
FNF:2
FNH:2
DA:142,10032
DA:144,10032
DA:145,10032
DA:146,10032
DA:148,10032
DA:149,10032
LF:6
LH:6
end_of_record
SF:/home/bruce/work/lib/boost_1_54_0/boost/log/detail/locks.hpp
FN:56,_ZN5boost3log11v2_mt_posix7no_lockINS1_7sources18multi_thread_modelINS1_3aux14light_rw_mutexEEEEC2ERS7_
FN:120,_ZN5boost3log11v2_mt_posix3aux17shared_lock_guardINS1_7sources18multi_thread_modelINS2_14light_rw_mutexEEEEC2ERS7_
FN:124,_ZN5boost3log11v2_mt_posix3aux17shared_lock_guardINS1_7sources18multi_thread_modelINS2_14light_rw_mutexEEEED2Ev
FNDA:10032,_ZN5boost3log11v2_mt_posix7no_lockINS1_7sources18multi_thread_modelINS1_3aux14light_rw_mutexEEEEC2ERS7_
FNDA:10032,_ZN5boost3log11v2_mt_posix3aux17shared_lock_guardINS1_7sources18multi_thread_modelINS2_14light_rw_mutexEEEEC2ERS7_
FNDA:10032,_ZN5boost3log11v2_mt_posix3aux17shared_lock_guardINS1_7sources18multi_thread_modelINS2_14light_rw_mutexEEEED2Ev
FNF:3
FNH:3
DA:56,10032
DA:120,10032
DA:122,10032
DA:123,10032
DA:124,10032
DA:126,10032
DA:127,10032
LF:7
LH:7
end_of_record
SF:/home/bruce/work/lib/boost_1_54_0/boost/log/sources/basic_logger.hpp
FN:180,_ZNK5boost3log11v2_mt_posix7sources12basic_loggerIcNS2_18severity_logger_mtINS1_7trivial14severity_levelEEENS2_18multi_thread_modelINS1_3aux14light_rw_mutexEEEE4coreEv
FN:192,_ZN5boost3log11v2_mt_posix7sources12basic_loggerIcNS2_18severity_logger_mtINS1_7trivial14severity_levelEEENS2_18multi_thread_modelINS1_3aux14light_rw_mutexEEEE19get_threading_modelEv
FN:258,_ZN5boost3log11v2_mt_posix7sources12basic_loggerIcNS2_18severity_logger_mtINS1_7trivial14severity_levelEEENS2_18multi_thread_modelINS1_3aux14light_rw_mutexEEEE20open_record_unlockedINS_9parameter3aux15tagged_argumentINS1_8keywords3tag8severityEKS6_EEEENS1_6recordERKT_
FN:266,_ZN5boost3log11v2_mt_posix7sources12basic_loggerIcNS2_18severity_logger_mtINS1_7trivial14severity_levelEEENS2_18multi_thread_modelINS1_3aux14light_rw_mutexEEEE20push_record_unlockedEONS1_6recordE
FN:454,_ZN5boost3log11v2_mt_posix7sources22basic_composite_loggerIcNS2_18severity_logger_mtINS1_7trivial14severity_levelEEENS2_18multi_thread_modelINS1_3aux14light_rw_mutexEEENS2_8featuresIINS2_8severityIS6_EEEEEE11open_recordINS_9parameter3aux15tagged_argumentINS1_8keywords3tag8severityEKS6_EEEENS1_6recordERKT_
FN:470,_ZN5boost3log11v2_mt_posix7sources22basic_composite_loggerIcNS2_18severity_logger_mtINS1_7trivial14severity_levelEEENS2_18multi_thread_modelINS1_3aux14light_rw_mutexEEENS2_8featuresIINS2_8severityIS6_EEEEEE11push_recordEONS1_6recordE
FNDA:10032,_ZNK5boost3log11v2_mt_posix7sources12basic_loggerIcNS2_18severity_logger_mtINS1_7trivial14severity_levelEEENS2_18multi_thread_modelINS1_3aux14light_rw_mutexEEEE4coreEv
FNDA:20064,_ZN5boost3log11v2_mt_posix7sources12basic_loggerIcNS2_18severity_logger_mtINS1_7trivial14severity_levelEEENS2_18multi_thread_modelINS1_3aux14light_rw_mutexEEEE19get_threading_modelEv
FNDA:10032,_ZN5boost3log11v2_mt_posix7sources12basic_loggerIcNS2_18severity_logger_mtINS1_7trivial14severity_levelEEENS2_18multi_thread_modelINS1_3aux14light_rw_mutexEEEE20open_record_unlockedINS_9parameter3aux15tagged_argumentINS1_8keywords3tag8severityEKS6_EEEENS1_6recordERKT_
FNDA:10032,_ZN5boost3log11v2_mt_posix7sources12basic_loggerIcNS2_18severity_logger_mtINS1_7trivial14severity_levelEEENS2_18multi_thread_modelINS1_3aux14light_rw_mutexEEEE20push_record_unlockedEONS1_6recordE
FNDA:10032,_ZN5boost3log11v2_mt_posix7sources22basic_composite_loggerIcNS2_18severity_logger_mtINS1_7trivial14severity_levelEEENS2_18multi_thread_modelINS1_3aux14light_rw_mutexEEENS2_8featuresIINS2_8severityIS6_EEEEEE11open_recordINS_9parameter3aux15tagged_argumentINS1_8keywords3tag8severityEKS6_EEEENS1_6recordERKT_
FNDA:10032,_ZN5boost3log11v2_mt_posix7sources22basic_composite_loggerIcNS2_18severity_logger_mtINS1_7trivial14severity_levelEEENS2_18multi_thread_modelINS1_3aux14light_rw_mutexEEENS2_8featuresIINS2_8severityIS6_EEEEEE11push_recordEONS1_6recordE
FNF:6
FNH:6
DA:180,10032
DA:192,20064
DA:258,10032
DA:260,10032
DA:266,10032
DA:268,10032
DA:269,10032
DA:454,10032
DA:457,10032
DA:459,10032
DA:460,10032
DA:463,0
DA:470,10032
DA:472,10032
DA:473,10032
DA:474,10032
LF:16
LH:15
end_of_record
SF:/home/bruce/work/lib/boost_1_54_0/boost/log/sources/record_ostream.hpp
FN:124,_ZN5boost3log11v2_mt_posix20basic_record_ostreamIcE10get_recordEv
FN:242,_ZN5boost3log11v2_mt_posix3aux11record_pumpINS1_7sources18severity_logger_mtINS1_7trivial14severity_levelEEEE12auto_releaseC2EPNS2_15stream_providerIcE15stream_compoundE
FN:243,_ZN5boost3log11v2_mt_posix3aux11record_pumpINS1_7sources18severity_logger_mtINS1_7trivial14severity_levelEEEE12auto_releaseD2Ev
FN:256,_ZN5boost3log11v2_mt_posix3aux11record_pumpINS1_7sources18severity_logger_mtINS1_7trivial14severity_levelEEEEC2ERS8_RNS1_6recordE
FN:272,_ZN5boost3log11v2_mt_posix3aux11record_pumpINS1_7sources18severity_logger_mtINS1_7trivial14severity_levelEEEED2Ev
FN:284,_ZNK5boost3log11v2_mt_posix3aux11record_pumpINS1_7sources18severity_logger_mtINS1_7trivial14severity_levelEEEE6streamEv
FNDA:10032,_ZN5boost3log11v2_mt_posix20basic_record_ostreamIcE10get_recordEv
FNDA:10032,_ZN5boost3log11v2_mt_posix3aux11record_pumpINS1_7sources18severity_logger_mtINS1_7trivial14severity_levelEEEE12auto_releaseC2EPNS2_15stream_providerIcE15stream_compoundE
FNDA:10032,_ZN5boost3log11v2_mt_posix3aux11record_pumpINS1_7sources18severity_logger_mtINS1_7trivial14severity_levelEEEE12auto_releaseD2Ev
FNDA:10032,_ZN5boost3log11v2_mt_posix3aux11record_pumpINS1_7sources18severity_logger_mtINS1_7trivial14severity_levelEEEEC2ERS8_RNS1_6recordE
FNDA:10032,_ZN5boost3log11v2_mt_posix3aux11record_pumpINS1_7sources18severity_logger_mtINS1_7trivial14severity_levelEEEED2Ev
FNDA:10032,_ZNK5boost3log11v2_mt_posix3aux11record_pumpINS1_7sources18severity_logger_mtINS1_7trivial14severity_levelEEEE6streamEv
FNF:6
FNH:6
DA:124,10032
DA:126,10032
DA:127,10032
DA:128,10032
DA:242,10032
DA:243,10032
DA:256,10032
DA:257,10032
DA:258,10032
DA:259,20064
DA:261,10032
DA:272,10032
DA:274,10032
DA:276,10032
DA:278,10032
DA:279,10032
DA:281,10032
DA:284,10032
DA:286,10032
DA:287,10032
DA:294,4548
LF:21
LH:21
end_of_record
SF:/home/bruce/work/lib/boost_1_54_0/boost/log/sources/severity_feature.hpp
FN:133,_ZN5boost3log11v2_mt_posix7sources3aux14severity_levelINS1_7trivial14severity_levelEE9set_valueES6_
FN:250,_ZN5boost3log11v2_mt_posix7sources21basic_severity_loggerINS2_12basic_loggerIcNS2_18severity_logger_mtINS1_7trivial14severity_levelEEENS2_18multi_thread_modelINS1_3aux14light_rw_mutexEEEEES7_E20open_record_unlockedINS_9parameter3aux15tagged_argumentINS1_8keywords3tag8severityEKS7_EEEENS1_6recordERKT_
FNDA:10032,_ZN5boost3log11v2_mt_posix7sources3aux14severity_levelINS1_7trivial14severity_levelEE9set_valueES6_
FNDA:10032,_ZN5boost3log11v2_mt_posix7sources21basic_severity_loggerINS2_12basic_loggerIcNS2_18severity_logger_mtINS1_7trivial14severity_levelEEENS2_18multi_thread_modelINS1_3aux14light_rw_mutexEEEEES7_E20open_record_unlockedINS_9parameter3aux15tagged_argumentINS1_8keywords3tag8severityEKS7_EEEENS1_6recordERKT_
FNF:2
FNH:2
DA:133,10032
DA:135,10032
DA:136,10032
DA:250,10032
DA:252,10032
DA:253,10032
LF:6
LH:6
end_of_record
SF:/home/bruce/work/lib/boost_1_54_0/boost/log/sources/threading_models.hpp
FN:74,_ZNK5boost3log11v2_mt_posix7sources18multi_thread_modelINS1_3aux14light_rw_mutexEE11lock_sharedEv
FN:78,_ZNK5boost3log11v2_mt_posix7sources18multi_thread_modelINS1_3aux14light_rw_mutexEE13unlock_sharedEv
FNDA:10032,_ZNK5boost3log11v2_mt_posix7sources18multi_thread_modelINS1_3aux14light_rw_mutexEE11lock_sharedEv
FNDA:10032,_ZNK5boost3log11v2_mt_posix7sources18multi_thread_modelINS1_3aux14light_rw_mutexEE13unlock_sharedEv
FNF:2
FNH:2
DA:74,10032
DA:78,10032
LF:2
LH:2
end_of_record
SF:/home/bruce/work/lib/boost_1_54_0/boost/log/utility/formatting_ostream.hpp
FN:114,_ZN5boost3log11v2_mt_posix24basic_formatting_ostreamIcSt11char_traitsIcESaIcEE6sentryD2Ev
FN:120,_ZN5boost3log11v2_mt_posix24basic_formatting_ostreamIcSt11char_traitsIcESaIcEE6sentryC2ERS6_
FN:247,_ZN5boost3log11v2_mt_posix24basic_formatting_ostreamIcSt11char_traitsIcESaIcEE6streamEv
FN:316,_ZN5boost3log11v2_mt_posix24basic_formatting_ostreamIcSt11char_traitsIcESaIcEE5flushEv
FN:390,_ZN5boost3log11v2_mt_posix24basic_formatting_ostreamIcSt11char_traitsIcESaIcEElsEPKc
FN:451,_ZN5boost3log11v2_mt_posix24basic_formatting_ostreamIcSt11char_traitsIcESaIcEElsEi
FN:456,_ZN5boost3log11v2_mt_posix24basic_formatting_ostreamIcSt11char_traitsIcESaIcEElsEj
FN:484,_ZN5boost3log11v2_mt_posix24basic_formatting_ostreamIcSt11char_traitsIcESaIcEElsEf
FN:489,_ZN5boost3log11v2_mt_posix24basic_formatting_ostreamIcSt11char_traitsIcESaIcEElsEd
FN:514,_ZN5boost3log11v2_mt_posixlsIcSt11char_traitsIcESaIcEEENS1_3aux19enable_if_char_typeIT_RNS1_24basic_formatting_ostreamIcS4_S5_EEE4typeESB_RKSbIS8_T0_T1_E
FN:549,_ZN5boost3log11v2_mt_posix24basic_formatting_ostreamIcSt11char_traitsIcESaIcEE15formatted_writeIcEERS6_PKT_l
FN:662,_ZN5boost3log11v2_mt_posixlsIcSt11char_traitsIcESaIcE12quaternion_tEERNS1_24basic_formatting_ostreamIT_T0_T1_EESC_RKT2_
FN:662,_ZN5boost3log11v2_mt_posixlsIcSt11char_traitsIcESaIcE7point_tEERNS1_24basic_formatting_ostreamIT_T0_T1_EESC_RKT2_
FNDA:17298,_ZN5boost3log11v2_mt_posix24basic_formatting_ostreamIcSt11char_traitsIcESaIcEE6sentryD2Ev
FNDA:17298,_ZN5boost3log11v2_mt_posix24basic_formatting_ostreamIcSt11char_traitsIcESaIcEE6sentryC2ERS6_
FNDA:19602,_ZN5boost3log11v2_mt_posix24basic_formatting_ostreamIcSt11char_traitsIcESaIcEE6streamEv
FNDA:10032,_ZN5boost3log11v2_mt_posix24basic_formatting_ostreamIcSt11char_traitsIcESaIcEE5flushEv
FNDA:13518,_ZN5boost3log11v2_mt_posix24basic_formatting_ostreamIcSt11char_traitsIcESaIcEElsEPKc
FNDA:2160,_ZN5boost3log11v2_mt_posix24basic_formatting_ostreamIcSt11char_traitsIcESaIcEElsEi
FNDA:48,_ZN5boost3log11v2_mt_posix24basic_formatting_ostreamIcSt11char_traitsIcESaIcEElsEj
FNDA:3960,_ZN5boost3log11v2_mt_posix24basic_formatting_ostreamIcSt11char_traitsIcESaIcEElsEf
FNDA:0,_ZN5boost3log11v2_mt_posix24basic_formatting_ostreamIcSt11char_traitsIcESaIcEElsEd
FNDA:3780,_ZN5boost3log11v2_mt_posixlsIcSt11char_traitsIcESaIcEEENS1_3aux19enable_if_char_typeIT_RNS1_24basic_formatting_ostreamIcS4_S5_EEE4typeESB_RKSbIS8_T0_T1_E
FNDA:17298,_ZN5boost3log11v2_mt_posix24basic_formatting_ostreamIcSt11char_traitsIcESaIcEE15formatted_writeIcEERS6_PKT_l
FNDA:0,_ZN5boost3log11v2_mt_posixlsIcSt11char_traitsIcESaIcE12quaternion_tEERNS1_24basic_formatting_ostreamIT_T0_T1_EESC_RKT2_
FNDA:2304,_ZN5boost3log11v2_mt_posixlsIcSt11char_traitsIcESaIcE7point_tEERNS1_24basic_formatting_ostreamIT_T0_T1_EESC_RKT2_
FNF:13
FNH:11
DA:114,17298
DA:120,17298
DA:122,17298
DA:247,19602
DA:316,10032
DA:318,10032
DA:319,10032
DA:390,13518
DA:392,13518
DA:451,2160
DA:453,2160
DA:454,2160
DA:456,48
DA:458,48
DA:459,48
DA:484,3960
DA:486,3960
DA:487,3960
DA:489,0
DA:491,0
DA:492,0
DA:514,3780
DA:516,3780
DA:549,17298
DA:551,17298
DA:552,17298
DA:554,17298
DA:555,17298
DA:557,17298
DA:558,17298
DA:560,17298
DA:564,0
DA:566,0
DA:567,0
DA:568,0
DA:570,0
DA:572,0
DA:573,0
DA:576,17298
DA:579,17298
DA:662,2304
DA:664,2304
DA:665,2304
LF:43
LH:33
end_of_record
SF:/home/bruce/work/lib/boost_1_54_0/boost/move/utility.hpp
FN:138,_ZN5boost4moveIRNS_3log11v2_mt_posix6recordEEEONS_16remove_referenceIT_E4typeEOS6_
FNDA:30096,_ZN5boost4moveIRNS_3log11v2_mt_posix6recordEEEONS_16remove_referenceIT_E4typeEOS6_
FNF:1
FNH:1
DA:138,30096
DA:139,30096
LF:2
LH:2
end_of_record
SF:/home/bruce/work/lib/boost_1_54_0/boost/noncopyable.hpp
FN:27,_ZN5boost12noncopyable_11noncopyableC2Ev
FNDA:1020,_ZN5boost12noncopyable_11noncopyableC2Ev
FNF:1
FNH:1
DA:27,1020
LF:1
LH:1
end_of_record
SF:/home/bruce/work/lib/boost_1_54_0/boost/parameter/aux_/default.hpp
FN:18,_ZN5boost9parameter3aux8default_INS_3log11v2_mt_posix8keywords3tag8severityENS4_7trivial14severity_levelEEC2ERS9_
FNDA:10032,_ZN5boost9parameter3aux8default_INS_3log11v2_mt_posix8keywords3tag8severityENS4_7trivial14severity_levelEEC2ERS9_
FNF:1
FNH:1
DA:18,10032
DA:19,10032
DA:20,10032
LF:3
LH:3
end_of_record
SF:/home/bruce/work/lib/boost_1_54_0/boost/parameter/aux_/tagged_argument.hpp
FN:25,_ZN5boost9parameter3aux20tagged_argument_baseC2Ev
FN:37,_ZN5boost9parameter3aux15tagged_argumentINS_3log11v2_mt_posix8keywords3tag8severityEKNS4_7trivial14severity_levelEEC2ERSA_
FN:123,_ZNK5boost9parameter3aux15tagged_argumentINS_3log11v2_mt_posix8keywords3tag8severityEKNS4_7trivial14severity_levelEEixIS9_EERSA_RKNS1_8default_IS7_T_EE
FNDA:10032,_ZN5boost9parameter3aux20tagged_argument_baseC2Ev
FNDA:10032,_ZN5boost9parameter3aux15tagged_argumentINS_3log11v2_mt_posix8keywords3tag8severityEKNS4_7trivial14severity_levelEEC2ERSA_
FNDA:10032,_ZNK5boost9parameter3aux15tagged_argumentINS_3log11v2_mt_posix8keywords3tag8severityEKNS4_7trivial14severity_levelEEixIS9_EERSA_RKNS1_8default_IS7_T_EE
FNF:3
FNH:3
DA:25,10032
DA:37,10032
DA:123,10032
DA:125,10032
LF:4
LH:4
end_of_record
SF:/home/bruce/work/lib/boost_1_54_0/boost/parameter/keyword.hpp
FN:43,_ZNK5boost9parameter7keywordINS_3log11v2_mt_posix8keywords3tag8severityEEorINS3_7trivial14severity_levelEEENS0_3aux8default_IS6_T_EERSD_
FN:58,_ZNK5boost9parameter7keywordINS_3log11v2_mt_posix8keywords3tag8severityEEaSINS3_7trivial14severity_levelEEEKNS0_3aux3tagIS6_KT_E4typeERSE_
FNDA:10032,_ZNK5boost9parameter7keywordINS_3log11v2_mt_posix8keywords3tag8severityEEorINS3_7trivial14severity_levelEEENS0_3aux8default_IS6_T_EERSD_
FNDA:10032,_ZNK5boost9parameter7keywordINS_3log11v2_mt_posix8keywords3tag8severityEEaSINS3_7trivial14severity_levelEEEKNS0_3aux3tagIS6_KT_E4typeERSE_
FNF:2
FNH:2
DA:43,10032
DA:45,10032
DA:58,10032
DA:61,10032
LF:4
LH:4
end_of_record
SF:/home/bruce/work/lib/boost_1_54_0/boost/smart_ptr/shared_ptr.hpp
FN:651,_ZNK5boost10shared_ptrINS_3log11v2_mt_posix4coreEEptEv
FNDA:30102,_ZNK5boost10shared_ptrINS_3log11v2_mt_posix4coreEEptEv
FNF:1
FNH:1
DA:651,30102
DA:653,30102
DA:654,30102
LF:3
LH:3
end_of_record
SF:/home/bruce/work/lib/boost_1_54_0/boost/utility/addressof.hpp
FN:28,_ZN5boost6detail13addr_impl_refINS_3log11v2_mt_posix7sources18severity_logger_mtINS3_7trivial14severity_levelEEEEC2ERS8_
FN:29,_ZNK5boost6detail13addr_impl_refINS_3log11v2_mt_posix7sources18severity_logger_mtINS3_7trivial14severity_levelEEEEcvRS8_Ev
FN:37,_ZN5boost6detail14addressof_implINS_3log11v2_mt_posix7sources18severity_logger_mtINS3_7trivial14severity_levelEEEE1fERS8_l
FN:51,_ZN5boost9addressofINS_3log11v2_mt_posix7sources18severity_logger_mtINS2_7trivial14severity_levelEEEEEPT_RS8_
FNDA:10032,_ZN5boost6detail13addr_impl_refINS_3log11v2_mt_posix7sources18severity_logger_mtINS3_7trivial14severity_levelEEEEC2ERS8_
FNDA:10032,_ZNK5boost6detail13addr_impl_refINS_3log11v2_mt_posix7sources18severity_logger_mtINS3_7trivial14severity_levelEEEEcvRS8_Ev
FNDA:10032,_ZN5boost6detail14addressof_implINS_3log11v2_mt_posix7sources18severity_logger_mtINS3_7trivial14severity_levelEEEE1fERS8_l
FNDA:10032,_ZN5boost9addressofINS_3log11v2_mt_posix7sources18severity_logger_mtINS2_7trivial14severity_levelEEEEEPT_RS8_
FNF:4
FNH:4
DA:28,10032
DA:29,10032
DA:37,10032
DA:40,10032
DA:51,10032
DA:59,10032
LF:6
LH:6
end_of_record
SF:/usr/include/c++/4.8/bits/alloc_traits.h
FN:253,_ZNSt16allocator_traitsISaIPN14raptor_physics7vg_metaEEE12_S_constructIS2_IRKS2_EEENSt9enable_ifIXsrNS4_18__construct_helperIT_IDpT0_EEE5valueEvE4typeERS3_PSA_DpOSB_
FN:253,_ZNSt16allocator_traitsISaISt4pairIPN14raptor_physics7vg_metaESt6vectorINS1_18contact_graph_edgeESaIS5_EEEEE12_S_constructIS8_IS8_EEENSt9enable_ifIXsrNSA_18__construct_helperIT_IDpT0_EEE5valueEvE4typeERS9_PSE_DpOSF_
FN:253,_ZNSt16allocator_traitsISaISt13_Rb_tree_nodeISt4pairIKPN14raptor_physics7vg_metaEPNS2_13tracking_infoIS3_EEEEEE12_S_constructISA_IRKS9_EEENSt9enable_ifIXsrNSC_18__construct_helperIT_IDpT0_EEE5valueEvE4typeERSB_PSI_DpOSJ_
FN:253,_ZNSt16allocator_traitsISaISt13_Rb_tree_nodeISt4pairIKPN14raptor_physics7vg_metaEPNS2_13tracking_infoIS3_EEEEEE12_S_constructISA_IRKSt21piecewise_construct_tSt5tupleIIRS5_EESH_IIEEEEENSt9enable_ifIXsrNSC_18__construct_helperIT_IDpT0_EEE5valueEvE4typeERSB_PSN_DpOSO_
FN:253,_ZNSt16allocator_traitsISaISt13_Rb_tree_nodeISt4pairIKPN14raptor_physics7vg_metaEPNS2_14collision_infoEEEEE12_S_constructIS9_IRKS8_EEENSt9enable_ifIXsrNSB_18__construct_helperIT_IDpT0_EEE5valueEvE4typeERSA_PSH_DpOSI_
FN:253,_ZNSt16allocator_traitsISaIN14raptor_physics18contact_graph_edgeEEE12_S_constructIS1_IRKPNS0_14collision_infoERiS9_EEENSt9enable_ifIXsrNS3_18__construct_helperIT_IDpT0_EEE5valueEvE4typeERS2_PSC_DpOSD_
FN:253,_ZNSt16allocator_traitsISaIN14raptor_physics18contact_graph_edgeEEE12_S_constructIS1_IPNS0_14collision_infoERKiRiEEENSt9enable_ifIXsrNS3_18__construct_helperIT_IDpT0_EEE5valueEvE4typeERS2_PSC_DpOSD_
FN:280,_ZNSt16allocator_traitsISaIPN14raptor_physics7vg_metaEEE10_S_destroyIS2_EENSt9enable_ifIXsrNS4_16__destroy_helperIT_EE5valueEvE4typeERS3_PS8_
FN:280,_ZNSt16allocator_traitsISaIN14raptor_physics18contact_graph_edgeEEE10_S_destroyIS1_EENSt9enable_ifIXsrNS3_16__destroy_helperIT_EE5valueEvE4typeERS2_PS7_
FN:280,_ZNSt16allocator_traitsISaISt4pairIPN14raptor_physics7vg_metaESt6vectorINS1_18contact_graph_edgeESaIS5_EEEEE10_S_destroyIS8_EENSt9enable_ifIXsrNSA_16__destroy_helperIT_EE5valueEvE4typeERS9_PSE_
FN:305,_ZNSt16allocator_traitsISaIN14raptor_physics18contact_graph_edgeEEE11_S_max_sizeIKS2_EENSt9enable_ifIXsrNS3_16__maxsize_helperIT_EE5valueEmE4typeERS8_
FN:305,_ZNSt16allocator_traitsISaIPN14raptor_physics7vg_metaEEE11_S_max_sizeIKS3_EENSt9enable_ifIXsrNS4_16__maxsize_helperIT_EE5valueEmE4typeERS9_
FN:305,_ZNSt16allocator_traitsISaISt4pairIPN14raptor_physics7vg_metaESt6vectorINS1_18contact_graph_edgeESaIS5_EEEEE11_S_max_sizeIKS9_EENSt9enable_ifIXsrNSA_16__maxsize_helperIT_EE5valueEmE4typeERSF_
FN:391,_ZNSt16allocator_traitsISaISt13_Rb_tree_nodeISt4pairIKPN14raptor_physics7vg_metaEPNS2_14collision_infoEEEEE9constructIS9_IRKS8_EEEDTcl12_S_constructfp_fp0_spcl7forwardIT0_Efp1_EEERSA_PT_DpOSF_
FN:391,_ZNSt16allocator_traitsISaISt13_Rb_tree_nodeISt4pairIKPN14raptor_physics7vg_metaEPNS2_13tracking_infoIS3_EEEEEE9constructISA_IRKS9_EEEDTcl12_S_constructfp_fp0_spcl7forwardIT0_Efp1_EEERSB_PT_DpOSG_
FN:391,_ZNSt16allocator_traitsISaIN14raptor_physics18contact_graph_edgeEEE9constructIS1_IRKPNS0_14collision_infoERiS9_EEEDTcl12_S_constructfp_fp0_spcl7forwardIT0_Efp1_EEERS2_PT_DpOSA_
FN:391,_ZNSt16allocator_traitsISaISt4pairIPN14raptor_physics7vg_metaESt6vectorINS1_18contact_graph_edgeESaIS5_EEEEE9constructIS8_IS8_EEEDTcl12_S_constructfp_fp0_spcl7forwardIT0_Efp1_EEERS9_PT_DpOSC_
FN:391,_ZNSt16allocator_traitsISaIN14raptor_physics18contact_graph_edgeEEE9constructIS1_IPNS0_14collision_infoERKiRiEEEDTcl12_S_constructfp_fp0_spcl7forwardIT0_Efp1_EEERS2_PT_DpOSA_
FN:391,_ZNSt16allocator_traitsISaISt13_Rb_tree_nodeISt4pairIKPN14raptor_physics7vg_metaEPNS2_13tracking_infoIS3_EEEEEE9constructISA_IRKSt21piecewise_construct_tSt5tupleIIRS5_EESH_IIEEEEEDTcl12_S_constructfp_fp0_spcl7forwardIT0_Efp1_EEERSB_PT_DpOSL_
FN:391,_ZNSt16allocator_traitsISaIPN14raptor_physics7vg_metaEEE9constructIS2_IRKS2_EEEDTcl12_S_constructfp_fp0_spcl7forwardIT0_Efp1_EEERS3_PT_DpOS8_
FN:404,_ZNSt16allocator_traitsISaISt4pairIPN14raptor_physics7vg_metaESt6vectorINS1_18contact_graph_edgeESaIS5_EEEEE7destroyIS8_EEvRS9_PT_
FN:404,_ZNSt16allocator_traitsISaIPN14raptor_physics7vg_metaEEE7destroyIS2_EEvRS3_PT_
FN:404,_ZNSt16allocator_traitsISaIN14raptor_physics18contact_graph_edgeEEE7destroyIS1_EEvRS2_PT_
FN:415,_ZNSt16allocator_traitsISaIPN14raptor_physics7vg_metaEEE8max_sizeERKS3_
FN:415,_ZNSt16allocator_traitsISaIN14raptor_physics18contact_graph_edgeEEE8max_sizeERKS2_
FN:415,_ZNSt16allocator_traitsISaISt4pairIPN14raptor_physics7vg_metaESt6vectorINS1_18contact_graph_edgeESaIS5_EEEEE8max_sizeERKS9_
FNDA:48,_ZNSt16allocator_traitsISaISt13_Rb_tree_nodeISt4pairIKPN14raptor_physics7vg_metaEPNS2_14collision_infoEEEEE12_S_constructIS9_IRKS8_EEENSt9enable_ifIXsrNSB_18__construct_helperIT_IDpT0_EEE5valueEvE4typeERSA_PSH_DpOSI_
FNDA:0,_ZNSt16allocator_traitsISaIN14raptor_physics18contact_graph_edgeEEE12_S_constructIS1_IPNS0_14collision_infoERKiRiEEENSt9enable_ifIXsrNS3_18__construct_helperIT_IDpT0_EEE5valueEvE4typeERS2_PSC_DpOSD_
FNDA:0,_ZNSt16allocator_traitsISaIN14raptor_physics18contact_graph_edgeEEE12_S_constructIS1_IRKPNS0_14collision_infoERiS9_EEENSt9enable_ifIXsrNS3_18__construct_helperIT_IDpT0_EEE5valueEvE4typeERS2_PSC_DpOSD_
FNDA:0,_ZNSt16allocator_traitsISaISt4pairIPN14raptor_physics7vg_metaESt6vectorINS1_18contact_graph_edgeESaIS5_EEEEE12_S_constructIS8_IS8_EEENSt9enable_ifIXsrNSA_18__construct_helperIT_IDpT0_EEE5valueEvE4typeERS9_PSE_DpOSF_
FNDA:36,_ZNSt16allocator_traitsISaISt13_Rb_tree_nodeISt4pairIKPN14raptor_physics7vg_metaEPNS2_13tracking_infoIS3_EEEEEE12_S_constructISA_IRKS9_EEENSt9enable_ifIXsrNSC_18__construct_helperIT_IDpT0_EEE5valueEvE4typeERSB_PSI_DpOSJ_
FNDA:0,_ZNSt16allocator_traitsISaIPN14raptor_physics7vg_metaEEE12_S_constructIS2_IRKS2_EEENSt9enable_ifIXsrNS4_18__construct_helperIT_IDpT0_EEE5valueEvE4typeERS3_PSA_DpOSB_
FNDA:0,_ZNSt16allocator_traitsISaISt13_Rb_tree_nodeISt4pairIKPN14raptor_physics7vg_metaEPNS2_13tracking_infoIS3_EEEEEE12_S_constructISA_IRKSt21piecewise_construct_tSt5tupleIIRS5_EESH_IIEEEEENSt9enable_ifIXsrNSC_18__construct_helperIT_IDpT0_EEE5valueEvE4typeERSB_PSN_DpOSO_
FNDA:0,_ZNSt16allocator_traitsISaIN14raptor_physics18contact_graph_edgeEEE10_S_destroyIS1_EENSt9enable_ifIXsrNS3_16__destroy_helperIT_EE5valueEvE4typeERS2_PS7_
FNDA:0,_ZNSt16allocator_traitsISaISt4pairIPN14raptor_physics7vg_metaESt6vectorINS1_18contact_graph_edgeESaIS5_EEEEE10_S_destroyIS8_EENSt9enable_ifIXsrNSA_16__destroy_helperIT_EE5valueEvE4typeERS9_PSE_
FNDA:0,_ZNSt16allocator_traitsISaIPN14raptor_physics7vg_metaEEE10_S_destroyIS2_EENSt9enable_ifIXsrNS4_16__destroy_helperIT_EE5valueEvE4typeERS3_PS8_
FNDA:0,_ZNSt16allocator_traitsISaIN14raptor_physics18contact_graph_edgeEEE11_S_max_sizeIKS2_EENSt9enable_ifIXsrNS3_16__maxsize_helperIT_EE5valueEmE4typeERS8_
FNDA:0,_ZNSt16allocator_traitsISaISt4pairIPN14raptor_physics7vg_metaESt6vectorINS1_18contact_graph_edgeESaIS5_EEEEE11_S_max_sizeIKS9_EENSt9enable_ifIXsrNSA_16__maxsize_helperIT_EE5valueEmE4typeERSF_
FNDA:0,_ZNSt16allocator_traitsISaIPN14raptor_physics7vg_metaEEE11_S_max_sizeIKS3_EENSt9enable_ifIXsrNS4_16__maxsize_helperIT_EE5valueEmE4typeERS9_
FNDA:48,_ZNSt16allocator_traitsISaISt13_Rb_tree_nodeISt4pairIKPN14raptor_physics7vg_metaEPNS2_14collision_infoEEEEE9constructIS9_IRKS8_EEEDTcl12_S_constructfp_fp0_spcl7forwardIT0_Efp1_EEERSA_PT_DpOSF_
FNDA:0,_ZNSt16allocator_traitsISaIN14raptor_physics18contact_graph_edgeEEE9constructIS1_IPNS0_14collision_infoERKiRiEEEDTcl12_S_constructfp_fp0_spcl7forwardIT0_Efp1_EEERS2_PT_DpOSA_
FNDA:0,_ZNSt16allocator_traitsISaIN14raptor_physics18contact_graph_edgeEEE9constructIS1_IRKPNS0_14collision_infoERiS9_EEEDTcl12_S_constructfp_fp0_spcl7forwardIT0_Efp1_EEERS2_PT_DpOSA_
FNDA:0,_ZNSt16allocator_traitsISaISt4pairIPN14raptor_physics7vg_metaESt6vectorINS1_18contact_graph_edgeESaIS5_EEEEE9constructIS8_IS8_EEEDTcl12_S_constructfp_fp0_spcl7forwardIT0_Efp1_EEERS9_PT_DpOSC_
FNDA:36,_ZNSt16allocator_traitsISaISt13_Rb_tree_nodeISt4pairIKPN14raptor_physics7vg_metaEPNS2_13tracking_infoIS3_EEEEEE9constructISA_IRKS9_EEEDTcl12_S_constructfp_fp0_spcl7forwardIT0_Efp1_EEERSB_PT_DpOSG_
FNDA:0,_ZNSt16allocator_traitsISaIPN14raptor_physics7vg_metaEEE9constructIS2_IRKS2_EEEDTcl12_S_constructfp_fp0_spcl7forwardIT0_Efp1_EEERS3_PT_DpOS8_
FNDA:0,_ZNSt16allocator_traitsISaISt13_Rb_tree_nodeISt4pairIKPN14raptor_physics7vg_metaEPNS2_13tracking_infoIS3_EEEEEE9constructISA_IRKSt21piecewise_construct_tSt5tupleIIRS5_EESH_IIEEEEEDTcl12_S_constructfp_fp0_spcl7forwardIT0_Efp1_EEERSB_PT_DpOSL_
FNDA:0,_ZNSt16allocator_traitsISaIN14raptor_physics18contact_graph_edgeEEE7destroyIS1_EEvRS2_PT_
FNDA:0,_ZNSt16allocator_traitsISaISt4pairIPN14raptor_physics7vg_metaESt6vectorINS1_18contact_graph_edgeESaIS5_EEEEE7destroyIS8_EEvRS9_PT_
FNDA:0,_ZNSt16allocator_traitsISaIPN14raptor_physics7vg_metaEEE7destroyIS2_EEvRS3_PT_
FNDA:0,_ZNSt16allocator_traitsISaIN14raptor_physics18contact_graph_edgeEEE8max_sizeERKS2_
FNDA:0,_ZNSt16allocator_traitsISaISt4pairIPN14raptor_physics7vg_metaESt6vectorINS1_18contact_graph_edgeESaIS5_EEEEE8max_sizeERKS9_
FNDA:0,_ZNSt16allocator_traitsISaIPN14raptor_physics7vg_metaEEE8max_sizeERKS3_
FNF:26
FNH:4
DA:253,84
DA:254,84
DA:280,0
DA:281,0
DA:305,0
DA:306,0
DA:391,84
DA:393,84
DA:404,0
DA:405,0
DA:415,0
DA:416,0
LF:12
LH:4
end_of_record
SF:/usr/include/c++/4.8/bits/allocator.h
FN:113,_ZNSaIPN14raptor_physics7vg_metaEEC2Ev
FN:113,_ZNSaISt4pairIKPN14raptor_physics7vg_metaEPNS0_14collision_infoEEEC2Ev
FN:113,_ZNSaISt4pairIPN14raptor_physics7vg_metaESt6vectorINS0_18contact_graph_edgeESaIS4_EEEEC2Ev
FN:113,_ZNSaIN14raptor_physics18contact_graph_edgeEEC2Ev
FN:115,_ZNSaISt4pairIKPN14raptor_physics7vg_metaEPNS0_14collision_infoEEEC2ERKS7_
FN:115,_ZNSaIN14raptor_physics18contact_graph_edgeEEC2ERKS1_
FN:115,_ZNSaISt13_Rb_tree_nodeISt4pairIKPN14raptor_physics7vg_metaEPNS1_14collision_infoEEEEC2ERKS9_
FN:119,_ZNSaISt13_Rb_tree_nodeISt4pairIKPN14raptor_physics7vg_metaEPNS1_14collision_infoEEEEC2IS7_EERKSaIT_E
FN:121,_ZNSaISt13_Rb_tree_nodeISt4pairIKPN14raptor_physics7vg_metaEPNS1_14collision_infoEEEED2Ev
FN:121,_ZNSaIPN14raptor_physics7vg_metaEED2Ev
FN:121,_ZNSaISt4pairIKPN14raptor_physics7vg_metaEPNS0_14collision_infoEEED2Ev
FN:121,_ZNSaISt4pairIPN14raptor_physics7vg_metaESt6vectorINS0_18contact_graph_edgeESaIS4_EEEED2Ev
FN:121,_ZNSaIN14raptor_physics18contact_graph_edgeEED2Ev
FN:133,_ZSteqIcEbRKSaIT_ES3_
FNDA:0,_ZNSaIN14raptor_physics18contact_graph_edgeEEC2Ev
FNDA:12,_ZNSaISt4pairIPN14raptor_physics7vg_metaESt6vectorINS0_18contact_graph_edgeESaIS4_EEEEC2Ev
FNDA:12,_ZNSaIPN14raptor_physics7vg_metaEEC2Ev
FNDA:36,_ZNSaISt4pairIKPN14raptor_physics7vg_metaEPNS0_14collision_infoEEEC2Ev
FNDA:0,_ZNSaIN14raptor_physics18contact_graph_edgeEEC2ERKS1_
FNDA:36,_ZNSaISt13_Rb_tree_nodeISt4pairIKPN14raptor_physics7vg_metaEPNS1_14collision_infoEEEEC2ERKS9_
FNDA:36,_ZNSaISt4pairIKPN14raptor_physics7vg_metaEPNS0_14collision_infoEEEC2ERKS7_
FNDA:36,_ZNSaISt13_Rb_tree_nodeISt4pairIKPN14raptor_physics7vg_metaEPNS1_14collision_infoEEEEC2IS7_EERKSaIT_E
FNDA:0,_ZNSaIN14raptor_physics18contact_graph_edgeEED2Ev
FNDA:12,_ZNSaISt4pairIPN14raptor_physics7vg_metaESt6vectorINS0_18contact_graph_edgeESaIS4_EEEED2Ev
FNDA:12,_ZNSaIPN14raptor_physics7vg_metaEED2Ev
FNDA:72,_ZNSaISt13_Rb_tree_nodeISt4pairIKPN14raptor_physics7vg_metaEPNS1_14collision_infoEEEED2Ev
FNDA:72,_ZNSaISt4pairIKPN14raptor_physics7vg_metaEPNS0_14collision_infoEEED2Ev
FNDA:0,_ZSteqIcEbRKSaIT_ES3_
FNF:14
FNH:10
DA:113,60
DA:115,72
DA:116,72
DA:119,36
DA:121,168
DA:133,0
DA:134,0
LF:7
LH:5
end_of_record
SF:/usr/include/c++/4.8/bits/basic_ios.h
FN:46,_ZSt13__check_facetISt5ctypeIcEERKT_PS3_
FNDA:0,_ZSt13__check_facetISt5ctypeIcEERKT_PS3_
FNF:1
FNH:0
DA:46,0
DA:48,0
DA:49,0
DA:50,0
LF:4
LH:0
end_of_record
SF:/usr/include/c++/4.8/bits/basic_string.h
FN:272,_ZNSs12_Alloc_hiderD2Ev
FN:1721,_ZNSs16_S_construct_auxIPcEES0_T_S1_RKSaIcESt12__false_type
FN:1743,_ZNSs12_S_constructIPcEES0_T_S1_RKSaIcE
FNDA:0,_ZNSs12_Alloc_hiderD2Ev
FNDA:0,_ZNSs16_S_construct_auxIPcEES0_T_S1_RKSaIcESt12__false_type
FNDA:0,_ZNSs12_S_constructIPcEES0_T_S1_RKSaIcE
FNF:3
FNH:0
DA:272,0
DA:1721,0
DA:1725,0
DA:1743,0
DA:1746,0
LF:5
LH:0
end_of_record
SF:/usr/include/c++/4.8/bits/basic_string.tcc
FN:123,_ZNSs12_S_constructIPcEES0_T_S1_RKSaIcESt20forward_iterator_tag
FN:227,_ZNSsC2IPcEET_S1_RKSaIcE
FNDA:0,_ZNSs12_S_constructIPcEES0_T_S1_RKSaIcESt20forward_iterator_tag
FNDA:0,_ZNSsC2IPcEET_S1_RKSaIcE
FNF:2
FNH:0
DA:123,0
DA:128,0
DA:129,0
DA:132,0
DA:133,0
DA:136,0
DA:138,0
DA:140,0
DA:141,=====
DA:143,=====
DA:144,=====
DA:146,0
DA:147,0
DA:227,0
DA:229,0
DA:230,0
LF:16
LH:0
end_of_record
SF:/usr/include/c++/4.8/bits/char_traits.h
FN:242,_ZNSt11char_traitsIcE6assignERcRKc
FN:258,_ZNSt11char_traitsIcE6lengthEPKc
FN:270,_ZNSt11char_traitsIcE4copyEPcPKcm
FNDA:0,_ZNSt11char_traitsIcE6assignERcRKc
FNDA:13518,_ZNSt11char_traitsIcE6lengthEPKc
FNDA:0,_ZNSt11char_traitsIcE4copyEPcPKcm
FNF:3
FNH:1
DA:242,0
DA:243,0
DA:258,13518
DA:259,13518
DA:270,0
DA:271,0
LF:6
LH:2
end_of_record
SF:/usr/include/c++/4.8/bits/hashtable.h
FN:342,_ZNKSt10_HashtableIiSt4pairIKiPN14raptor_physics7vg_metaEESaIS5_ENSt8__detail10_Select1stESt8equal_toIiESt4hashIiENS7_18_Mod_range_hashingENS7_20_Default_ranged_hashENS7_20_Prime_rehash_policyENS7_17_Hashtable_traitsILb0ELb0ELb1EEEE15_M_before_beginEv
FN:368,_ZNKSt10_HashtableIiSt4pairIKiPN14raptor_physics7vg_metaEESaIS5_ENSt8__detail10_Select1stESt8equal_toIiESt4hashIiENS7_18_Mod_range_hashingENS7_20_Default_ranged_hashENS7_20_Prime_rehash_policyENS7_17_Hashtable_traitsILb0ELb0ELb1EEEE8_M_beginEv
FN:454,_ZNSt10_HashtableIiSt4pairIKiPN14raptor_physics7vg_metaEESaIS5_ENSt8__detail10_Select1stESt8equal_toIiESt4hashIiENS7_18_Mod_range_hashingENS7_20_Default_ranged_hashENS7_20_Prime_rehash_policyENS7_17_Hashtable_traitsILb0ELb0ELb1EEEE5beginEv
FN:462,_ZNSt10_HashtableIiSt4pairIKiPN14raptor_physics7vg_metaEESaIS5_ENSt8__detail10_Select1stESt8equal_toIiESt4hashIiENS7_18_Mod_range_hashingENS7_20_Default_ranged_hashENS7_20_Prime_rehash_policyENS7_17_Hashtable_traitsILb0ELb0ELb1EEEE3endEv
FNDA:258,_ZNKSt10_HashtableIiSt4pairIKiPN14raptor_physics7vg_metaEESaIS5_ENSt8__detail10_Select1stESt8equal_toIiESt4hashIiENS7_18_Mod_range_hashingENS7_20_Default_ranged_hashENS7_20_Prime_rehash_policyENS7_17_Hashtable_traitsILb0ELb0ELb1EEEE15_M_before_beginEv
FNDA:258,_ZNKSt10_HashtableIiSt4pairIKiPN14raptor_physics7vg_metaEESaIS5_ENSt8__detail10_Select1stESt8equal_toIiESt4hashIiENS7_18_Mod_range_hashingENS7_20_Default_ranged_hashENS7_20_Prime_rehash_policyENS7_17_Hashtable_traitsILb0ELb0ELb1EEEE8_M_beginEv
FNDA:210,_ZNSt10_HashtableIiSt4pairIKiPN14raptor_physics7vg_metaEESaIS5_ENSt8__detail10_Select1stESt8equal_toIiESt4hashIiENS7_18_Mod_range_hashingENS7_20_Default_ranged_hashENS7_20_Prime_rehash_policyENS7_17_Hashtable_traitsILb0ELb0ELb1EEEE5beginEv
FNDA:1362,_ZNSt10_HashtableIiSt4pairIKiPN14raptor_physics7vg_metaEESaIS5_ENSt8__detail10_Select1stESt8equal_toIiESt4hashIiENS7_18_Mod_range_hashingENS7_20_Default_ranged_hashENS7_20_Prime_rehash_policyENS7_17_Hashtable_traitsILb0ELb0ELb1EEEE3endEv
FNF:4
FNH:4
DA:342,258
DA:343,258
DA:368,258
DA:369,258
DA:454,210
DA:455,210
DA:462,1362
DA:463,1362
LF:8
LH:8
end_of_record
SF:/usr/include/c++/4.8/bits/hashtable_policy.h
FN:198,_ZNKSt8__detail10_Hash_nodeISt4pairIKiPN14raptor_physics7vg_metaEELb0EE7_M_nextEv
FN:209,_ZNSt8__detail19_Node_iterator_baseISt4pairIKiPN14raptor_physics7vg_metaEELb0EEC2EPNS_10_Hash_nodeIS6_Lb0EEE
FN:213,_ZNSt8__detail19_Node_iterator_baseISt4pairIKiPN14raptor_physics7vg_metaEELb0EE7_M_incrEv
FN:225,_ZNSt8__detailneISt4pairIKiPN14raptor_physics7vg_metaEELb0EEEbRKNS_19_Node_iterator_baseIT_XT0_EEESB_
FN:253,_ZNSt8__detail14_Node_iteratorISt4pairIKiPN14raptor_physics7vg_metaEELb0ELb0EEC2EPNS_10_Hash_nodeIS6_Lb0EEE
FN:257,_ZNKSt8__detail14_Node_iteratorISt4pairIKiPN14raptor_physics7vg_metaEELb0ELb0EEdeEv
FN:265,_ZNSt8__detail14_Node_iteratorISt4pairIKiPN14raptor_physics7vg_metaEELb0ELb0EEppEv
FN:304,_ZNSt8__detail20_Node_const_iteratorISt4pairIKiPN14raptor_physics7vg_metaEELb0ELb0EEC2ERKNS_14_Node_iteratorIS6_Lb0ELb0EEE
FN:309,_ZNKSt8__detail20_Node_const_iteratorISt4pairIKiPN14raptor_physics7vg_metaEELb0ELb0EEdeEv
FN:317,_ZNSt8__detail20_Node_const_iteratorISt4pairIKiPN14raptor_physics7vg_metaEELb0ELb0EEppEv
FNDA:636,_ZNKSt8__detail10_Hash_nodeISt4pairIKiPN14raptor_physics7vg_metaEELb0EE7_M_nextEv
FNDA:2592,_ZNSt8__detail19_Node_iterator_baseISt4pairIKiPN14raptor_physics7vg_metaEELb0EEC2EPNS_10_Hash_nodeIS6_Lb0EEE
FNDA:450,_ZNSt8__detail19_Node_iterator_baseISt4pairIKiPN14raptor_physics7vg_metaEELb0EE7_M_incrEv
FNDA:684,_ZNSt8__detailneISt4pairIKiPN14raptor_physics7vg_metaEELb0EEEbRKNS_19_Node_iterator_baseIT_XT0_EEESB_
FNDA:2352,_ZNSt8__detail14_Node_iteratorISt4pairIKiPN14raptor_physics7vg_metaEELb0ELb0EEC2EPNS_10_Hash_nodeIS6_Lb0EEE
FNDA:180,_ZNKSt8__detail14_Node_iteratorISt4pairIKiPN14raptor_physics7vg_metaEELb0ELb0EEdeEv
FNDA:204,_ZNSt8__detail14_Node_iteratorISt4pairIKiPN14raptor_physics7vg_metaEELb0ELb0EEppEv
FNDA:240,_ZNSt8__detail20_Node_const_iteratorISt4pairIKiPN14raptor_physics7vg_metaEELb0ELb0EEC2ERKNS_14_Node_iteratorIS6_Lb0ELb0EEE
FNDA:492,_ZNKSt8__detail20_Node_const_iteratorISt4pairIKiPN14raptor_physics7vg_metaEELb0ELb0EEdeEv
FNDA:246,_ZNSt8__detail20_Node_const_iteratorISt4pairIKiPN14raptor_physics7vg_metaEELb0ELb0EEppEv
FNF:10
FNH:10
DA:198,636
DA:209,2592
DA:210,2592
DA:213,450
DA:214,450
DA:225,684
DA:227,684
DA:253,2352
DA:254,2352
DA:257,180
DA:258,180
DA:265,204
DA:267,204
DA:268,204
DA:304,240
DA:306,240
DA:309,492
DA:310,492
DA:317,246
DA:319,246
DA:320,246
LF:21
LH:21
end_of_record
SF:/usr/include/c++/4.8/bits/ios_base.h
FN:75,_ZStanSt13_Ios_FmtflagsS_
FN:119,_ZStorSt13_Ios_OpenmodeS_
FN:157,_ZStorSt12_Ios_IostateS_
FN:551,_ZNKSt8ios_base5flagsEv
FN:630,_ZNSt8ios_base9precisionEl
FN:644,_ZNKSt8ios_base5widthEv
FN:653,_ZNSt8ios_base5widthEl
FN:695,_ZNKSt8ios_base6getlocEv
FNDA:0,_ZStanSt13_Ios_FmtflagsS_
FNDA:96,_ZStorSt13_Ios_OpenmodeS_
FNDA:0,_ZStorSt12_Ios_IostateS_
FNDA:0,_ZNKSt8ios_base5flagsEv
FNDA:0,_ZNSt8ios_base9precisionEl
FNDA:17298,_ZNKSt8ios_base5widthEv
FNDA:17298,_ZNSt8ios_base5widthEl
FNDA:17298,_ZNKSt8ios_base6getlocEv
FNF:8
FNH:4
DA:75,0
DA:76,0
DA:119,96
DA:120,96
DA:157,0
DA:158,0
DA:551,0
DA:552,0
DA:630,0
DA:632,0
DA:633,0
DA:634,0
DA:644,17298
DA:645,17298
DA:653,17298
DA:655,17298
DA:656,17298
DA:657,17298
DA:695,17298
DA:696,17298
LF:20
LH:10
end_of_record
SF:/usr/include/c++/4.8/bits/locale_facets.h
FN:865,_ZNKSt5ctypeIcE5widenEc
FNDA:0,_ZNKSt5ctypeIcE5widenEc
FNF:1
FNH:0
DA:865,0
DA:867,0
DA:868,0
DA:869,0
DA:870,0
LF:5
LH:0
end_of_record
SF:/usr/include/c++/4.8/bits/move.h
FN:47,_ZSt11__addressofIN14raptor_physics18contact_graph_edgeEEPT_RS2_
FN:47,_ZSt11__addressofISt4pairIKPN14raptor_physics7vg_metaEPNS1_14collision_infoEEEPT_RS8_
FN:47,_ZSt11__addressofISt4pairIPN14raptor_physics7vg_metaESt6vectorINS1_18contact_graph_edgeESaIS5_EEEEPT_RS9_
FN:47,_ZSt11__addressofISt4pairIKPN14raptor_physics7vg_metaEPNS1_13tracking_infoIS2_EEEEPT_RS9_
FN:76,_ZSt7forwardISt17_Rb_tree_iteratorISt4pairIKPN14raptor_physics7vg_metaEPNS2_14collision_infoEEEEOT_RNSt16remove_referenceISA_E4typeE
FN:76,_ZSt7forwardIPN14raptor_physics13tracking_infoINS0_7vg_metaEEEEOT_RNSt16remove_referenceIS5_E4typeE
FN:76,_ZSt7forwardIbEOT_RNSt16remove_referenceIS0_E4typeE
FN:76,_ZSt7forwardISt14default_deleteIA_fEEOT_RNSt16remove_referenceIS3_E4typeE
FN:76,_ZSt7forwardISt5tupleIIEEEOT_RNSt16remove_referenceIS2_E4typeE
FN:76,_ZSt7forwardISt6vectorIN14raptor_physics18contact_graph_edgeESaIS2_EEEOT_RNSt16remove_referenceIS5_E4typeE
FN:76,_ZSt7forwardIPN14raptor_physics14collision_infoEEOT_RNSt16remove_referenceIS3_E4typeE
FN:76,_ZSt7forwardIRPSt13_Rb_tree_nodeISt4pairIKPN14raptor_physics7vg_metaEPNS2_14collision_infoEEEEOT_RNSt16remove_referenceISC_E4typeE
FN:76,_ZSt7forwardIRKPN14raptor_physics14collision_infoEEOT_RNSt16remove_referenceIS5_E4typeE
FN:76,_ZSt7forwardIN14raptor_physics18contact_graph_edgeEEOT_RNSt16remove_referenceIS2_E4typeE
FN:76,_ZSt7forwardISt17_Rb_tree_iteratorISt4pairIKPN14raptor_physics7vg_metaEPNS2_13tracking_infoIS3_EEEEEOT_RNSt16remove_referenceISB_E4typeE
FN:76,_ZSt7forwardIRPSt18_Rb_tree_node_baseEOT_RNSt16remove_referenceIS3_E4typeE
FN:76,_ZSt7forwardIRKiEOT_RNSt16remove_referenceIS2_E4typeE
FN:76,_ZSt7forwardIRKSt21piecewise_construct_tEOT_RNSt16remove_referenceIS3_E4typeE
FN:76,_ZSt7forwardIRKSt4pairIKPN14raptor_physics7vg_metaEPNS1_14collision_infoEEEOT_RNSt16remove_referenceISA_E4typeE
FN:76,_ZSt7forwardIRKSt4pairIKPN14raptor_physics7vg_metaEPNS1_13tracking_infoIS2_EEEEOT_RNSt16remove_referenceISB_E4typeE
FN:76,_ZSt7forwardIRPfEOT_RNSt16remove_referenceIS2_E4typeE
FN:76,_ZSt7forwardIRiEOT_RNSt16remove_referenceIS1_E4typeE
FN:76,_ZSt7forwardIRPN14raptor_physics7vg_metaEEOT_RNSt16remove_referenceIS4_E4typeE
FN:76,_ZSt7forwardIRKPN14raptor_physics7vg_metaEEOT_RNSt16remove_referenceIS5_E4typeE
FN:76,_ZSt7forwardISt5tupleIIRKPN14raptor_physics7vg_metaEEEEOT_RNSt16remove_referenceIS7_E4typeE
FN:76,_ZSt7forwardISt4pairIPN14raptor_physics7vg_metaESt6vectorINS1_18contact_graph_edgeESaIS5_EEEEOT_RNSt16remove_referenceIS9_E4typeE
FN:76,_ZSt7forwardIRPSt13_Rb_tree_nodeISt4pairIKPN14raptor_physics7vg_metaEPNS2_13tracking_infoIS3_EEEEEOT_RNSt16remove_referenceISD_E4typeE
FN:101,_ZSt4moveIRSt4pairIPN14raptor_physics7vg_metaESt6vectorINS1_18contact_graph_edgeESaIS5_EEEEONSt16remove_referenceIT_E4typeEOSB_
FN:101,_ZSt4moveIRSaISt13_Rb_tree_nodeISt4pairIKPN14raptor_physics7vg_metaEPNS2_14collision_infoEEEEEONSt16remove_referenceIT_E4typeEOSD_
FN:101,_ZSt4moveIRSaIN14raptor_physics18contact_graph_edgeEEEONSt16remove_referenceIT_E4typeEOS5_
FN:101,_ZSt4moveIRPN14raptor_physics18contact_graph_edgeEEONSt16remove_referenceIT_E4typeEOS5_
FN:101,_ZSt4moveIRSt6vectorIN14raptor_physics18contact_graph_edgeESaIS2_EEEONSt16remove_referenceIT_E4typeEOS7_
FN:101,_ZSt4moveIRP10force_infoEONSt16remove_referenceIT_E4typeEOS4_
FN:101,_ZSt4moveIRN14raptor_physics18contact_graph_edgeEEONSt16remove_referenceIT_E4typeEOS4_
FN:101,_ZSt4moveIRSt11_Tuple_implILm1EIEEEONSt16remove_referenceIT_E4typeEOS4_
FN:166,_ZSt4swapIPN14raptor_physics18contact_graph_edgeEEvRT_S4_
FNDA:0,_ZSt11__addressofIN14raptor_physics18contact_graph_edgeEEPT_RS2_
FNDA:0,_ZSt11__addressofISt4pairIPN14raptor_physics7vg_metaESt6vectorINS1_18contact_graph_edgeESaIS5_EEEEPT_RS9_
FNDA:168,_ZSt11__addressofISt4pairIKPN14raptor_physics7vg_metaEPNS1_14collision_infoEEEPT_RS8_
FNDA:174,_ZSt11__addressofISt4pairIKPN14raptor_physics7vg_metaEPNS1_13tracking_infoIS2_EEEEPT_RS9_
FNDA:0,_ZSt7forwardIN14raptor_physics18contact_graph_edgeEEOT_RNSt16remove_referenceIS2_E4typeE
FNDA:0,_ZSt7forwardIRiEOT_RNSt16remove_referenceIS1_E4typeE
FNDA:0,_ZSt7forwardIRKPN14raptor_physics14collision_infoEEOT_RNSt16remove_referenceIS5_E4typeE
FNDA:0,_ZSt7forwardISt4pairIPN14raptor_physics7vg_metaESt6vectorINS1_18contact_graph_edgeESaIS5_EEEEOT_RNSt16remove_referenceIS9_E4typeE
FNDA:96,_ZSt7forwardIRPSt13_Rb_tree_nodeISt4pairIKPN14raptor_physics7vg_metaEPNS2_14collision_infoEEEEOT_RNSt16remove_referenceISC_E4typeE
FNDA:0,_ZSt7forwardIRPSt18_Rb_tree_node_baseEOT_RNSt16remove_referenceIS3_E4typeE
FNDA:72,_ZSt7forwardIRPSt13_Rb_tree_nodeISt4pairIKPN14raptor_physics7vg_metaEPNS2_13tracking_infoIS3_EEEEEOT_RNSt16remove_referenceISD_E4typeE
FNDA:12,_ZSt7forwardISt17_Rb_tree_iteratorISt4pairIKPN14raptor_physics7vg_metaEPNS2_14collision_infoEEEEOT_RNSt16remove_referenceISA_E4typeE
FNDA:336,_ZSt7forwardIRKSt4pairIKPN14raptor_physics7vg_metaEPNS1_14collision_infoEEEOT_RNSt16remove_referenceISA_E4typeE
FNDA:0,_ZSt7forwardISt14default_deleteIA_fEEOT_RNSt16remove_referenceIS3_E4typeE
FNDA:0,_ZSt7forwardIRPfEOT_RNSt16remove_referenceIS2_E4typeE
FNDA:0,_ZSt7forwardISt6vectorIN14raptor_physics18contact_graph_edgeESaIS2_EEEOT_RNSt16remove_referenceIS5_E4typeE
FNDA:0,_ZSt7forwardIRKPN14raptor_physics7vg_metaEEOT_RNSt16remove_referenceIS5_E4typeE
FNDA:0,_ZSt7forwardISt5tupleIIEEEOT_RNSt16remove_referenceIS2_E4typeE
FNDA:0,_ZSt7forwardISt5tupleIIRKPN14raptor_physics7vg_metaEEEEOT_RNSt16remove_referenceIS7_E4typeE
FNDA:0,_ZSt7forwardIRKSt21piecewise_construct_tEOT_RNSt16remove_referenceIS3_E4typeE
FNDA:264,_ZSt7forwardIbEOT_RNSt16remove_referenceIS0_E4typeE
FNDA:36,_ZSt7forwardISt17_Rb_tree_iteratorISt4pairIKPN14raptor_physics7vg_metaEPNS2_13tracking_infoIS3_EEEEEOT_RNSt16remove_referenceISB_E4typeE
FNDA:252,_ZSt7forwardIRKSt4pairIKPN14raptor_physics7vg_metaEPNS1_13tracking_infoIS2_EEEEOT_RNSt16remove_referenceISB_E4typeE
FNDA:48,_ZSt7forwardIPN14raptor_physics14collision_infoEEOT_RNSt16remove_referenceIS3_E4typeE
FNDA:26112,_ZSt7forwardIRKiEOT_RNSt16remove_referenceIS2_E4typeE
FNDA:36,_ZSt7forwardIPN14raptor_physics13tracking_infoINS0_7vg_metaEEEEOT_RNSt16remove_referenceIS5_E4typeE
FNDA:300,_ZSt7forwardIRPN14raptor_physics7vg_metaEEOT_RNSt16remove_referenceIS4_E4typeE
FNDA:0,_ZSt4moveIRN14raptor_physics18contact_graph_edgeEEONSt16remove_referenceIT_E4typeEOS4_
FNDA:0,_ZSt4moveIRSt11_Tuple_implILm1EIEEEONSt16remove_referenceIT_E4typeEOS4_
FNDA:0,_ZSt4moveIRPN14raptor_physics18contact_graph_edgeEEONSt16remove_referenceIT_E4typeEOS5_
FNDA:0,_ZSt4moveIRSaIN14raptor_physics18contact_graph_edgeEEEONSt16remove_referenceIT_E4typeEOS5_
FNDA:36,_ZSt4moveIRSaISt13_Rb_tree_nodeISt4pairIKPN14raptor_physics7vg_metaEPNS2_14collision_infoEEEEEONSt16remove_referenceIT_E4typeEOSD_
FNDA:0,_ZSt4moveIRSt4pairIPN14raptor_physics7vg_metaESt6vectorINS1_18contact_graph_edgeESaIS5_EEEEONSt16remove_referenceIT_E4typeEOSB_
FNDA:0,_ZSt4moveIRSt6vectorIN14raptor_physics18contact_graph_edgeESaIS2_EEEONSt16remove_referenceIT_E4typeEOS7_
FNDA:24,_ZSt4moveIRP10force_infoEONSt16remove_referenceIT_E4typeEOS4_
FNDA:0,_ZSt4swapIPN14raptor_physics18contact_graph_edgeEEvRT_S4_
FNF:36
FNH:15
DA:47,342
DA:50,342
DA:76,27564
DA:77,27564
DA:101,60
DA:102,60
DA:166,0
DA:175,0
DA:176,0
DA:177,0
DA:178,0
LF:11
LH:6
end_of_record
SF:/usr/include/c++/4.8/bits/stl_algo.h
FN:147,_ZSt9__find_ifISt17_Rb_tree_iteratorISt4pairIKPN14raptor_physics7vg_metaEPNS2_13tracking_infoIS3_EEEENS2_14physics_engine12is_collisionEET_SD_SD_T0_St18input_iterator_tag
FN:147,_ZSt9__find_ifINSt8__detail14_Node_iteratorISt4pairIKiPN14raptor_physics7vg_metaEELb0ELb0EEEZNS4_14physics_engine12advance_timeEfEUlRKS2_IiS6_EE0_ET_SE_SE_T0_St18input_iterator_tag
FN:147,_ZSt9__find_ifINSt8__detail14_Node_iteratorISt4pairIKiPN14raptor_physics7vg_metaEELb0ELb0EEEZNS4_14physics_engine12advance_timeEfEUlRKS2_IiS6_EE_ET_SE_SE_T0_St18input_iterator_tag
FN:158,_ZSt6__findIN9__gnu_cxx17__normal_iteratorIPP10force_infoSt6vectorIS3_SaIS3_EEEEDnET_SA_SA_RKT0_St26random_access_iterator_tag
FN:158,_ZSt6__findIPiiET_S1_S1_RKT0_St26random_access_iterator_tag
FN:158,_ZSt6__findIN9__gnu_cxx17__normal_iteratorIPPN14raptor_physics7vg_metaESt6vectorIS4_SaIS4_EEEES4_ET_SA_SA_RKT0_St26random_access_iterator_tag
FN:206,_ZSt9__find_ifIN9__gnu_cxx17__normal_iteratorIPN14raptor_physics18contact_graph_edgeESt6vectorIS3_SaIS3_EEEEZNS2_13contact_graphINS2_7vg_metaEE9find_edgeEiiEUlRKS3_E_ET_SF_SF_T0_St26random_access_iterator_tag
FN:1091,_ZSt6removeIN9__gnu_cxx17__normal_iteratorIPP10force_infoSt6vectorIS3_SaIS3_EEEEDnET_SA_SA_RKT0_
FN:4432,_ZSt4findIN9__gnu_cxx17__normal_iteratorIPPN14raptor_physics7vg_metaESt6vectorIS4_SaIS4_EEEES4_ET_SA_SA_RKT0_
FN:4432,_ZSt4findIN9__gnu_cxx17__normal_iteratorIPP10force_infoSt6vectorIS3_SaIS3_EEEEDnET_SA_SA_RKT0_
FN:4432,_ZSt4findIPiiET_S1_S1_RKT0_
FN:4456,_ZSt7find_ifISt17_Rb_tree_iteratorISt4pairIKPN14raptor_physics7vg_metaEPNS2_13tracking_infoIS3_EEEENS2_14physics_engine12is_collisionEET_SD_SD_T0_
FN:4456,_ZSt7find_ifINSt8__detail14_Node_iteratorISt4pairIKiPN14raptor_physics7vg_metaEELb0ELb0EEEZNS4_14physics_engine12advance_timeEfEUlRKS2_IiS6_EE0_ET_SE_SE_T0_
FN:4456,_ZSt7find_ifINSt8__detail14_Node_iteratorISt4pairIKiPN14raptor_physics7vg_metaEELb0ELb0EEEZNS4_14physics_engine12advance_timeEfEUlRKS2_IiS6_EE_ET_SE_SE_T0_
FN:4456,_ZSt7find_ifIN9__gnu_cxx17__normal_iteratorIPN14raptor_physics18contact_graph_edgeESt6vectorIS3_SaIS3_EEEEZNS2_13contact_graphINS2_7vg_metaEE9find_edgeEiiEUlRKS3_E_ET_SF_SF_T0_
FNDA:0,_ZSt9__find_ifINSt8__detail14_Node_iteratorISt4pairIKiPN14raptor_physics7vg_metaEELb0ELb0EEEZNS4_14physics_engine12advance_timeEfEUlRKS2_IiS6_EE0_ET_SE_SE_T0_St18input_iterator_tag
FNDA:0,_ZSt9__find_ifINSt8__detail14_Node_iteratorISt4pairIKiPN14raptor_physics7vg_metaEELb0ELb0EEEZNS4_14physics_engine12advance_timeEfEUlRKS2_IiS6_EE_ET_SE_SE_T0_St18input_iterator_tag
FNDA:24,_ZSt9__find_ifISt17_Rb_tree_iteratorISt4pairIKPN14raptor_physics7vg_metaEPNS2_13tracking_infoIS3_EEEENS2_14physics_engine12is_collisionEET_SD_SD_T0_St18input_iterator_tag
FNDA:0,_ZSt6__findIN9__gnu_cxx17__normal_iteratorIPPN14raptor_physics7vg_metaESt6vectorIS4_SaIS4_EEEES4_ET_SA_SA_RKT0_St26random_access_iterator_tag
FNDA:24,_ZSt6__findIN9__gnu_cxx17__normal_iteratorIPP10force_infoSt6vectorIS3_SaIS3_EEEEDnET_SA_SA_RKT0_St26random_access_iterator_tag
FNDA:0,_ZSt6__findIPiiET_S1_S1_RKT0_St26random_access_iterator_tag
FNDA:0,_ZSt9__find_ifIN9__gnu_cxx17__normal_iteratorIPN14raptor_physics18contact_graph_edgeESt6vectorIS3_SaIS3_EEEEZNS2_13contact_graphINS2_7vg_metaEE9find_edgeEiiEUlRKS3_E_ET_SF_SF_T0_St26random_access_iterator_tag
FNDA:24,_ZSt6removeIN9__gnu_cxx17__normal_iteratorIPP10force_infoSt6vectorIS3_SaIS3_EEEEDnET_SA_SA_RKT0_
FNDA:0,_ZSt4findIN9__gnu_cxx17__normal_iteratorIPPN14raptor_physics7vg_metaESt6vectorIS4_SaIS4_EEEES4_ET_SA_SA_RKT0_
FNDA:24,_ZSt4findIN9__gnu_cxx17__normal_iteratorIPP10force_infoSt6vectorIS3_SaIS3_EEEEDnET_SA_SA_RKT0_
FNDA:0,_ZSt4findIPiiET_S1_S1_RKT0_
FNDA:0,_ZSt7find_ifIN9__gnu_cxx17__normal_iteratorIPN14raptor_physics18contact_graph_edgeESt6vectorIS3_SaIS3_EEEEZNS2_13contact_graphINS2_7vg_metaEE9find_edgeEiiEUlRKS3_E_ET_SF_SF_T0_
FNDA:0,_ZSt7find_ifINSt8__detail14_Node_iteratorISt4pairIKiPN14raptor_physics7vg_metaEELb0ELb0EEEZNS4_14physics_engine12advance_timeEfEUlRKS2_IiS6_EE0_ET_SE_SE_T0_
FNDA:0,_ZSt7find_ifINSt8__detail14_Node_iteratorISt4pairIKiPN14raptor_physics7vg_metaEELb0ELb0EEEZNS4_14physics_engine12advance_timeEfEUlRKS2_IiS6_EE_ET_SE_SE_T0_
FNDA:24,_ZSt7find_ifISt17_Rb_tree_iteratorISt4pairIKPN14raptor_physics7vg_metaEPNS2_13tracking_infoIS3_EEEENS2_14physics_engine12is_collisionEET_SD_SD_T0_
FNF:15
FNH:5
DA:147,24
DA:150,48
DA:151,0
DA:152,24
DA:158,24
DA:162,24
DA:164,24
DA:166,0
DA:167,0
DA:168,0
DA:170,0
DA:171,0
DA:172,0
DA:174,0
DA:175,0
DA:176,0
DA:178,0
DA:179,0
DA:180,0
DA:183,24
DA:186,0
DA:187,0
DA:188,0
DA:190,0
DA:191,0
DA:192,0
DA:194,24
DA:195,12
DA:196,12
DA:199,12
DA:206,0
DA:210,0
DA:212,0
DA:214,0
DA:215,0
DA:216,0
DA:218,0
DA:219,0
DA:220,0
DA:222,0
DA:223,0
DA:224,0
DA:226,0
DA:227,0
DA:228,0
DA:231,0
DA:234,0
DA:235,0
DA:236,0
DA:238,0
DA:239,0
DA:240,0
DA:242,0
DA:243,0
DA:244,0
DA:247,0
DA:1091,24
DA:1101,24
DA:1102,24
DA:1103,12
DA:1104,12
DA:1105,12
DA:1106,12
DA:1107,0
DA:1109,0
DA:1110,0
DA:1112,12
DA:4432,24
DA:4441,24
DA:4456,24
DA:4465,24
LF:71
LH:23
end_of_record
SF:/usr/include/c++/4.8/bits/stl_algobase.h
FN:193,_ZSt3minIfERKT_S2_S2_
FN:193,_ZSt3minIiERKT_S2_S2_
FN:216,_ZSt3maxImERKT_S2_S2_
FN:216,_ZSt3maxIiERKT_S2_S2_
FN:216,_ZSt3maxIfERKT_S2_S2_
FN:277,_ZSt12__niter_baseIN9__gnu_cxx17__normal_iteratorIPP10force_infoSt6vectorIS3_SaIS3_EEEEENSt11_Niter_baseIT_E13iterator_typeESA_
FN:277,_ZSt12__niter_baseIPPN14raptor_physics7vg_metaEENSt11_Niter_baseIT_E13iterator_typeES5_
FN:288,_ZSt12__miter_baseIN9__gnu_cxx17__normal_iteratorIPP10force_infoSt6vectorIS3_SaIS3_EEEEENSt11_Miter_baseIT_E13iterator_typeESA_
FN:288,_ZSt12__miter_baseISt13move_iteratorIPPN14raptor_physics7vg_metaEEENSt11_Miter_baseIT_E13iterator_typeES7_
FN:368,_ZNSt11__copy_moveILb1ELb1ESt26random_access_iterator_tagE8__copy_mIP10force_infoEEPT_PKS5_S8_S6_
FN:368,_ZNSt11__copy_moveILb1ELb1ESt26random_access_iterator_tagE8__copy_mIPN14raptor_physics7vg_metaEEEPT_PKS6_S9_S7_
FN:379,_ZSt13__copy_move_aILb1EPP10force_infoS2_ET1_T0_S4_S3_
FN:379,_ZSt13__copy_move_aILb1EPPN14raptor_physics7vg_metaES3_ET1_T0_S5_S4_
FN:424,_ZSt14__copy_move_a2ILb1EN9__gnu_cxx17__normal_iteratorIPP10force_infoSt6vectorIS3_SaIS3_EEEES8_ET1_T0_SA_S9_
FN:424,_ZSt14__copy_move_a2ILb1EPPN14raptor_physics7vg_metaES3_ET1_T0_S5_S4_
FN:450,_ZSt4copyISt13move_iteratorIPPN14raptor_physics7vg_metaEES4_ET0_T_S7_S6_
FN:483,_ZSt4moveIN9__gnu_cxx17__normal_iteratorIPP10force_infoSt6vectorIS3_SaIS3_EEEES8_ET0_T_SA_S9_
FNDA:48,_ZSt3minIiERKT_S2_S2_
FNDA:5616,_ZSt3minIfERKT_S2_S2_
FNDA:48,_ZSt3maxIiERKT_S2_S2_
FNDA:6138,_ZSt3maxImERKT_S2_S2_
FNDA:6726,_ZSt3maxIfERKT_S2_S2_
FNDA:0,_ZSt12__niter_baseIPPN14raptor_physics7vg_metaEENSt11_Niter_baseIT_E13iterator_typeES5_
FNDA:0,_ZSt12__niter_baseIN9__gnu_cxx17__normal_iteratorIPP10force_infoSt6vectorIS3_SaIS3_EEEEENSt11_Niter_baseIT_E13iterator_typeESA_
FNDA:0,_ZSt12__miter_baseISt13move_iteratorIPPN14raptor_physics7vg_metaEEENSt11_Miter_baseIT_E13iterator_typeES7_
FNDA:0,_ZSt12__miter_baseIN9__gnu_cxx17__normal_iteratorIPP10force_infoSt6vectorIS3_SaIS3_EEEEENSt11_Miter_baseIT_E13iterator_typeESA_
FNDA:0,_ZNSt11__copy_moveILb1ELb1ESt26random_access_iterator_tagE8__copy_mIPN14raptor_physics7vg_metaEEEPT_PKS6_S9_S7_
FNDA:24,_ZNSt11__copy_moveILb1ELb1ESt26random_access_iterator_tagE8__copy_mIP10force_infoEEPT_PKS5_S8_S6_
FNDA:0,_ZSt13__copy_move_aILb1EPPN14raptor_physics7vg_metaES3_ET1_T0_S5_S4_
FNDA:24,_ZSt13__copy_move_aILb1EPP10force_infoS2_ET1_T0_S4_S3_
FNDA:0,_ZSt14__copy_move_a2ILb1EPPN14raptor_physics7vg_metaES3_ET1_T0_S5_S4_
FNDA:0,_ZSt14__copy_move_a2ILb1EN9__gnu_cxx17__normal_iteratorIPP10force_infoSt6vectorIS3_SaIS3_EEEES8_ET1_T0_SA_S9_
FNDA:0,_ZSt4copyISt13move_iteratorIPPN14raptor_physics7vg_metaEES4_ET0_T_S7_S6_
FNDA:0,_ZSt4moveIN9__gnu_cxx17__normal_iteratorIPP10force_infoSt6vectorIS3_SaIS3_EEEES8_ET0_T_SA_S9_
FNF:17
FNH:7
DA:193,5664
DA:198,5664
DA:199,306
DA:200,5358
DA:216,12912
DA:221,12912
DA:222,2916
DA:223,9996
DA:277,0
DA:278,0
DA:288,0
DA:289,0
DA:368,24
DA:370,24
DA:371,24
DA:372,0
DA:373,24
DA:379,24
DA:387,24
DA:390,24
DA:424,0
DA:428,0
DA:450,0
DA:460,0
DA:483,0
DA:492,0
LF:26
LH:15
end_of_record
SF:/usr/include/c++/4.8/bits/stl_construct.h
FN:74,_ZSt10_ConstructIN14raptor_physics18contact_graph_edgeEIS1_EEvPT_DpOT0_
FN:74,_ZSt10_ConstructISt4pairIPN14raptor_physics7vg_metaESt6vectorINS1_18contact_graph_edgeESaIS5_EEEIS8_EEvPT_DpOT0_
FN:92,_ZSt8_DestroyISt4pairIPN14raptor_physics7vg_metaESt6vectorINS1_18contact_graph_edgeESaIS5_EEEEvPT_
FN:100,_ZNSt12_Destroy_auxILb0EE9__destroyIPSt4pairIPN14raptor_physics7vg_metaESt6vectorINS3_18contact_graph_edgeESaIS7_EEEEEvT_SC_
FN:112,_ZNSt12_Destroy_auxILb1EE9__destroyIPPN14raptor_physics7vg_metaEEEvT_S6_
FN:112,_ZNSt12_Destroy_auxILb1EE9__destroyIPN14raptor_physics18contact_graph_edgeEEEvT_S5_
FN:112,_ZNSt12_Destroy_auxILb1EE9__destroyIPP10force_infoEEvT_S5_
FN:122,_ZSt8_DestroyIPN14raptor_physics18contact_graph_edgeEEvT_S3_
FN:122,_ZSt8_DestroyIPPN14raptor_physics7vg_metaEEvT_S4_
FN:122,_ZSt8_DestroyIPSt4pairIPN14raptor_physics7vg_metaESt6vectorINS1_18contact_graph_edgeESaIS5_EEEEvT_SA_
FN:122,_ZSt8_DestroyIPP10force_infoEvT_S3_
FN:148,_ZSt8_DestroyIPN14raptor_physics18contact_graph_edgeES1_EvT_S3_RSaIT0_E
FN:148,_ZSt8_DestroyIPP10force_infoS1_EvT_S3_RSaIT0_E
FN:148,_ZSt8_DestroyIPPN14raptor_physics7vg_metaES2_EvT_S4_RSaIT0_E
FN:148,_ZSt8_DestroyIPSt4pairIPN14raptor_physics7vg_metaESt6vectorINS1_18contact_graph_edgeESaIS5_EEES8_EvT_SA_RSaIT0_E
FNDA:0,_ZSt10_ConstructIN14raptor_physics18contact_graph_edgeEIS1_EEvPT_DpOT0_
FNDA:0,_ZSt10_ConstructISt4pairIPN14raptor_physics7vg_metaESt6vectorINS1_18contact_graph_edgeESaIS5_EEEIS8_EEvPT_DpOT0_
FNDA:0,_ZSt8_DestroyISt4pairIPN14raptor_physics7vg_metaESt6vectorINS1_18contact_graph_edgeESaIS5_EEEEvPT_
FNDA:12,_ZNSt12_Destroy_auxILb0EE9__destroyIPSt4pairIPN14raptor_physics7vg_metaESt6vectorINS3_18contact_graph_edgeESaIS7_EEEEEvT_SC_
FNDA:0,_ZNSt12_Destroy_auxILb1EE9__destroyIPN14raptor_physics18contact_graph_edgeEEEvT_S5_
FNDA:132,_ZNSt12_Destroy_auxILb1EE9__destroyIPP10force_infoEEvT_S5_
FNDA:12,_ZNSt12_Destroy_auxILb1EE9__destroyIPPN14raptor_physics7vg_metaEEEvT_S6_
FNDA:0,_ZSt8_DestroyIPN14raptor_physics18contact_graph_edgeEEvT_S3_
FNDA:132,_ZSt8_DestroyIPP10force_infoEvT_S3_
FNDA:12,_ZSt8_DestroyIPSt4pairIPN14raptor_physics7vg_metaESt6vectorINS1_18contact_graph_edgeESaIS5_EEEEvT_SA_
FNDA:12,_ZSt8_DestroyIPPN14raptor_physics7vg_metaEEvT_S4_
FNDA:0,_ZSt8_DestroyIPN14raptor_physics18contact_graph_edgeES1_EvT_S3_RSaIT0_E
FNDA:132,_ZSt8_DestroyIPP10force_infoS1_EvT_S3_RSaIT0_E
FNDA:12,_ZSt8_DestroyIPSt4pairIPN14raptor_physics7vg_metaESt6vectorINS1_18contact_graph_edgeESaIS5_EEES8_EvT_SA_RSaIT0_E
FNDA:12,_ZSt8_DestroyIPPN14raptor_physics7vg_metaES2_EvT_S4_RSaIT0_E
FNF:15
FNH:9
DA:74,0
DA:75,0
DA:92,0
DA:93,0
DA:100,12
DA:102,12
DA:103,0
DA:104,12
DA:112,144
DA:122,156
DA:126,156
DA:128,156
DA:148,156
DA:151,156
DA:152,156
LF:15
LH:10
end_of_record
SF:/usr/include/c++/4.8/bits/stl_function.h
FN:234,_ZNKSt4lessIPN14raptor_physics7vg_metaEEclERKS2_S5_
FN:494,_ZNKSt10_Select1stISt4pairIKPN14raptor_physics7vg_metaEPNS1_13tracking_infoIS2_EEEEclERKS8_
FN:494,_ZNKSt10_Select1stISt4pairIKPN14raptor_physics7vg_metaEPNS1_14collision_infoEEEclERKS7_
FNDA:1254,_ZNKSt4lessIPN14raptor_physics7vg_metaEEclERKS2_S5_
FNDA:624,_ZNKSt10_Select1stISt4pairIKPN14raptor_physics7vg_metaEPNS1_14collision_infoEEEclERKS7_
FNDA:750,_ZNKSt10_Select1stISt4pairIKPN14raptor_physics7vg_metaEPNS1_13tracking_infoIS2_EEEEclERKS8_
FNF:3
FNH:3
DA:234,1254
DA:235,1254
DA:494,1374
DA:495,1374
LF:4
LH:4
end_of_record
SF:/usr/include/c++/4.8/bits/stl_iterator.h
FN:726,_ZN9__gnu_cxx17__normal_iteratorIPKSt4pairIPN14raptor_physics7vg_metaESt6vectorINS2_18contact_graph_edgeESaIS6_EEES5_IS9_SaIS9_EEEC2ERKSB_
FN:726,_ZN9__gnu_cxx17__normal_iteratorIPKN14raptor_physics18contact_graph_edgeESt6vectorIS2_SaIS2_EEEC2ERKS4_
FN:726,_ZN9__gnu_cxx17__normal_iteratorIPN14raptor_physics18contact_graph_edgeESt6vectorIS2_SaIS2_EEEC2ERKS3_
FN:726,_ZN9__gnu_cxx17__normal_iteratorIPKPN14raptor_physics7vg_metaESt6vectorIS3_SaIS3_EEEC2ERKS5_
FN:726,_ZN9__gnu_cxx17__normal_iteratorIPP10force_infoSt6vectorIS2_SaIS2_EEEC2ERKS3_
FN:726,_ZN9__gnu_cxx17__normal_iteratorIPPN14raptor_physics7vg_metaESt6vectorIS3_SaIS3_EEEC2ERKS4_
FN:726,_ZN9__gnu_cxx17__normal_iteratorIPSt4pairIPN14raptor_physics7vg_metaESt6vectorINS2_18contact_graph_edgeESaIS6_EEES5_IS9_SaIS9_EEEC2ERKSA_
FN:738,_ZNK9__gnu_cxx17__normal_iteratorIPP10force_infoSt6vectorIS2_SaIS2_EEEdeEv
FN:738,_ZNK9__gnu_cxx17__normal_iteratorIPKPN14raptor_physics7vg_metaESt6vectorIS3_SaIS3_EEEdeEv
FN:738,_ZNK9__gnu_cxx17__normal_iteratorIPPN14raptor_physics7vg_metaESt6vectorIS3_SaIS3_EEEdeEv
FN:738,_ZNK9__gnu_cxx17__normal_iteratorIPN14raptor_physics18contact_graph_edgeESt6vectorIS2_SaIS2_EEEdeEv
FN:738,_ZNK9__gnu_cxx17__normal_iteratorIPKSt4pairIPN14raptor_physics7vg_metaESt6vectorINS2_18contact_graph_edgeESaIS6_EEES5_IS9_SaIS9_EEEdeEv
FN:738,_ZNK9__gnu_cxx17__normal_iteratorIPKN14raptor_physics18contact_graph_edgeESt6vectorIS2_SaIS2_EEEdeEv
FN:738,_ZNK9__gnu_cxx17__normal_iteratorIPSt4pairIPN14raptor_physics7vg_metaESt6vectorINS2_18contact_graph_edgeESaIS6_EEES5_IS9_SaIS9_EEEdeEv
FN:742,_ZNK9__gnu_cxx17__normal_iteratorIPN14raptor_physics18contact_graph_edgeESt6vectorIS2_SaIS2_EEEptEv
FN:746,_ZN9__gnu_cxx17__normal_iteratorIPPN14raptor_physics7vg_metaESt6vectorIS3_SaIS3_EEEppEv
FN:746,_ZN9__gnu_cxx17__normal_iteratorIPKSt4pairIPN14raptor_physics7vg_metaESt6vectorINS2_18contact_graph_edgeESaIS6_EEES5_IS9_SaIS9_EEEppEv
FN:746,_ZN9__gnu_cxx17__normal_iteratorIPKN14raptor_physics18contact_graph_edgeESt6vectorIS2_SaIS2_EEEppEv
FN:746,_ZN9__gnu_cxx17__normal_iteratorIPKPN14raptor_physics7vg_metaESt6vectorIS3_SaIS3_EEEppEv
FN:746,_ZN9__gnu_cxx17__normal_iteratorIPP10force_infoSt6vectorIS2_SaIS2_EEEppEv
FN:746,_ZN9__gnu_cxx17__normal_iteratorIPSt4pairIPN14raptor_physics7vg_metaESt6vectorINS2_18contact_graph_edgeESaIS6_EEES5_IS9_SaIS9_EEEppEv
FN:746,_ZN9__gnu_cxx17__normal_iteratorIPN14raptor_physics18contact_graph_edgeESt6vectorIS2_SaIS2_EEEppEv
FN:790,_ZNK9__gnu_cxx17__normal_iteratorIPKN14raptor_physics18contact_graph_edgeESt6vectorIS2_SaIS2_EEE4baseEv
FN:790,_ZNK9__gnu_cxx17__normal_iteratorIPPN14raptor_physics7vg_metaESt6vectorIS3_SaIS3_EEE4baseEv
FN:790,_ZNK9__gnu_cxx17__normal_iteratorIPP10force_infoSt6vectorIS2_SaIS2_EEE4baseEv
FN:790,_ZNK9__gnu_cxx17__normal_iteratorIPKSt4pairIPN14raptor_physics7vg_metaESt6vectorINS2_18contact_graph_edgeESaIS6_EEES5_IS9_SaIS9_EEE4baseEv
FN:790,_ZNK9__gnu_cxx17__normal_iteratorIPKPN14raptor_physics7vg_metaESt6vectorIS3_SaIS3_EEE4baseEv
FN:790,_ZNK9__gnu_cxx17__normal_iteratorIPN14raptor_physics18contact_graph_edgeESt6vectorIS2_SaIS2_EEE4baseEv
FN:790,_ZNK9__gnu_cxx17__normal_iteratorIPSt4pairIPN14raptor_physics7vg_metaESt6vectorINS2_18contact_graph_edgeESaIS6_EEES5_IS9_SaIS9_EEE4baseEv
FN:811,_ZN9__gnu_cxxeqIPP10force_infoSt6vectorIS2_SaIS2_EEEEbRKNS_17__normal_iteratorIT_T0_EESC_
FN:811,_ZN9__gnu_cxxeqIPPN14raptor_physics7vg_metaESt6vectorIS3_SaIS3_EEEEbRKNS_17__normal_iteratorIT_T0_EESD_
FN:823,_ZN9__gnu_cxxneIPN14raptor_physics18contact_graph_edgeESt6vectorIS2_SaIS2_EEEEbRKNS_17__normal_iteratorIT_T0_EESC_
FN:823,_ZN9__gnu_cxxneIPSt4pairIPN14raptor_physics7vg_metaESt6vectorINS2_18contact_graph_edgeESaIS6_EEES5_IS9_SaIS9_EEEEbRKNS_17__normal_iteratorIT_T0_EESI_
FN:823,_ZN9__gnu_cxxneIPKPN14raptor_physics7vg_metaESt6vectorIS3_SaIS3_EEEEbRKNS_17__normal_iteratorIT_T0_EESE_
FN:823,_ZN9__gnu_cxxneIPKSt4pairIPN14raptor_physics7vg_metaESt6vectorINS2_18contact_graph_edgeESaIS6_EEES5_IS9_SaIS9_EEEEbRKNS_17__normal_iteratorIT_T0_EESJ_
FN:823,_ZN9__gnu_cxxneIPKN14raptor_physics18contact_graph_edgeESt6vectorIS2_SaIS2_EEEEbRKNS_17__normal_iteratorIT_T0_EESD_
FN:823,_ZN9__gnu_cxxneIPP10force_infoSt6vectorIS2_SaIS2_EEEEbRKNS_17__normal_iteratorIT_T0_EESC_
FN:896,_ZN9__gnu_cxxmiIPP10force_infoSt6vectorIS2_SaIS2_EEEENS_17__normal_iteratorIT_T0_E15difference_typeERKSA_SD_
FN:896,_ZN9__gnu_cxxmiIPN14raptor_physics18contact_graph_edgeESt6vectorIS2_SaIS2_EEEENS_17__normal_iteratorIT_T0_E15difference_typeERKSA_SD_
FN:896,_ZN9__gnu_cxxmiIPPN14raptor_physics7vg_metaESt6vectorIS3_SaIS3_EEEENS_17__normal_iteratorIT_T0_E15difference_typeERKSB_SE_
FN:950,_ZNSt13move_iteratorIPSt4pairIPN14raptor_physics7vg_metaESt6vectorINS1_18contact_graph_edgeESaIS5_EEEEC2ES9_
FN:950,_ZNSt13move_iteratorIPN14raptor_physics18contact_graph_edgeEEC2ES2_
FN:950,_ZNSt13move_iteratorIPPN14raptor_physics7vg_metaEEC2ES3_
FN:958,_ZNKSt13move_iteratorIPN14raptor_physics18contact_graph_edgeEE4baseEv
FN:958,_ZNKSt13move_iteratorIPSt4pairIPN14raptor_physics7vg_metaESt6vectorINS1_18contact_graph_edgeESaIS5_EEEE4baseEv
FN:958,_ZNKSt13move_iteratorIPPN14raptor_physics7vg_metaEE4baseEv
FN:962,_ZNKSt13move_iteratorIPN14raptor_physics18contact_graph_edgeEEdeEv
FN:962,_ZNKSt13move_iteratorIPSt4pairIPN14raptor_physics7vg_metaESt6vectorINS1_18contact_graph_edgeESaIS5_EEEEdeEv
FN:970,_ZNSt13move_iteratorIPSt4pairIPN14raptor_physics7vg_metaESt6vectorINS1_18contact_graph_edgeESaIS5_EEEEppEv
FN:970,_ZNSt13move_iteratorIPN14raptor_physics18contact_graph_edgeEEppEv
FN:1037,_ZSteqIPN14raptor_physics18contact_graph_edgeEEbRKSt13move_iteratorIT_ES7_
FN:1037,_ZSteqIPSt4pairIPN14raptor_physics7vg_metaESt6vectorINS1_18contact_graph_edgeESaIS5_EEEEbRKSt13move_iteratorIT_ESE_
FN:1049,_ZStneIPN14raptor_physics18contact_graph_edgeEEbRKSt13move_iteratorIT_ES7_
FN:1049,_ZStneIPSt4pairIPN14raptor_physics7vg_metaESt6vectorINS1_18contact_graph_edgeESaIS5_EEEEbRKSt13move_iteratorIT_ESE_
FN:1132,_ZSt32__make_move_if_noexcept_iteratorIPPN14raptor_physics7vg_metaESt13move_iteratorIS3_EET0_T_
FN:1132,_ZSt32__make_move_if_noexcept_iteratorIPN14raptor_physics18contact_graph_edgeESt13move_iteratorIS2_EET0_T_
FN:1132,_ZSt32__make_move_if_noexcept_iteratorIPSt4pairIPN14raptor_physics7vg_metaESt6vectorINS1_18contact_graph_edgeESaIS5_EEESt13move_iteratorIS9_EET0_T_
FNDA:0,_ZN9__gnu_cxx17__normal_iteratorIPPN14raptor_physics7vg_metaESt6vectorIS3_SaIS3_EEEC2ERKS4_
FNDA:0,_ZN9__gnu_cxx17__normal_iteratorIPKN14raptor_physics18contact_graph_edgeESt6vectorIS2_SaIS2_EEEC2ERKS4_
FNDA:0,_ZN9__gnu_cxx17__normal_iteratorIPKSt4pairIPN14raptor_physics7vg_metaESt6vectorINS2_18contact_graph_edgeESaIS6_EEES5_IS9_SaIS9_EEEC2ERKSB_
FNDA:0,_ZN9__gnu_cxx17__normal_iteratorIPKPN14raptor_physics7vg_metaESt6vectorIS3_SaIS3_EEEC2ERKS5_
FNDA:0,_ZN9__gnu_cxx17__normal_iteratorIPN14raptor_physics18contact_graph_edgeESt6vectorIS2_SaIS2_EEEC2ERKS3_
FNDA:0,_ZN9__gnu_cxx17__normal_iteratorIPSt4pairIPN14raptor_physics7vg_metaESt6vectorINS2_18contact_graph_edgeESaIS6_EEES5_IS9_SaIS9_EEEC2ERKSA_
FNDA:384,_ZN9__gnu_cxx17__normal_iteratorIPP10force_infoSt6vectorIS2_SaIS2_EEEC2ERKS3_
FNDA:0,_ZNK9__gnu_cxx17__normal_iteratorIPPN14raptor_physics7vg_metaESt6vectorIS3_SaIS3_EEEdeEv
FNDA:0,_ZNK9__gnu_cxx17__normal_iteratorIPKN14raptor_physics18contact_graph_edgeESt6vectorIS2_SaIS2_EEEdeEv
FNDA:0,_ZNK9__gnu_cxx17__normal_iteratorIPKSt4pairIPN14raptor_physics7vg_metaESt6vectorINS2_18contact_graph_edgeESaIS6_EEES5_IS9_SaIS9_EEEdeEv
FNDA:0,_ZNK9__gnu_cxx17__normal_iteratorIPKPN14raptor_physics7vg_metaESt6vectorIS3_SaIS3_EEEdeEv
FNDA:0,_ZNK9__gnu_cxx17__normal_iteratorIPN14raptor_physics18contact_graph_edgeESt6vectorIS2_SaIS2_EEEdeEv
FNDA:0,_ZNK9__gnu_cxx17__normal_iteratorIPSt4pairIPN14raptor_physics7vg_metaESt6vectorINS2_18contact_graph_edgeESaIS6_EEES5_IS9_SaIS9_EEEdeEv
FNDA:84,_ZNK9__gnu_cxx17__normal_iteratorIPP10force_infoSt6vectorIS2_SaIS2_EEEdeEv
FNDA:0,_ZNK9__gnu_cxx17__normal_iteratorIPN14raptor_physics18contact_graph_edgeESt6vectorIS2_SaIS2_EEEptEv
FNDA:0,_ZN9__gnu_cxx17__normal_iteratorIPPN14raptor_physics7vg_metaESt6vectorIS3_SaIS3_EEEppEv
FNDA:0,_ZN9__gnu_cxx17__normal_iteratorIPKN14raptor_physics18contact_graph_edgeESt6vectorIS2_SaIS2_EEEppEv
FNDA:0,_ZN9__gnu_cxx17__normal_iteratorIPKSt4pairIPN14raptor_physics7vg_metaESt6vectorINS2_18contact_graph_edgeESaIS6_EEES5_IS9_SaIS9_EEEppEv
FNDA:0,_ZN9__gnu_cxx17__normal_iteratorIPKPN14raptor_physics7vg_metaESt6vectorIS3_SaIS3_EEEppEv
FNDA:0,_ZN9__gnu_cxx17__normal_iteratorIPN14raptor_physics18contact_graph_edgeESt6vectorIS2_SaIS2_EEEppEv
FNDA:0,_ZN9__gnu_cxx17__normal_iteratorIPSt4pairIPN14raptor_physics7vg_metaESt6vectorINS2_18contact_graph_edgeESaIS6_EEES5_IS9_SaIS9_EEEppEv
FNDA:84,_ZN9__gnu_cxx17__normal_iteratorIPP10force_infoSt6vectorIS2_SaIS2_EEEppEv
FNDA:0,_ZNK9__gnu_cxx17__normal_iteratorIPPN14raptor_physics7vg_metaESt6vectorIS3_SaIS3_EEE4baseEv
FNDA:0,_ZNK9__gnu_cxx17__normal_iteratorIPKN14raptor_physics18contact_graph_edgeESt6vectorIS2_SaIS2_EEE4baseEv
FNDA:0,_ZNK9__gnu_cxx17__normal_iteratorIPKSt4pairIPN14raptor_physics7vg_metaESt6vectorINS2_18contact_graph_edgeESaIS6_EEES5_IS9_SaIS9_EEE4baseEv
FNDA:0,_ZNK9__gnu_cxx17__normal_iteratorIPKPN14raptor_physics7vg_metaESt6vectorIS3_SaIS3_EEE4baseEv
FNDA:0,_ZNK9__gnu_cxx17__normal_iteratorIPN14raptor_physics18contact_graph_edgeESt6vectorIS2_SaIS2_EEE4baseEv
FNDA:0,_ZNK9__gnu_cxx17__normal_iteratorIPSt4pairIPN14raptor_physics7vg_metaESt6vectorINS2_18contact_graph_edgeESaIS6_EEES5_IS9_SaIS9_EEE4baseEv
FNDA:684,_ZNK9__gnu_cxx17__normal_iteratorIPP10force_infoSt6vectorIS2_SaIS2_EEE4baseEv
FNDA:0,_ZN9__gnu_cxxeqIPPN14raptor_physics7vg_metaESt6vectorIS3_SaIS3_EEEEbRKNS_17__normal_iteratorIT_T0_EESD_
FNDA:24,_ZN9__gnu_cxxeqIPP10force_infoSt6vectorIS2_SaIS2_EEEEbRKNS_17__normal_iteratorIT_T0_EESC_
FNDA:0,_ZN9__gnu_cxxneIPKN14raptor_physics18contact_graph_edgeESt6vectorIS2_SaIS2_EEEEbRKNS_17__normal_iteratorIT_T0_EESD_
FNDA:0,_ZN9__gnu_cxxneIPKSt4pairIPN14raptor_physics7vg_metaESt6vectorINS2_18contact_graph_edgeESaIS6_EEES5_IS9_SaIS9_EEEEbRKNS_17__normal_iteratorIT_T0_EESJ_
FNDA:0,_ZN9__gnu_cxxneIPKPN14raptor_physics7vg_metaESt6vectorIS3_SaIS3_EEEEbRKNS_17__normal_iteratorIT_T0_EESE_
FNDA:0,_ZN9__gnu_cxxneIPN14raptor_physics18contact_graph_edgeESt6vectorIS2_SaIS2_EEEEbRKNS_17__normal_iteratorIT_T0_EESC_
FNDA:0,_ZN9__gnu_cxxneIPSt4pairIPN14raptor_physics7vg_metaESt6vectorINS2_18contact_graph_edgeESaIS6_EEES5_IS9_SaIS9_EEEEbRKNS_17__normal_iteratorIT_T0_EESI_
FNDA:252,_ZN9__gnu_cxxneIPP10force_infoSt6vectorIS2_SaIS2_EEEEbRKNS_17__normal_iteratorIT_T0_EESC_
FNDA:0,_ZN9__gnu_cxxmiIPN14raptor_physics18contact_graph_edgeESt6vectorIS2_SaIS2_EEEENS_17__normal_iteratorIT_T0_E15difference_typeERKSA_SD_
FNDA:0,_ZN9__gnu_cxxmiIPPN14raptor_physics7vg_metaESt6vectorIS3_SaIS3_EEEENS_17__normal_iteratorIT_T0_E15difference_typeERKSB_SE_
FNDA:60,_ZN9__gnu_cxxmiIPP10force_infoSt6vectorIS2_SaIS2_EEEENS_17__normal_iteratorIT_T0_E15difference_typeERKSA_SD_
FNDA:0,_ZNSt13move_iteratorIPN14raptor_physics18contact_graph_edgeEEC2ES2_
FNDA:0,_ZNSt13move_iteratorIPSt4pairIPN14raptor_physics7vg_metaESt6vectorINS1_18contact_graph_edgeESaIS5_EEEEC2ES9_
FNDA:0,_ZNSt13move_iteratorIPPN14raptor_physics7vg_metaEEC2ES3_
FNDA:0,_ZNKSt13move_iteratorIPN14raptor_physics18contact_graph_edgeEE4baseEv
FNDA:0,_ZNKSt13move_iteratorIPSt4pairIPN14raptor_physics7vg_metaESt6vectorINS1_18contact_graph_edgeESaIS5_EEEE4baseEv
FNDA:0,_ZNKSt13move_iteratorIPPN14raptor_physics7vg_metaEE4baseEv
FNDA:0,_ZNKSt13move_iteratorIPN14raptor_physics18contact_graph_edgeEEdeEv
FNDA:0,_ZNKSt13move_iteratorIPSt4pairIPN14raptor_physics7vg_metaESt6vectorINS1_18contact_graph_edgeESaIS5_EEEEdeEv
FNDA:0,_ZNSt13move_iteratorIPN14raptor_physics18contact_graph_edgeEEppEv
FNDA:0,_ZNSt13move_iteratorIPSt4pairIPN14raptor_physics7vg_metaESt6vectorINS1_18contact_graph_edgeESaIS5_EEEEppEv
FNDA:0,_ZSteqIPN14raptor_physics18contact_graph_edgeEEbRKSt13move_iteratorIT_ES7_
FNDA:0,_ZSteqIPSt4pairIPN14raptor_physics7vg_metaESt6vectorINS1_18contact_graph_edgeESaIS5_EEEEbRKSt13move_iteratorIT_ESE_
FNDA:0,_ZStneIPN14raptor_physics18contact_graph_edgeEEbRKSt13move_iteratorIT_ES7_
FNDA:0,_ZStneIPSt4pairIPN14raptor_physics7vg_metaESt6vectorINS1_18contact_graph_edgeESaIS5_EEEEbRKSt13move_iteratorIT_ESE_
FNDA:0,_ZSt32__make_move_if_noexcept_iteratorIPN14raptor_physics18contact_graph_edgeESt13move_iteratorIS2_EET0_T_
FNDA:0,_ZSt32__make_move_if_noexcept_iteratorIPSt4pairIPN14raptor_physics7vg_metaESt6vectorINS1_18contact_graph_edgeESaIS5_EEESt13move_iteratorIS9_EET0_T_
FNDA:0,_ZSt32__make_move_if_noexcept_iteratorIPPN14raptor_physics7vg_metaESt13move_iteratorIS3_EET0_T_
FNF:57
FNH:7
DA:726,384
DA:738,84
DA:739,84
DA:742,0
DA:743,0
DA:746,84
DA:748,84
DA:749,84
DA:790,684
DA:791,684
DA:811,24
DA:813,24
DA:823,252
DA:825,252
DA:896,60
DA:898,60
DA:950,0
DA:951,0
DA:958,0
DA:959,0
DA:962,0
DA:963,0
DA:970,0
DA:972,0
DA:973,0
DA:1037,0
DA:1039,0
DA:1049,0
DA:1051,0
DA:1132,0
DA:1133,0
LF:31
LH:14
end_of_record
SF:/usr/include/c++/4.8/bits/stl_iterator_base_funcs.h
FN:90,_ZSt10__distanceIPcENSt15iterator_traitsIT_E15difference_typeES2_S2_St26random_access_iterator_tag
FN:90,_ZSt10__distanceIN9__gnu_cxx17__normal_iteratorIPPN14raptor_physics7vg_metaESt6vectorIS4_SaIS4_EEEEENSt15iterator_traitsIT_E15difference_typeESB_SB_St26random_access_iterator_tag
FN:90,_ZSt10__distanceIPiENSt15iterator_traitsIT_E15difference_typeES2_S2_St26random_access_iterator_tag
FN:114,_ZSt8distanceIN9__gnu_cxx17__normal_iteratorIPPN14raptor_physics7vg_metaESt6vectorIS4_SaIS4_EEEEENSt15iterator_traitsIT_E15difference_typeESB_SB_
FN:114,_ZSt8distanceIPiENSt15iterator_traitsIT_E15difference_typeES2_S2_
FN:114,_ZSt8distanceIPcENSt15iterator_traitsIT_E15difference_typeES2_S2_
FNDA:0,_ZSt10__distanceIPcENSt15iterator_traitsIT_E15difference_typeES2_S2_St26random_access_iterator_tag
FNDA:0,_ZSt10__distanceIN9__gnu_cxx17__normal_iteratorIPPN14raptor_physics7vg_metaESt6vectorIS4_SaIS4_EEEEENSt15iterator_traitsIT_E15difference_typeESB_SB_St26random_access_iterator_tag
FNDA:0,_ZSt10__distanceIPiENSt15iterator_traitsIT_E15difference_typeES2_S2_St26random_access_iterator_tag
FNDA:0,_ZSt8distanceIPcENSt15iterator_traitsIT_E15difference_typeES2_S2_
FNDA:0,_ZSt8distanceIN9__gnu_cxx17__normal_iteratorIPPN14raptor_physics7vg_metaESt6vectorIS4_SaIS4_EEEEENSt15iterator_traitsIT_E15difference_typeESB_SB_
FNDA:0,_ZSt8distanceIPiENSt15iterator_traitsIT_E15difference_typeES2_S2_
FNF:6
FNH:0
DA:90,0
DA:96,0
DA:114,0
DA:118,0
LF:4
LH:0
end_of_record
SF:/usr/include/c++/4.8/bits/stl_iterator_base_types.h
FN:201,_ZSt19__iterator_categoryINSt8__detail14_Node_iteratorISt4pairIKiPN14raptor_physics7vg_metaEELb0ELb0EEEENSt15iterator_traitsIT_E17iterator_categoryERKSA_
FN:201,_ZSt19__iterator_categoryIN9__gnu_cxx17__normal_iteratorIPN14raptor_physics18contact_graph_edgeESt6vectorIS3_SaIS3_EEEEENSt15iterator_traitsIT_E17iterator_categoryERKSA_
FN:201,_ZSt19__iterator_categoryIPcENSt15iterator_traitsIT_E17iterator_categoryERKS2_
FN:201,_ZSt19__iterator_categoryIN9__gnu_cxx17__normal_iteratorIPPN14raptor_physics7vg_metaESt6vectorIS4_SaIS4_EEEEENSt15iterator_traitsIT_E17iterator_categoryERKSB_
FN:201,_ZSt19__iterator_categoryIPiENSt15iterator_traitsIT_E17iterator_categoryERKS2_
FN:201,_ZSt19__iterator_categoryIN9__gnu_cxx17__normal_iteratorIPP10force_infoSt6vectorIS3_SaIS3_EEEEENSt15iterator_traitsIT_E17iterator_categoryERKSA_
FN:201,_ZSt19__iterator_categoryISt17_Rb_tree_iteratorISt4pairIKPN14raptor_physics7vg_metaEPNS2_13tracking_infoIS3_EEEEENSt15iterator_traitsIT_E17iterator_categoryERKSC_
FN:212,_ZNSt10_Iter_baseIPPN14raptor_physics7vg_metaELb0EE7_S_baseES3_
FN:212,_ZNSt10_Iter_baseIN9__gnu_cxx17__normal_iteratorIPP10force_infoSt6vectorIS3_SaIS3_EEEELb0EE7_S_baseES8_
FN:220,_ZNSt10_Iter_baseISt13move_iteratorIPPN14raptor_physics7vg_metaEELb1EE7_S_baseES5_
FN:220,_ZNSt10_Iter_baseIN9__gnu_cxx17__normal_iteratorIPP10force_infoSt6vectorIS3_SaIS3_EEEELb1EE7_S_baseES8_
FNDA:0,_ZSt19__iterator_categoryIPcENSt15iterator_traitsIT_E17iterator_categoryERKS2_
FNDA:0,_ZSt19__iterator_categoryIN9__gnu_cxx17__normal_iteratorIPN14raptor_physics18contact_graph_edgeESt6vectorIS3_SaIS3_EEEEENSt15iterator_traitsIT_E17iterator_categoryERKSA_
FNDA:0,_ZSt19__iterator_categoryIN9__gnu_cxx17__normal_iteratorIPPN14raptor_physics7vg_metaESt6vectorIS4_SaIS4_EEEEENSt15iterator_traitsIT_E17iterator_categoryERKSB_
FNDA:24,_ZSt19__iterator_categoryIN9__gnu_cxx17__normal_iteratorIPP10force_infoSt6vectorIS3_SaIS3_EEEEENSt15iterator_traitsIT_E17iterator_categoryERKSA_
FNDA:0,_ZSt19__iterator_categoryINSt8__detail14_Node_iteratorISt4pairIKiPN14raptor_physics7vg_metaEELb0ELb0EEEENSt15iterator_traitsIT_E17iterator_categoryERKSA_
FNDA:24,_ZSt19__iterator_categoryISt17_Rb_tree_iteratorISt4pairIKPN14raptor_physics7vg_metaEPNS2_13tracking_infoIS3_EEEEENSt15iterator_traitsIT_E17iterator_categoryERKSC_
FNDA:0,_ZSt19__iterator_categoryIPiENSt15iterator_traitsIT_E17iterator_categoryERKS2_
FNDA:0,_ZNSt10_Iter_baseIPPN14raptor_physics7vg_metaELb0EE7_S_baseES3_
FNDA:0,_ZNSt10_Iter_baseIN9__gnu_cxx17__normal_iteratorIPP10force_infoSt6vectorIS3_SaIS3_EEEELb0EE7_S_baseES8_
FNDA:0,_ZNSt10_Iter_baseISt13move_iteratorIPPN14raptor_physics7vg_metaEELb1EE7_S_baseES5_
FNDA:0,_ZNSt10_Iter_baseIN9__gnu_cxx17__normal_iteratorIPP10force_infoSt6vectorIS3_SaIS3_EEEELb1EE7_S_baseES8_
FNF:11
FNH:2
DA:201,48
DA:202,48
DA:212,0
DA:213,0
DA:220,0
DA:221,0
LF:6
LH:2
end_of_record
SF:/usr/include/c++/4.8/bits/stl_map.h
FN:206,_ZNSt3mapIPN14raptor_physics7vg_metaEPNS0_14collision_infoESt4lessIS2_ESaISt4pairIKS2_S4_EEEC2ESt16initializer_listIS9_ERKS6_RKSA_
FN:320,_ZNSt3mapIPN14raptor_physics7vg_metaEPNS0_14collision_infoESt4lessIS2_ESaISt4pairIKS2_S4_EEE5beginEv
FN:320,_ZNSt3mapIPN14raptor_physics7vg_metaEPNS0_13tracking_infoIS1_EESt4lessIS2_ESaISt4pairIKS2_S5_EEE5beginEv
FN:338,_ZNSt3mapIPN14raptor_physics7vg_metaEPNS0_13tracking_infoIS1_EESt4lessIS2_ESaISt4pairIKS2_S5_EEE3endEv
FN:338,_ZNSt3mapIPN14raptor_physics7vg_metaEPNS0_14collision_infoESt4lessIS2_ESaISt4pairIKS2_S4_EEE3endEv
FN:393,_ZNKSt3mapIPN14raptor_physics7vg_metaEPNS0_14collision_infoESt4lessIS2_ESaISt4pairIKS2_S4_EEE6cbeginEv
FN:402,_ZNKSt3mapIPN14raptor_physics7vg_metaEPNS0_14collision_infoESt4lessIS2_ESaISt4pairIKS2_S4_EEE4cendEv
FN:456,_ZNSt3mapIPN14raptor_physics7vg_metaEPNS0_13tracking_infoIS1_EESt4lessIS2_ESaISt4pairIKS2_S5_EEEixERS9_
FN:594,_ZNSt3mapIPN14raptor_physics7vg_metaEPNS0_13tracking_infoIS1_EESt4lessIS2_ESaISt4pairIKS2_S5_EEE6insertERKSA_
FN:594,_ZNSt3mapIPN14raptor_physics7vg_metaEPNS0_14collision_infoESt4lessIS2_ESaISt4pairIKS2_S4_EEE6insertERKS9_
FN:797,_ZNKSt3mapIPN14raptor_physics7vg_metaEPNS0_13tracking_infoIS1_EESt4lessIS2_ESaISt4pairIKS2_S5_EEE8key_compEv
FN:821,_ZNSt3mapIPN14raptor_physics7vg_metaEPNS0_13tracking_infoIS1_EESt4lessIS2_ESaISt4pairIKS2_S5_EEE4findERS9_
FN:821,_ZNSt3mapIPN14raptor_physics7vg_metaEPNS0_14collision_infoESt4lessIS2_ESaISt4pairIKS2_S4_EEE4findERS8_
FN:863,_ZNSt3mapIPN14raptor_physics7vg_metaEPNS0_13tracking_infoIS1_EESt4lessIS2_ESaISt4pairIKS2_S5_EEE11lower_boundERS9_
FNDA:36,_ZNSt3mapIPN14raptor_physics7vg_metaEPNS0_14collision_infoESt4lessIS2_ESaISt4pairIKS2_S4_EEEC2ESt16initializer_listIS9_ERKS6_RKSA_
FNDA:60,_ZNSt3mapIPN14raptor_physics7vg_metaEPNS0_14collision_infoESt4lessIS2_ESaISt4pairIKS2_S4_EEE5beginEv
FNDA:120,_ZNSt3mapIPN14raptor_physics7vg_metaEPNS0_13tracking_infoIS1_EESt4lessIS2_ESaISt4pairIKS2_S5_EEE5beginEv
FNDA:306,_ZNSt3mapIPN14raptor_physics7vg_metaEPNS0_14collision_infoESt4lessIS2_ESaISt4pairIKS2_S4_EEE3endEv
FNDA:372,_ZNSt3mapIPN14raptor_physics7vg_metaEPNS0_13tracking_infoIS1_EESt4lessIS2_ESaISt4pairIKS2_S5_EEE3endEv
FNDA:0,_ZNKSt3mapIPN14raptor_physics7vg_metaEPNS0_14collision_infoESt4lessIS2_ESaISt4pairIKS2_S4_EEE6cbeginEv
FNDA:0,_ZNKSt3mapIPN14raptor_physics7vg_metaEPNS0_14collision_infoESt4lessIS2_ESaISt4pairIKS2_S4_EEE4cendEv
FNDA:0,_ZNSt3mapIPN14raptor_physics7vg_metaEPNS0_13tracking_infoIS1_EESt4lessIS2_ESaISt4pairIKS2_S5_EEEixERS9_
FNDA:12,_ZNSt3mapIPN14raptor_physics7vg_metaEPNS0_14collision_infoESt4lessIS2_ESaISt4pairIKS2_S4_EEE6insertERKS9_
FNDA:36,_ZNSt3mapIPN14raptor_physics7vg_metaEPNS0_13tracking_infoIS1_EESt4lessIS2_ESaISt4pairIKS2_S5_EEE6insertERKSA_
FNDA:0,_ZNKSt3mapIPN14raptor_physics7vg_metaEPNS0_13tracking_infoIS1_EESt4lessIS2_ESaISt4pairIKS2_S5_EEE8key_compEv
FNDA:246,_ZNSt3mapIPN14raptor_physics7vg_metaEPNS0_14collision_infoESt4lessIS2_ESaISt4pairIKS2_S4_EEE4findERS8_
FNDA:228,_ZNSt3mapIPN14raptor_physics7vg_metaEPNS0_13tracking_infoIS1_EESt4lessIS2_ESaISt4pairIKS2_S5_EEE4findERS9_
FNDA:0,_ZNSt3mapIPN14raptor_physics7vg_metaEPNS0_13tracking_infoIS1_EESt4lessIS2_ESaISt4pairIKS2_S5_EEE11lower_boundERS9_
FNF:14
FNH:9
DA:206,36
DA:209,36
DA:210,36
DA:320,180
DA:321,180
DA:338,678
DA:339,678
DA:393,0
DA:394,0
DA:402,0
DA:403,0
DA:456,0
DA:461,0
DA:463,0
DA:465,0
DA:471,0
DA:594,48
DA:595,48
DA:797,0
DA:798,0
DA:821,474
DA:822,474
DA:863,0
DA:864,0
LF:24
LH:11
end_of_record
SF:/usr/include/c++/4.8/bits/stl_numeric.h
FN:146,_ZSt10accumulateIPiPSt18basic_stringstreamIcSt11char_traitsIcESaIcEEZN14raptor_physics15array_to_streamIS0_ZNKS7_10lcp_solver4dumpEvEUlS6_iE_PKcEESsT_SD_RKT0_T1_EUlS6_iE_ESE_SD_SD_SE_SH_
FN:146,_ZSt10accumulateIPfPSt18basic_stringstreamIcSt11char_traitsIcESaIcEEZN14raptor_physics15array_to_streamIS0_ZNS7_10lcp_solver5solveES0_EUlS6_iE_PKcEESsT_SD_RKT0_T1_EUlS6_fE_ESE_SD_SD_SE_SH_
FNDA:0,_ZSt10accumulateIPiPSt18basic_stringstreamIcSt11char_traitsIcESaIcEEZN14raptor_physics15array_to_streamIS0_ZNKS7_10lcp_solver4dumpEvEUlS6_iE_PKcEESsT_SD_RKT0_T1_EUlS6_iE_ESE_SD_SD_SE_SH_
FNDA:0,_ZSt10accumulateIPfPSt18basic_stringstreamIcSt11char_traitsIcESaIcEEZN14raptor_physics15array_to_streamIS0_ZNS7_10lcp_solver5solveES0_EUlS6_iE_PKcEESsT_SD_RKT0_T1_EUlS6_fE_ESE_SD_SD_SE_SH_
FNF:2
FNH:0
DA:146,0
DA:153,0
DA:154,0
DA:155,0
LF:4
LH:0
end_of_record
SF:/usr/include/c++/4.8/bits/stl_pair.h
FN:96,_ZNSt4pairIPN14raptor_physics7vg_metaESt6vectorINS0_18contact_graph_edgeESaIS4_EEED2Ev
FN:124,_ZNSt4pairIPN14raptor_physics7vg_metaEPNS0_13tracking_infoIS1_EEEC2IKS2_S5_vEERKS_IT_T0_E
FN:124,_ZNSt4pairIiPN14raptor_physics7vg_metaEEC2IKiS2_vEERKS_IT_T0_E
FN:128,_ZNSt4pairIPN14raptor_physics7vg_metaESt6vectorINS0_18contact_graph_edgeESaIS4_EEEC2EOS7_
FN:133,_ZNSt4pairIPSt18_Rb_tree_node_baseS1_EC2IRS1_vEEOT_RKS1_
FN:138,_ZNSt4pairIPSt18_Rb_tree_node_baseS1_EC2IRS1_vEERKS1_OT_
FN:138,_ZNSt4pairIPN14raptor_physics7vg_metaESt6vectorINS0_18contact_graph_edgeESaIS4_EEEC2IS6_vEERKS2_OT_
FN:144,_ZNSt4pairISt17_Rb_tree_iteratorIS_IKPN14raptor_physics7vg_metaEPNS1_13tracking_infoIS2_EEEEbEC2IS9_bvEEOT_OT0_
FN:144,_ZNSt4pairIPSt18_Rb_tree_node_baseS1_EC2IRPSt13_Rb_tree_nodeIS_IKPN14raptor_physics7vg_metaEPNS5_14collision_infoEEESE_vEEOT_OT0_
FN:144,_ZNSt4pairIPSt18_Rb_tree_node_baseS1_EC2IRS1_S4_vEEOT_OT0_
FN:144,_ZNSt4pairIKPN14raptor_physics7vg_metaEPNS0_13tracking_infoIS1_EEEC1IRS2_S6_vEEOT_OT0_
FN:144,_ZNSt4pairISt17_Rb_tree_iteratorIS_IKPN14raptor_physics7vg_metaEPNS1_14collision_infoEEEbEC2IS8_bvEEOT_OT0_
FN:144,_ZNSt4pairIKPN14raptor_physics7vg_metaEPNS0_14collision_infoEEC2IRS2_S5_vEEOT_OT0_
FN:144,_ZNSt4pairIPSt18_Rb_tree_node_baseS1_EC2IRPSt13_Rb_tree_nodeIS_IKPN14raptor_physics7vg_metaEPNS5_13tracking_infoIS6_EEEESF_vEEOT_OT0_
FN:276,_ZSt9make_pairIRKPN14raptor_physics7vg_metaESt6vectorINS0_18contact_graph_edgeESaIS6_EEESt4pairINSt17__decay_and_stripIT_E6__typeENSA_IT0_E6__typeEEOSB_OSE_
FNDA:0,_ZNSt4pairIPN14raptor_physics7vg_metaESt6vectorINS0_18contact_graph_edgeESaIS4_EEED2Ev
FNDA:0,_ZNSt4pairIiPN14raptor_physics7vg_metaEEC2IKiS2_vEERKS_IT_T0_E
FNDA:0,_ZNSt4pairIPN14raptor_physics7vg_metaEPNS0_13tracking_infoIS1_EEEC2IKS2_S5_vEERKS_IT_T0_E
FNDA:0,_ZNSt4pairIPN14raptor_physics7vg_metaESt6vectorINS0_18contact_graph_edgeESaIS4_EEEC2EOS7_
FNDA:0,_ZNSt4pairIPSt18_Rb_tree_node_baseS1_EC2IRS1_vEEOT_RKS1_
FNDA:0,_ZNSt4pairIPSt18_Rb_tree_node_baseS1_EC2IRS1_vEERKS1_OT_
FNDA:0,_ZNSt4pairIPN14raptor_physics7vg_metaESt6vectorINS0_18contact_graph_edgeESaIS4_EEEC2IS6_vEERKS2_OT_
FNDA:48,_ZNSt4pairIPSt18_Rb_tree_node_baseS1_EC2IRPSt13_Rb_tree_nodeIS_IKPN14raptor_physics7vg_metaEPNS5_14collision_infoEEESE_vEEOT_OT0_
FNDA:0,_ZNSt4pairIPSt18_Rb_tree_node_baseS1_EC2IRS1_S4_vEEOT_OT0_
FNDA:36,_ZNSt4pairIPSt18_Rb_tree_node_baseS1_EC2IRPSt13_Rb_tree_nodeIS_IKPN14raptor_physics7vg_metaEPNS5_13tracking_infoIS6_EEEESF_vEEOT_OT0_
FNDA:12,_ZNSt4pairISt17_Rb_tree_iteratorIS_IKPN14raptor_physics7vg_metaEPNS1_14collision_infoEEEbEC2IS8_bvEEOT_OT0_
FNDA:36,_ZNSt4pairISt17_Rb_tree_iteratorIS_IKPN14raptor_physics7vg_metaEPNS1_13tracking_infoIS2_EEEEbEC2IS9_bvEEOT_OT0_
FNDA:48,_ZNSt4pairIKPN14raptor_physics7vg_metaEPNS0_14collision_infoEEC2IRS2_S5_vEEOT_OT0_
FNDA:36,_ZNSt4pairIKPN14raptor_physics7vg_metaEPNS0_13tracking_infoIS1_EEEC1IRS2_S6_vEEOT_OT0_
FNDA:0,_ZSt9make_pairIRKPN14raptor_physics7vg_metaESt6vectorINS0_18contact_graph_edgeESaIS6_EEESt4pairINSt17__decay_and_stripIT_E6__typeENSA_IT0_E6__typeEEOSB_OSE_
FNF:15
FNH:6
DA:96,0
DA:124,0
DA:125,0
DA:128,0
DA:133,0
DA:134,0
DA:138,0
DA:139,0
DA:144,216
DA:145,216
DA:276,0
DA:281,0
LF:12
LH:2
end_of_record
SF:/usr/include/c++/4.8/bits/stl_tree.h
FN:138,_ZNSt13_Rb_tree_nodeISt4pairIKPN14raptor_physics7vg_metaEPNS1_13tracking_infoIS2_EEEEC2IIRKSt21piecewise_construct_tSt5tupleIIRS4_EESE_IIEEEEEDpOT_
FN:138,_ZNSt13_Rb_tree_nodeISt4pairIKPN14raptor_physics7vg_metaEPNS1_13tracking_infoIS2_EEEEC2IIRKS8_EEEDpOT_
FN:138,_ZNSt13_Rb_tree_nodeISt4pairIKPN14raptor_physics7vg_metaEPNS1_14collision_infoEEEC2IIRKS7_EEEDpOT_
FN:174,_ZNSt17_Rb_tree_iteratorISt4pairIKPN14raptor_physics7vg_metaEPNS1_13tracking_infoIS2_EEEEC2EPSt13_Rb_tree_nodeIS8_E
FN:174,_ZNSt17_Rb_tree_iteratorISt4pairIKPN14raptor_physics7vg_metaEPNS1_14collision_infoEEEC2EPSt13_Rb_tree_nodeIS7_E
FN:178,_ZNKSt17_Rb_tree_iteratorISt4pairIKPN14raptor_physics7vg_metaEPNS1_13tracking_infoIS2_EEEEdeEv
FN:178,_ZNKSt17_Rb_tree_iteratorISt4pairIKPN14raptor_physics7vg_metaEPNS1_14collision_infoEEEdeEv
FN:182,_ZNKSt17_Rb_tree_iteratorISt4pairIKPN14raptor_physics7vg_metaEPNS1_13tracking_infoIS2_EEEEptEv
FN:182,_ZNKSt17_Rb_tree_iteratorISt4pairIKPN14raptor_physics7vg_metaEPNS1_14collision_infoEEEptEv
FN:187,_ZNSt17_Rb_tree_iteratorISt4pairIKPN14raptor_physics7vg_metaEPNS1_13tracking_infoIS2_EEEEppEv
FN:187,_ZNSt17_Rb_tree_iteratorISt4pairIKPN14raptor_physics7vg_metaEPNS1_14collision_infoEEEppEv
FN:202,_ZNSt17_Rb_tree_iteratorISt4pairIKPN14raptor_physics7vg_metaEPNS1_13tracking_infoIS2_EEEEmmEv
FN:202,_ZNSt17_Rb_tree_iteratorISt4pairIKPN14raptor_physics7vg_metaEPNS1_14collision_infoEEEmmEv
FN:217,_ZNKSt17_Rb_tree_iteratorISt4pairIKPN14raptor_physics7vg_metaEPNS1_14collision_infoEEEeqERKS8_
FN:217,_ZNKSt17_Rb_tree_iteratorISt4pairIKPN14raptor_physics7vg_metaEPNS1_13tracking_infoIS2_EEEEeqERKS9_
FN:221,_ZNKSt17_Rb_tree_iteratorISt4pairIKPN14raptor_physics7vg_metaEPNS1_14collision_infoEEEneERKS8_
FN:221,_ZNKSt17_Rb_tree_iteratorISt4pairIKPN14raptor_physics7vg_metaEPNS1_13tracking_infoIS2_EEEEneERKS9_
FN:247,_ZNSt23_Rb_tree_const_iteratorISt4pairIKPN14raptor_physics7vg_metaEPNS1_14collision_infoEEEC2EPKSt13_Rb_tree_nodeIS7_E
FN:250,_ZNSt23_Rb_tree_const_iteratorISt4pairIKPN14raptor_physics7vg_metaEPNS1_13tracking_infoIS2_EEEEC2ERKSt17_Rb_tree_iteratorIS8_E
FN:250,_ZNSt23_Rb_tree_const_iteratorISt4pairIKPN14raptor_physics7vg_metaEPNS1_14collision_infoEEEC2ERKSt17_Rb_tree_iteratorIS7_E
FN:254,_ZNKSt23_Rb_tree_const_iteratorISt4pairIKPN14raptor_physics7vg_metaEPNS1_13tracking_infoIS2_EEEE13_M_const_castEv
FN:254,_ZNKSt23_Rb_tree_const_iteratorISt4pairIKPN14raptor_physics7vg_metaEPNS1_14collision_infoEEE13_M_const_castEv
FN:259,_ZNKSt23_Rb_tree_const_iteratorISt4pairIKPN14raptor_physics7vg_metaEPNS1_14collision_infoEEEdeEv
FN:268,_ZNSt23_Rb_tree_const_iteratorISt4pairIKPN14raptor_physics7vg_metaEPNS1_14collision_infoEEEppEv
FN:302,_ZNKSt23_Rb_tree_const_iteratorISt4pairIKPN14raptor_physics7vg_metaEPNS1_14collision_infoEEEneERKS8_
FN:356,_ZNSt8_Rb_treeIPN14raptor_physics7vg_metaESt4pairIKS2_PNS0_14collision_infoEESt10_Select1stIS7_ESt4lessIS2_ESaIS7_EE21_M_get_Node_allocatorEv
FN:356,_ZNSt8_Rb_treeIPN14raptor_physics7vg_metaESt4pairIKS2_PNS0_13tracking_infoIS1_EEESt10_Select1stIS8_ESt4lessIS2_ESaIS8_EE21_M_get_Node_allocatorEv
FN:369,_ZNSt8_Rb_treeIPN14raptor_physics7vg_metaESt4pairIKS2_PNS0_14collision_infoEESt10_Select1stIS7_ESt4lessIS2_ESaIS7_EE11_M_get_nodeEv
FN:369,_ZNSt8_Rb_treeIPN14raptor_physics7vg_metaESt4pairIKS2_PNS0_13tracking_infoIS1_EEESt10_Select1stIS8_ESt4lessIS2_ESaIS8_EE11_M_get_nodeEv
FN:373,_ZNSt8_Rb_treeIPN14raptor_physics7vg_metaESt4pairIKS2_PNS0_14collision_infoEESt10_Select1stIS7_ESt4lessIS2_ESaIS7_EE11_M_put_nodeEPSt13_Rb_tree_nodeIS7_E
FN:373,_ZNSt8_Rb_treeIPN14raptor_physics7vg_metaESt4pairIKS2_PNS0_13tracking_infoIS1_EEESt10_Select1stIS8_ESt4lessIS2_ESaIS8_EE11_M_put_nodeEPSt13_Rb_tree_nodeIS8_E
FN:401,_ZNSt8_Rb_treeIPN14raptor_physics7vg_metaESt4pairIKS2_PNS0_14collision_infoEESt10_Select1stIS7_ESt4lessIS2_ESaIS7_EE14_M_create_nodeIIRKS7_EEEPSt13_Rb_tree_nodeIS7_EDpOT_
FN:401,_ZNSt8_Rb_treeIPN14raptor_physics7vg_metaESt4pairIKS2_PNS0_13tracking_infoIS1_EEESt10_Select1stIS8_ESt4lessIS2_ESaIS8_EE14_M_create_nodeIIRKS8_EEEPSt13_Rb_tree_nodeIS8_EDpOT_
FN:401,_ZNSt8_Rb_treeIPN14raptor_physics7vg_metaESt4pairIKS2_PNS0_13tracking_infoIS1_EEESt10_Select1stIS8_ESt4lessIS2_ESaIS8_EE14_M_create_nodeIIRKSt21piecewise_construct_tSt5tupleIIRS4_EESJ_IIEEEEEPSt13_Rb_tree_nodeIS8_EDpOT_
FN:419,_ZNSt8_Rb_treeIPN14raptor_physics7vg_metaESt4pairIKS2_PNS0_13tracking_infoIS1_EEESt10_Select1stIS8_ESt4lessIS2_ESaIS8_EE15_M_destroy_nodeEPSt13_Rb_tree_nodeIS8_E
FN:419,_ZNSt8_Rb_treeIPN14raptor_physics7vg_metaESt4pairIKS2_PNS0_14collision_infoEESt10_Select1stIS7_ESt4lessIS2_ESaIS7_EE15_M_destroy_nodeEPSt13_Rb_tree_nodeIS7_E
FN:439,_ZNSt8_Rb_treeIPN14raptor_physics7vg_metaESt4pairIKS2_PNS0_14collision_infoEESt10_Select1stIS7_ESt4lessIS2_ESaIS7_EE13_Rb_tree_implISB_Lb1EED2Ev
FN:456,_ZNSt8_Rb_treeIPN14raptor_physics7vg_metaESt4pairIKS2_PNS0_14collision_infoEESt10_Select1stIS7_ESt4lessIS2_ESaIS7_EE13_Rb_tree_implISB_Lb1EEC2ERKSB_OSaISt13_Rb_tree_nodeIS7_EE
FN:464,_ZNSt8_Rb_treeIPN14raptor_physics7vg_metaESt4pairIKS2_PNS0_14collision_infoEESt10_Select1stIS7_ESt4lessIS2_ESaIS7_EE13_Rb_tree_implISB_Lb1EE13_M_initializeEv
FN:485,_ZNSt8_Rb_treeIPN14raptor_physics7vg_metaESt4pairIKS2_PNS0_13tracking_infoIS1_EEESt10_Select1stIS8_ESt4lessIS2_ESaIS8_EE11_M_leftmostEv
FN:485,_ZNSt8_Rb_treeIPN14raptor_physics7vg_metaESt4pairIKS2_PNS0_14collision_infoEESt10_Select1stIS7_ESt4lessIS2_ESaIS7_EE11_M_leftmostEv
FN:493,_ZNSt8_Rb_treeIPN14raptor_physics7vg_metaESt4pairIKS2_PNS0_14collision_infoEESt10_Select1stIS7_ESt4lessIS2_ESaIS7_EE12_M_rightmostEv
FN:493,_ZNSt8_Rb_treeIPN14raptor_physics7vg_metaESt4pairIKS2_PNS0_13tracking_infoIS1_EEESt10_Select1stIS8_ESt4lessIS2_ESaIS8_EE12_M_rightmostEv
FN:501,_ZNSt8_Rb_treeIPN14raptor_physics7vg_metaESt4pairIKS2_PNS0_14collision_infoEESt10_Select1stIS7_ESt4lessIS2_ESaIS7_EE8_M_beginEv
FN:501,_ZNSt8_Rb_treeIPN14raptor_physics7vg_metaESt4pairIKS2_PNS0_13tracking_infoIS1_EEESt10_Select1stIS8_ESt4lessIS2_ESaIS8_EE8_M_beginEv
FN:512,_ZNSt8_Rb_treeIPN14raptor_physics7vg_metaESt4pairIKS2_PNS0_13tracking_infoIS1_EEESt10_Select1stIS8_ESt4lessIS2_ESaIS8_EE6_M_endEv
FN:512,_ZNSt8_Rb_treeIPN14raptor_physics7vg_metaESt4pairIKS2_PNS0_14collision_infoEESt10_Select1stIS7_ESt4lessIS2_ESaIS7_EE6_M_endEv
FN:520,_ZNSt8_Rb_treeIPN14raptor_physics7vg_metaESt4pairIKS2_PNS0_13tracking_infoIS1_EEESt10_Select1stIS8_ESt4lessIS2_ESaIS8_EE8_S_valueEPKSt13_Rb_tree_nodeIS8_E
FN:520,_ZNSt8_Rb_treeIPN14raptor_physics7vg_metaESt4pairIKS2_PNS0_14collision_infoEESt10_Select1stIS7_ESt4lessIS2_ESaIS7_EE8_S_valueEPKSt13_Rb_tree_nodeIS7_E
FN:524,_ZNSt8_Rb_treeIPN14raptor_physics7vg_metaESt4pairIKS2_PNS0_13tracking_infoIS1_EEESt10_Select1stIS8_ESt4lessIS2_ESaIS8_EE6_S_keyEPKSt13_Rb_tree_nodeIS8_E
FN:524,_ZNSt8_Rb_treeIPN14raptor_physics7vg_metaESt4pairIKS2_PNS0_14collision_infoEESt10_Select1stIS7_ESt4lessIS2_ESaIS7_EE6_S_keyEPKSt13_Rb_tree_nodeIS7_E
FN:528,_ZNSt8_Rb_treeIPN14raptor_physics7vg_metaESt4pairIKS2_PNS0_13tracking_infoIS1_EEESt10_Select1stIS8_ESt4lessIS2_ESaIS8_EE7_S_leftEPSt18_Rb_tree_node_base
FN:528,_ZNSt8_Rb_treeIPN14raptor_physics7vg_metaESt4pairIKS2_PNS0_14collision_infoEESt10_Select1stIS7_ESt4lessIS2_ESaIS7_EE7_S_leftEPSt18_Rb_tree_node_base
FN:536,_ZNSt8_Rb_treeIPN14raptor_physics7vg_metaESt4pairIKS2_PNS0_14collision_infoEESt10_Select1stIS7_ESt4lessIS2_ESaIS7_EE8_S_rightEPSt18_Rb_tree_node_base
FN:536,_ZNSt8_Rb_treeIPN14raptor_physics7vg_metaESt4pairIKS2_PNS0_13tracking_infoIS1_EEESt10_Select1stIS8_ESt4lessIS2_ESaIS8_EE8_S_rightEPSt18_Rb_tree_node_base
FN:544,_ZNSt8_Rb_treeIPN14raptor_physics7vg_metaESt4pairIKS2_PNS0_13tracking_infoIS1_EEESt10_Select1stIS8_ESt4lessIS2_ESaIS8_EE8_S_valueEPKSt18_Rb_tree_node_base
FN:544,_ZNSt8_Rb_treeIPN14raptor_physics7vg_metaESt4pairIKS2_PNS0_14collision_infoEESt10_Select1stIS7_ESt4lessIS2_ESaIS7_EE8_S_valueEPKSt18_Rb_tree_node_base
FN:548,_ZNSt8_Rb_treeIPN14raptor_physics7vg_metaESt4pairIKS2_PNS0_13tracking_infoIS1_EEESt10_Select1stIS8_ESt4lessIS2_ESaIS8_EE6_S_keyEPKSt18_Rb_tree_node_base
FN:548,_ZNSt8_Rb_treeIPN14raptor_physics7vg_metaESt4pairIKS2_PNS0_14collision_infoEESt10_Select1stIS7_ESt4lessIS2_ESaIS7_EE6_S_keyEPKSt18_Rb_tree_node_base
FN:650,_ZNSt8_Rb_treeIPN14raptor_physics7vg_metaESt4pairIKS2_PNS0_14collision_infoEESt10_Select1stIS7_ESt4lessIS2_ESaIS7_EEC2ERKSB_RKSC_
FN:670,_ZNSt8_Rb_treeIPN14raptor_physics7vg_metaESt4pairIKS2_PNS0_14collision_infoEESt10_Select1stIS7_ESt4lessIS2_ESaIS7_EED2Ev
FN:678,_ZNKSt8_Rb_treeIPN14raptor_physics7vg_metaESt4pairIKS2_PNS0_13tracking_infoIS1_EEESt10_Select1stIS8_ESt4lessIS2_ESaIS8_EE8key_compEv
FN:682,_ZNSt8_Rb_treeIPN14raptor_physics7vg_metaESt4pairIKS2_PNS0_14collision_infoEESt10_Select1stIS7_ESt4lessIS2_ESaIS7_EE5beginEv
FN:682,_ZNSt8_Rb_treeIPN14raptor_physics7vg_metaESt4pairIKS2_PNS0_13tracking_infoIS1_EEESt10_Select1stIS8_ESt4lessIS2_ESaIS8_EE5beginEv
FN:689,_ZNKSt8_Rb_treeIPN14raptor_physics7vg_metaESt4pairIKS2_PNS0_14collision_infoEESt10_Select1stIS7_ESt4lessIS2_ESaIS7_EE5beginEv
FN:696,_ZNSt8_Rb_treeIPN14raptor_physics7vg_metaESt4pairIKS2_PNS0_13tracking_infoIS1_EEESt10_Select1stIS8_ESt4lessIS2_ESaIS8_EE3endEv
FN:696,_ZNSt8_Rb_treeIPN14raptor_physics7vg_metaESt4pairIKS2_PNS0_14collision_infoEESt10_Select1stIS7_ESt4lessIS2_ESaIS7_EE3endEv
FN:700,_ZNKSt8_Rb_treeIPN14raptor_physics7vg_metaESt4pairIKS2_PNS0_14collision_infoEESt10_Select1stIS7_ESt4lessIS2_ESaIS7_EE3endEv
FN:727,_ZNKSt8_Rb_treeIPN14raptor_physics7vg_metaESt4pairIKS2_PNS0_14collision_infoEESt10_Select1stIS7_ESt4lessIS2_ESaIS7_EE4sizeEv
FN:727,_ZNKSt8_Rb_treeIPN14raptor_physics7vg_metaESt4pairIKS2_PNS0_13tracking_infoIS1_EEESt10_Select1stIS8_ESt4lessIS2_ESaIS8_EE4sizeEv
FN:878,_ZNSt8_Rb_treeIPN14raptor_physics7vg_metaESt4pairIKS2_PNS0_13tracking_infoIS1_EEESt10_Select1stIS8_ESt4lessIS2_ESaIS8_EE11lower_boundERS4_
FN:1012,_ZNSt8_Rb_treeIPN14raptor_physics7vg_metaESt4pairIKS2_PNS0_14collision_infoEESt10_Select1stIS7_ESt4lessIS2_ESaIS7_EE10_M_insert_IRKS7_EESt17_Rb_tree_iteratorIS7_EPSt18_Rb_tree_node_baseSK_OT_
FN:1012,_ZNSt8_Rb_treeIPN14raptor_physics7vg_metaESt4pairIKS2_PNS0_13tracking_infoIS1_EEESt10_Select1stIS8_ESt4lessIS2_ESaIS8_EE10_M_insert_IRKS8_EESt17_Rb_tree_iteratorIS8_EPSt18_Rb_tree_node_baseSL_OT_
FN:1119,_ZNSt8_Rb_treeIPN14raptor_physics7vg_metaESt4pairIKS2_PNS0_14collision_infoEESt10_Select1stIS7_ESt4lessIS2_ESaIS7_EE8_M_eraseEPSt13_Rb_tree_nodeIS7_E
FN:1136,_ZNSt8_Rb_treeIPN14raptor_physics7vg_metaESt4pairIKS2_PNS0_13tracking_infoIS1_EEESt10_Select1stIS8_ESt4lessIS2_ESaIS8_EE14_M_lower_boundEPSt13_Rb_tree_nodeIS8_ESH_RS4_
FN:1136,_ZNSt8_Rb_treeIPN14raptor_physics7vg_metaESt4pairIKS2_PNS0_14collision_infoEESt10_Select1stIS7_ESt4lessIS2_ESaIS7_EE14_M_lower_boundEPSt13_Rb_tree_nodeIS7_ESG_RS4_
FN:1314,_ZNSt8_Rb_treeIPN14raptor_physics7vg_metaESt4pairIKS2_PNS0_13tracking_infoIS1_EEESt10_Select1stIS8_ESt4lessIS2_ESaIS8_EE24_M_get_insert_unique_posERS4_
FN:1314,_ZNSt8_Rb_treeIPN14raptor_physics7vg_metaESt4pairIKS2_PNS0_14collision_infoEESt10_Select1stIS7_ESt4lessIS2_ESaIS7_EE24_M_get_insert_unique_posERS4_
FN:1368,_ZNSt8_Rb_treeIPN14raptor_physics7vg_metaESt4pairIKS2_PNS0_14collision_infoEESt10_Select1stIS7_ESt4lessIS2_ESaIS7_EE16_M_insert_uniqueIRKS7_EES3_ISt17_Rb_tree_iteratorIS7_EbEOT_
FN:1368,_ZNSt8_Rb_treeIPN14raptor_physics7vg_metaESt4pairIKS2_PNS0_13tracking_infoIS1_EEESt10_Select1stIS8_ESt4lessIS2_ESaIS8_EE16_M_insert_uniqueIRKS8_EES3_ISt17_Rb_tree_iteratorIS8_EbEOT_
FN:1411,_ZNSt8_Rb_treeIPN14raptor_physics7vg_metaESt4pairIKS2_PNS0_14collision_infoEESt10_Select1stIS7_ESt4lessIS2_ESaIS7_EE29_M_get_insert_hint_unique_posESt23_Rb_tree_const_iteratorIS7_ERS4_
FN:1411,_ZNSt8_Rb_treeIPN14raptor_physics7vg_metaESt4pairIKS2_PNS0_13tracking_infoIS1_EEESt10_Select1stIS8_ESt4lessIS2_ESaIS8_EE29_M_get_insert_hint_unique_posESt23_Rb_tree_const_iteratorIS8_ERS4_
FN:1470,_ZNSt8_Rb_treeIPN14raptor_physics7vg_metaESt4pairIKS2_PNS0_14collision_infoEESt10_Select1stIS7_ESt4lessIS2_ESaIS7_EE17_M_insert_unique_IRKS7_EESt17_Rb_tree_iteratorIS7_ESt23_Rb_tree_const_iteratorIS7_EOT_
FN:1568,_ZNSt8_Rb_treeIPN14raptor_physics7vg_metaESt4pairIKS2_PNS0_13tracking_infoIS1_EEESt10_Select1stIS8_ESt4lessIS2_ESaIS8_EE14_M_insert_nodeEPSt18_Rb_tree_node_baseSG_PSt13_Rb_tree_nodeIS8_E
FN:1666,_ZNSt8_Rb_treeIPN14raptor_physics7vg_metaESt4pairIKS2_PNS0_13tracking_infoIS1_EEESt10_Select1stIS8_ESt4lessIS2_ESaIS8_EE22_M_emplace_hint_uniqueIIRKSt21piecewise_construct_tSt5tupleIIRS4_EESJ_IIEEEEESt17_Rb_tree_iteratorIS8_ESt23_Rb_tree_const_iteratorIS8_EDpOT_
FN:1718,_ZNSt8_Rb_treeIPN14raptor_physics7vg_metaESt4pairIKS2_PNS0_14collision_infoEESt10_Select1stIS7_ESt4lessIS2_ESaIS7_EE16_M_insert_uniqueIPKS7_EEvT_SH_
FN:1789,_ZNSt8_Rb_treeIPN14raptor_physics7vg_metaESt4pairIKS2_PNS0_13tracking_infoIS1_EEESt10_Select1stIS8_ESt4lessIS2_ESaIS8_EE4findERS4_
FN:1789,_ZNSt8_Rb_treeIPN14raptor_physics7vg_metaESt4pairIKS2_PNS0_14collision_infoEESt10_Select1stIS7_ESt4lessIS2_ESaIS7_EE4findERS4_
FNDA:48,_ZNSt13_Rb_tree_nodeISt4pairIKPN14raptor_physics7vg_metaEPNS1_14collision_infoEEEC2IIRKS7_EEEDpOT_
FNDA:36,_ZNSt13_Rb_tree_nodeISt4pairIKPN14raptor_physics7vg_metaEPNS1_13tracking_infoIS2_EEEEC2IIRKS8_EEEDpOT_
FNDA:0,_ZNSt13_Rb_tree_nodeISt4pairIKPN14raptor_physics7vg_metaEPNS1_13tracking_infoIS2_EEEEC2IIRKSt21piecewise_construct_tSt5tupleIIRS4_EESE_IIEEEEEDpOT_
FNDA:1146,_ZNSt17_Rb_tree_iteratorISt4pairIKPN14raptor_physics7vg_metaEPNS1_14collision_infoEEEC2EPSt13_Rb_tree_nodeIS7_E
FNDA:1098,_ZNSt17_Rb_tree_iteratorISt4pairIKPN14raptor_physics7vg_metaEPNS1_13tracking_infoIS2_EEEEC2EPSt13_Rb_tree_nodeIS8_E
FNDA:84,_ZNKSt17_Rb_tree_iteratorISt4pairIKPN14raptor_physics7vg_metaEPNS1_14collision_infoEEEdeEv
FNDA:108,_ZNKSt17_Rb_tree_iteratorISt4pairIKPN14raptor_physics7vg_metaEPNS1_13tracking_infoIS2_EEEEdeEv
FNDA:168,_ZNKSt17_Rb_tree_iteratorISt4pairIKPN14raptor_physics7vg_metaEPNS1_14collision_infoEEEptEv
FNDA:174,_ZNKSt17_Rb_tree_iteratorISt4pairIKPN14raptor_physics7vg_metaEPNS1_13tracking_infoIS2_EEEEptEv
FNDA:84,_ZNSt17_Rb_tree_iteratorISt4pairIKPN14raptor_physics7vg_metaEPNS1_14collision_infoEEEppEv
FNDA:108,_ZNSt17_Rb_tree_iteratorISt4pairIKPN14raptor_physics7vg_metaEPNS1_13tracking_infoIS2_EEEEppEv
FNDA:0,_ZNSt17_Rb_tree_iteratorISt4pairIKPN14raptor_physics7vg_metaEPNS1_14collision_infoEEEmmEv
FNDA:6,_ZNSt17_Rb_tree_iteratorISt4pairIKPN14raptor_physics7vg_metaEPNS1_13tracking_infoIS2_EEEEmmEv
FNDA:450,_ZNKSt17_Rb_tree_iteratorISt4pairIKPN14raptor_physics7vg_metaEPNS1_14collision_infoEEEeqERKS8_
FNDA:456,_ZNKSt17_Rb_tree_iteratorISt4pairIKPN14raptor_physics7vg_metaEPNS1_13tracking_infoIS2_EEEEeqERKS9_
FNDA:228,_ZNKSt17_Rb_tree_iteratorISt4pairIKPN14raptor_physics7vg_metaEPNS1_14collision_infoEEEneERKS8_
FNDA:276,_ZNKSt17_Rb_tree_iteratorISt4pairIKPN14raptor_physics7vg_metaEPNS1_13tracking_infoIS2_EEEEneERKS9_
FNDA:0,_ZNSt23_Rb_tree_const_iteratorISt4pairIKPN14raptor_physics7vg_metaEPNS1_14collision_infoEEEC2EPKSt13_Rb_tree_nodeIS7_E
FNDA:36,_ZNSt23_Rb_tree_const_iteratorISt4pairIKPN14raptor_physics7vg_metaEPNS1_14collision_infoEEEC2ERKSt17_Rb_tree_iteratorIS7_E
FNDA:0,_ZNSt23_Rb_tree_const_iteratorISt4pairIKPN14raptor_physics7vg_metaEPNS1_13tracking_infoIS2_EEEEC2ERKSt17_Rb_tree_iteratorIS8_E
FNDA:36,_ZNKSt23_Rb_tree_const_iteratorISt4pairIKPN14raptor_physics7vg_metaEPNS1_14collision_infoEEE13_M_const_castEv
FNDA:0,_ZNKSt23_Rb_tree_const_iteratorISt4pairIKPN14raptor_physics7vg_metaEPNS1_13tracking_infoIS2_EEEE13_M_const_castEv
FNDA:0,_ZNKSt23_Rb_tree_const_iteratorISt4pairIKPN14raptor_physics7vg_metaEPNS1_14collision_infoEEEdeEv
FNDA:0,_ZNSt23_Rb_tree_const_iteratorISt4pairIKPN14raptor_physics7vg_metaEPNS1_14collision_infoEEEppEv
FNDA:0,_ZNKSt23_Rb_tree_const_iteratorISt4pairIKPN14raptor_physics7vg_metaEPNS1_14collision_infoEEEneERKS8_
FNDA:96,_ZNSt8_Rb_treeIPN14raptor_physics7vg_metaESt4pairIKS2_PNS0_14collision_infoEESt10_Select1stIS7_ESt4lessIS2_ESaIS7_EE21_M_get_Node_allocatorEv
FNDA:72,_ZNSt8_Rb_treeIPN14raptor_physics7vg_metaESt4pairIKS2_PNS0_13tracking_infoIS1_EEESt10_Select1stIS8_ESt4lessIS2_ESaIS8_EE21_M_get_Node_allocatorEv
FNDA:48,_ZNSt8_Rb_treeIPN14raptor_physics7vg_metaESt4pairIKS2_PNS0_14collision_infoEESt10_Select1stIS7_ESt4lessIS2_ESaIS7_EE11_M_get_nodeEv
FNDA:36,_ZNSt8_Rb_treeIPN14raptor_physics7vg_metaESt4pairIKS2_PNS0_13tracking_infoIS1_EEESt10_Select1stIS8_ESt4lessIS2_ESaIS8_EE11_M_get_nodeEv
FNDA:48,_ZNSt8_Rb_treeIPN14raptor_physics7vg_metaESt4pairIKS2_PNS0_14collision_infoEESt10_Select1stIS7_ESt4lessIS2_ESaIS7_EE11_M_put_nodeEPSt13_Rb_tree_nodeIS7_E
FNDA:36,_ZNSt8_Rb_treeIPN14raptor_physics7vg_metaESt4pairIKS2_PNS0_13tracking_infoIS1_EEESt10_Select1stIS8_ESt4lessIS2_ESaIS8_EE11_M_put_nodeEPSt13_Rb_tree_nodeIS8_E
FNDA:48,_ZNSt8_Rb_treeIPN14raptor_physics7vg_metaESt4pairIKS2_PNS0_14collision_infoEESt10_Select1stIS7_ESt4lessIS2_ESaIS7_EE14_M_create_nodeIIRKS7_EEEPSt13_Rb_tree_nodeIS7_EDpOT_
FNDA:36,_ZNSt8_Rb_treeIPN14raptor_physics7vg_metaESt4pairIKS2_PNS0_13tracking_infoIS1_EEESt10_Select1stIS8_ESt4lessIS2_ESaIS8_EE14_M_create_nodeIIRKS8_EEEPSt13_Rb_tree_nodeIS8_EDpOT_
FNDA:0,_ZNSt8_Rb_treeIPN14raptor_physics7vg_metaESt4pairIKS2_PNS0_13tracking_infoIS1_EEESt10_Select1stIS8_ESt4lessIS2_ESaIS8_EE14_M_create_nodeIIRKSt21piecewise_construct_tSt5tupleIIRS4_EESJ_IIEEEEEPSt13_Rb_tree_nodeIS8_EDpOT_
FNDA:48,_ZNSt8_Rb_treeIPN14raptor_physics7vg_metaESt4pairIKS2_PNS0_14collision_infoEESt10_Select1stIS7_ESt4lessIS2_ESaIS7_EE15_M_destroy_nodeEPSt13_Rb_tree_nodeIS7_E
FNDA:36,_ZNSt8_Rb_treeIPN14raptor_physics7vg_metaESt4pairIKS2_PNS0_13tracking_infoIS1_EEESt10_Select1stIS8_ESt4lessIS2_ESaIS8_EE15_M_destroy_nodeEPSt13_Rb_tree_nodeIS8_E
FNDA:36,_ZNSt8_Rb_treeIPN14raptor_physics7vg_metaESt4pairIKS2_PNS0_14collision_infoEESt10_Select1stIS7_ESt4lessIS2_ESaIS7_EE13_Rb_tree_implISB_Lb1EED2Ev
FNDA:36,_ZNSt8_Rb_treeIPN14raptor_physics7vg_metaESt4pairIKS2_PNS0_14collision_infoEESt10_Select1stIS7_ESt4lessIS2_ESaIS7_EE13_Rb_tree_implISB_Lb1EEC2ERKSB_OSaISt13_Rb_tree_nodeIS7_EE
FNDA:36,_ZNSt8_Rb_treeIPN14raptor_physics7vg_metaESt4pairIKS2_PNS0_14collision_infoEESt10_Select1stIS7_ESt4lessIS2_ESaIS7_EE13_Rb_tree_implISB_Lb1EE13_M_initializeEv
FNDA:0,_ZNSt8_Rb_treeIPN14raptor_physics7vg_metaESt4pairIKS2_PNS0_14collision_infoEESt10_Select1stIS7_ESt4lessIS2_ESaIS7_EE11_M_leftmostEv
FNDA:0,_ZNSt8_Rb_treeIPN14raptor_physics7vg_metaESt4pairIKS2_PNS0_13tracking_infoIS1_EEESt10_Select1stIS8_ESt4lessIS2_ESaIS8_EE11_M_leftmostEv
FNDA:0,_ZNSt8_Rb_treeIPN14raptor_physics7vg_metaESt4pairIKS2_PNS0_14collision_infoEESt10_Select1stIS7_ESt4lessIS2_ESaIS7_EE12_M_rightmostEv
FNDA:0,_ZNSt8_Rb_treeIPN14raptor_physics7vg_metaESt4pairIKS2_PNS0_13tracking_infoIS1_EEESt10_Select1stIS8_ESt4lessIS2_ESaIS8_EE12_M_rightmostEv
FNDA:330,_ZNSt8_Rb_treeIPN14raptor_physics7vg_metaESt4pairIKS2_PNS0_14collision_infoEESt10_Select1stIS7_ESt4lessIS2_ESaIS7_EE8_M_beginEv
FNDA:312,_ZNSt8_Rb_treeIPN14raptor_physics7vg_metaESt4pairIKS2_PNS0_13tracking_infoIS1_EEESt10_Select1stIS8_ESt4lessIS2_ESaIS8_EE8_M_beginEv
FNDA:378,_ZNSt8_Rb_treeIPN14raptor_physics7vg_metaESt4pairIKS2_PNS0_14collision_infoEESt10_Select1stIS7_ESt4lessIS2_ESaIS7_EE6_M_endEv
FNDA:300,_ZNSt8_Rb_treeIPN14raptor_physics7vg_metaESt4pairIKS2_PNS0_13tracking_infoIS1_EEESt10_Select1stIS8_ESt4lessIS2_ESaIS8_EE6_M_endEv
FNDA:318,_ZNSt8_Rb_treeIPN14raptor_physics7vg_metaESt4pairIKS2_PNS0_14collision_infoEESt10_Select1stIS7_ESt4lessIS2_ESaIS7_EE8_S_valueEPKSt13_Rb_tree_nodeIS7_E
FNDA:444,_ZNSt8_Rb_treeIPN14raptor_physics7vg_metaESt4pairIKS2_PNS0_13tracking_infoIS1_EEESt10_Select1stIS8_ESt4lessIS2_ESaIS8_EE8_S_valueEPKSt13_Rb_tree_nodeIS8_E
FNDA:318,_ZNSt8_Rb_treeIPN14raptor_physics7vg_metaESt4pairIKS2_PNS0_14collision_infoEESt10_Select1stIS7_ESt4lessIS2_ESaIS7_EE6_S_keyEPKSt13_Rb_tree_nodeIS7_E
FNDA:444,_ZNSt8_Rb_treeIPN14raptor_physics7vg_metaESt4pairIKS2_PNS0_13tracking_infoIS1_EEESt10_Select1stIS8_ESt4lessIS2_ESaIS8_EE6_S_keyEPKSt13_Rb_tree_nodeIS8_E
FNDA:294,_ZNSt8_Rb_treeIPN14raptor_physics7vg_metaESt4pairIKS2_PNS0_14collision_infoEESt10_Select1stIS7_ESt4lessIS2_ESaIS7_EE7_S_leftEPSt18_Rb_tree_node_base
FNDA:324,_ZNSt8_Rb_treeIPN14raptor_physics7vg_metaESt4pairIKS2_PNS0_13tracking_infoIS1_EEESt10_Select1stIS8_ESt4lessIS2_ESaIS8_EE7_S_leftEPSt18_Rb_tree_node_base
FNDA:120,_ZNSt8_Rb_treeIPN14raptor_physics7vg_metaESt4pairIKS2_PNS0_14collision_infoEESt10_Select1stIS7_ESt4lessIS2_ESaIS7_EE8_S_rightEPSt18_Rb_tree_node_base
FNDA:192,_ZNSt8_Rb_treeIPN14raptor_physics7vg_metaESt4pairIKS2_PNS0_13tracking_infoIS1_EEESt10_Select1stIS8_ESt4lessIS2_ESaIS8_EE8_S_rightEPSt18_Rb_tree_node_base
FNDA:246,_ZNSt8_Rb_treeIPN14raptor_physics7vg_metaESt4pairIKS2_PNS0_14collision_infoEESt10_Select1stIS7_ESt4lessIS2_ESaIS7_EE8_S_valueEPKSt18_Rb_tree_node_base
FNDA:246,_ZNSt8_Rb_treeIPN14raptor_physics7vg_metaESt4pairIKS2_PNS0_13tracking_infoIS1_EEESt10_Select1stIS8_ESt4lessIS2_ESaIS8_EE8_S_valueEPKSt18_Rb_tree_node_base
FNDA:246,_ZNSt8_Rb_treeIPN14raptor_physics7vg_metaESt4pairIKS2_PNS0_14collision_infoEESt10_Select1stIS7_ESt4lessIS2_ESaIS7_EE6_S_keyEPKSt18_Rb_tree_node_base
FNDA:246,_ZNSt8_Rb_treeIPN14raptor_physics7vg_metaESt4pairIKS2_PNS0_13tracking_infoIS1_EEESt10_Select1stIS8_ESt4lessIS2_ESaIS8_EE6_S_keyEPKSt18_Rb_tree_node_base
FNDA:36,_ZNSt8_Rb_treeIPN14raptor_physics7vg_metaESt4pairIKS2_PNS0_14collision_infoEESt10_Select1stIS7_ESt4lessIS2_ESaIS7_EEC2ERKSB_RKSC_
FNDA:36,_ZNSt8_Rb_treeIPN14raptor_physics7vg_metaESt4pairIKS2_PNS0_14collision_infoEESt10_Select1stIS7_ESt4lessIS2_ESaIS7_EED2Ev
FNDA:0,_ZNKSt8_Rb_treeIPN14raptor_physics7vg_metaESt4pairIKS2_PNS0_13tracking_infoIS1_EEESt10_Select1stIS8_ESt4lessIS2_ESaIS8_EE8key_compEv
FNDA:102,_ZNSt8_Rb_treeIPN14raptor_physics7vg_metaESt4pairIKS2_PNS0_14collision_infoEESt10_Select1stIS7_ESt4lessIS2_ESaIS7_EE5beginEv
FNDA:144,_ZNSt8_Rb_treeIPN14raptor_physics7vg_metaESt4pairIKS2_PNS0_13tracking_infoIS1_EEESt10_Select1stIS8_ESt4lessIS2_ESaIS8_EE5beginEv
FNDA:0,_ZNKSt8_Rb_treeIPN14raptor_physics7vg_metaESt4pairIKS2_PNS0_14collision_infoEESt10_Select1stIS7_ESt4lessIS2_ESaIS7_EE5beginEv
FNDA:666,_ZNSt8_Rb_treeIPN14raptor_physics7vg_metaESt4pairIKS2_PNS0_14collision_infoEESt10_Select1stIS7_ESt4lessIS2_ESaIS7_EE3endEv
FNDA:654,_ZNSt8_Rb_treeIPN14raptor_physics7vg_metaESt4pairIKS2_PNS0_13tracking_infoIS1_EEESt10_Select1stIS8_ESt4lessIS2_ESaIS8_EE3endEv
FNDA:0,_ZNKSt8_Rb_treeIPN14raptor_physics7vg_metaESt4pairIKS2_PNS0_14collision_infoEESt10_Select1stIS7_ESt4lessIS2_ESaIS7_EE3endEv
FNDA:36,_ZNKSt8_Rb_treeIPN14raptor_physics7vg_metaESt4pairIKS2_PNS0_14collision_infoEESt10_Select1stIS7_ESt4lessIS2_ESaIS7_EE4sizeEv
FNDA:96,_ZNKSt8_Rb_treeIPN14raptor_physics7vg_metaESt4pairIKS2_PNS0_13tracking_infoIS1_EEESt10_Select1stIS8_ESt4lessIS2_ESaIS8_EE4sizeEv
FNDA:0,_ZNSt8_Rb_treeIPN14raptor_physics7vg_metaESt4pairIKS2_PNS0_13tracking_infoIS1_EEESt10_Select1stIS8_ESt4lessIS2_ESaIS8_EE11lower_boundERS4_
FNDA:48,_ZNSt8_Rb_treeIPN14raptor_physics7vg_metaESt4pairIKS2_PNS0_14collision_infoEESt10_Select1stIS7_ESt4lessIS2_ESaIS7_EE10_M_insert_IRKS7_EESt17_Rb_tree_iteratorIS7_EPSt18_Rb_tree_node_baseSK_OT_
FNDA:36,_ZNSt8_Rb_treeIPN14raptor_physics7vg_metaESt4pairIKS2_PNS0_13tracking_infoIS1_EEESt10_Select1stIS8_ESt4lessIS2_ESaIS8_EE10_M_insert_IRKS8_EESt17_Rb_tree_iteratorIS8_EPSt18_Rb_tree_node_baseSL_OT_
FNDA:84,_ZNSt8_Rb_treeIPN14raptor_physics7vg_metaESt4pairIKS2_PNS0_14collision_infoEESt10_Select1stIS7_ESt4lessIS2_ESaIS7_EE8_M_eraseEPSt13_Rb_tree_nodeIS7_E
FNDA:246,_ZNSt8_Rb_treeIPN14raptor_physics7vg_metaESt4pairIKS2_PNS0_14collision_infoEESt10_Select1stIS7_ESt4lessIS2_ESaIS7_EE14_M_lower_boundEPSt13_Rb_tree_nodeIS7_ESG_RS4_
FNDA:228,_ZNSt8_Rb_treeIPN14raptor_physics7vg_metaESt4pairIKS2_PNS0_13tracking_infoIS1_EEESt10_Select1stIS8_ESt4lessIS2_ESaIS8_EE14_M_lower_boundEPSt13_Rb_tree_nodeIS8_ESH_RS4_
FNDA:48,_ZNSt8_Rb_treeIPN14raptor_physics7vg_metaESt4pairIKS2_PNS0_14collision_infoEESt10_Select1stIS7_ESt4lessIS2_ESaIS7_EE24_M_get_insert_unique_posERS4_
FNDA:36,_ZNSt8_Rb_treeIPN14raptor_physics7vg_metaESt4pairIKS2_PNS0_13tracking_infoIS1_EEESt10_Select1stIS8_ESt4lessIS2_ESaIS8_EE24_M_get_insert_unique_posERS4_
FNDA:12,_ZNSt8_Rb_treeIPN14raptor_physics7vg_metaESt4pairIKS2_PNS0_14collision_infoEESt10_Select1stIS7_ESt4lessIS2_ESaIS7_EE16_M_insert_uniqueIRKS7_EES3_ISt17_Rb_tree_iteratorIS7_EbEOT_
FNDA:36,_ZNSt8_Rb_treeIPN14raptor_physics7vg_metaESt4pairIKS2_PNS0_13tracking_infoIS1_EEESt10_Select1stIS8_ESt4lessIS2_ESaIS8_EE16_M_insert_uniqueIRKS8_EES3_ISt17_Rb_tree_iteratorIS8_EbEOT_
FNDA:36,_ZNSt8_Rb_treeIPN14raptor_physics7vg_metaESt4pairIKS2_PNS0_14collision_infoEESt10_Select1stIS7_ESt4lessIS2_ESaIS7_EE29_M_get_insert_hint_unique_posESt23_Rb_tree_const_iteratorIS7_ERS4_
FNDA:0,_ZNSt8_Rb_treeIPN14raptor_physics7vg_metaESt4pairIKS2_PNS0_13tracking_infoIS1_EEESt10_Select1stIS8_ESt4lessIS2_ESaIS8_EE29_M_get_insert_hint_unique_posESt23_Rb_tree_const_iteratorIS8_ERS4_
FNDA:36,_ZNSt8_Rb_treeIPN14raptor_physics7vg_metaESt4pairIKS2_PNS0_14collision_infoEESt10_Select1stIS7_ESt4lessIS2_ESaIS7_EE17_M_insert_unique_IRKS7_EESt17_Rb_tree_iteratorIS7_ESt23_Rb_tree_const_iteratorIS7_EOT_
FNDA:0,_ZNSt8_Rb_treeIPN14raptor_physics7vg_metaESt4pairIKS2_PNS0_13tracking_infoIS1_EEESt10_Select1stIS8_ESt4lessIS2_ESaIS8_EE14_M_insert_nodeEPSt18_Rb_tree_node_baseSG_PSt13_Rb_tree_nodeIS8_E
FNDA:0,_ZNSt8_Rb_treeIPN14raptor_physics7vg_metaESt4pairIKS2_PNS0_13tracking_infoIS1_EEESt10_Select1stIS8_ESt4lessIS2_ESaIS8_EE22_M_emplace_hint_uniqueIIRKSt21piecewise_construct_tSt5tupleIIRS4_EESJ_IIEEEEESt17_Rb_tree_iteratorIS8_ESt23_Rb_tree_const_iteratorIS8_EDpOT_
FNDA:36,_ZNSt8_Rb_treeIPN14raptor_physics7vg_metaESt4pairIKS2_PNS0_14collision_infoEESt10_Select1stIS7_ESt4lessIS2_ESaIS7_EE16_M_insert_uniqueIPKS7_EEvT_SH_
FNDA:246,_ZNSt8_Rb_treeIPN14raptor_physics7vg_metaESt4pairIKS2_PNS0_14collision_infoEESt10_Select1stIS7_ESt4lessIS2_ESaIS7_EE4findERS4_
FNDA:228,_ZNSt8_Rb_treeIPN14raptor_physics7vg_metaESt4pairIKS2_PNS0_13tracking_infoIS1_EEESt10_Select1stIS8_ESt4lessIS2_ESaIS8_EE4findERS4_
FNF:88
FNH:68
DA:138,84
DA:140,84
DA:174,2244
DA:175,2244
DA:178,192
DA:179,192
DA:182,342
DA:184,342
DA:187,192
DA:189,192
DA:190,192
DA:202,6
DA:204,6
DA:205,6
DA:217,906
DA:218,906
DA:221,504
DA:222,504
DA:247,0
DA:248,0
DA:250,36
DA:251,36
DA:254,36
DA:256,36
DA:259,0
DA:260,0
DA:268,0
DA:270,0
DA:271,0
DA:302,0
DA:303,0
DA:356,168
DA:357,168
DA:369,84
DA:370,84
DA:373,84
DA:374,84
DA:401,84
DA:403,84
DA:406,84
DA:407,84
DA:408,84
DA:410,=====
DA:412,=====
DA:413,=====
DA:415,84
DA:419,84
DA:421,84
DA:422,84
DA:423,84
DA:439,36
DA:456,36
DA:457,36
DA:458,36
DA:459,36
DA:464,36
DA:466,36
DA:467,36
DA:468,36
DA:469,36
DA:470,36
DA:485,0
DA:486,0
DA:493,0
DA:494,0
DA:501,642
DA:502,642
DA:512,678
DA:513,678
DA:520,762
DA:521,762
DA:524,762
DA:525,762
DA:528,618
DA:529,618
DA:536,312
DA:537,312
DA:544,492
DA:545,492
DA:548,492
DA:549,492
DA:650,36
DA:652,36
DA:670,36
DA:671,36
DA:678,0
DA:679,0
DA:682,246
DA:685,246
DA:689,0
DA:692,0
DA:696,1320
DA:697,1320
DA:700,0
DA:703,0
DA:727,132
DA:728,132
DA:878,0
DA:879,0
DA:1012,84
DA:1019,84
DA:1020,156
DA:1021,252
DA:1023,84
DA:1025,84
DA:1026,84
DA:1027,84
DA:1028,84
DA:1119,84
DA:1123,216
DA:1125,48
DA:1126,48
DA:1127,48
DA:1128,48
DA:1130,84
DA:1136,474
DA:1140,1668
DA:1141,720
DA:1142,516
DA:1144,204
DA:1145,474
DA:1314,84
DA:1318,84
DA:1319,84
DA:1320,84
DA:1321,210
DA:1323,42
DA:1324,42
DA:1325,42
DA:1327,84
DA:1328,84
DA:1330,66
DA:1331,60
DA:1333,6
DA:1335,24
DA:1336,24
DA:1337,0
DA:1368,48
DA:1377,48
DA:1379,48
DA:1381,48
DA:1382,96
DA:1384,0
DA:1411,36
DA:1415,36
DA:1419,36
DA:1421,36
DA:1422,0
DA:1423,0
DA:1425,36
DA:1427,0
DA:1430,0
DA:1431,0
DA:1432,0
DA:1433,0
DA:1435,0
DA:1436,0
DA:1438,0
DA:1441,0
DA:1443,0
DA:1446,0
DA:1447,0
DA:1448,0
DA:1449,0
DA:1451,0
DA:1452,0
DA:1454,0
DA:1457,0
DA:1461,0
DA:1470,36
DA:1478,36
DA:1480,36
DA:1482,36
DA:1483,0
DA:1568,0
DA:1571,0
DA:1572,0
DA:1573,0
DA:1575,0
DA:1576,0
DA:1577,0
DA:1578,0
DA:1666,0
DA:1669,0
DA:1673,0
DA:1675,0
DA:1676,0
DA:1678,0
DA:1679,0
DA:1681,=====
DA:1683,=====
DA:1684,=====
DA:1718,36
DA:1721,72
DA:1722,36
DA:1723,36
DA:1789,474
DA:1792,474
DA:1793,1896
DA:1794,432
DA:1795,2328
LF:201
LH:135
end_of_record
SF:/usr/include/c++/4.8/bits/stl_uninitialized.h
FN:68,_ZNSt20__uninitialized_copyILb0EE13__uninit_copyISt13move_iteratorIPSt4pairIPN14raptor_physics7vg_metaESt6vectorINS4_18contact_graph_edgeESaIS8_EEEESC_EET0_T_SF_SE_
FN:68,_ZNSt20__uninitialized_copyILb0EE13__uninit_copyISt13move_iteratorIPN14raptor_physics18contact_graph_edgeEES5_EET0_T_S8_S7_
FN:91,_ZNSt20__uninitialized_copyILb1EE13__uninit_copyISt13move_iteratorIPPN14raptor_physics7vg_metaEES6_EET0_T_S9_S8_
FN:107,_ZSt18uninitialized_copyISt13move_iteratorIPSt4pairIPN14raptor_physics7vg_metaESt6vectorINS2_18contact_graph_edgeESaIS6_EEEESA_ET0_T_SD_SC_
FN:107,_ZSt18uninitialized_copyISt13move_iteratorIPPN14raptor_physics7vg_metaEES4_ET0_T_S7_S6_
FN:107,_ZSt18uninitialized_copyISt13move_iteratorIPN14raptor_physics18contact_graph_edgeEES3_ET0_T_S6_S5_
FN:256,_ZSt22__uninitialized_copy_aISt13move_iteratorIPSt4pairIPN14raptor_physics7vg_metaESt6vectorINS2_18contact_graph_edgeESaIS6_EEEESA_S9_ET0_T_SD_SC_RSaIT1_E
FN:256,_ZSt22__uninitialized_copy_aISt13move_iteratorIPN14raptor_physics18contact_graph_edgeEES3_S2_ET0_T_S6_S5_RSaIT1_E
FN:256,_ZSt22__uninitialized_copy_aISt13move_iteratorIPPN14raptor_physics7vg_metaEES4_S3_ET0_T_S7_S6_RSaIT1_E
FN:274,_ZSt34__uninitialized_move_if_noexcept_aIPPN14raptor_physics7vg_metaES3_SaIS2_EET0_T_S6_S5_RT1_
FN:274,_ZSt34__uninitialized_move_if_noexcept_aIPSt4pairIPN14raptor_physics7vg_metaESt6vectorINS1_18contact_graph_edgeESaIS5_EEES9_SaIS8_EET0_T_SC_SB_RT1_
FN:274,_ZSt34__uninitialized_move_if_noexcept_aIPN14raptor_physics18contact_graph_edgeES2_SaIS1_EET0_T_S5_S4_RT1_
FNDA:0,_ZNSt20__uninitialized_copyILb0EE13__uninit_copyISt13move_iteratorIPN14raptor_physics18contact_graph_edgeEES5_EET0_T_S8_S7_
FNDA:0,_ZNSt20__uninitialized_copyILb0EE13__uninit_copyISt13move_iteratorIPSt4pairIPN14raptor_physics7vg_metaESt6vectorINS4_18contact_graph_edgeESaIS8_EEEESC_EET0_T_SF_SE_
FNDA:0,_ZNSt20__uninitialized_copyILb1EE13__uninit_copyISt13move_iteratorIPPN14raptor_physics7vg_metaEES6_EET0_T_S9_S8_
FNDA:0,_ZSt18uninitialized_copyISt13move_iteratorIPN14raptor_physics18contact_graph_edgeEES3_ET0_T_S6_S5_
FNDA:0,_ZSt18uninitialized_copyISt13move_iteratorIPSt4pairIPN14raptor_physics7vg_metaESt6vectorINS2_18contact_graph_edgeESaIS6_EEEESA_ET0_T_SD_SC_
FNDA:0,_ZSt18uninitialized_copyISt13move_iteratorIPPN14raptor_physics7vg_metaEES4_ET0_T_S7_S6_
FNDA:0,_ZSt22__uninitialized_copy_aISt13move_iteratorIPN14raptor_physics18contact_graph_edgeEES3_S2_ET0_T_S6_S5_RSaIT1_E
FNDA:0,_ZSt22__uninitialized_copy_aISt13move_iteratorIPSt4pairIPN14raptor_physics7vg_metaESt6vectorINS2_18contact_graph_edgeESaIS6_EEEESA_S9_ET0_T_SD_SC_RSaIT1_E
FNDA:0,_ZSt22__uninitialized_copy_aISt13move_iteratorIPPN14raptor_physics7vg_metaEES4_S3_ET0_T_S7_S6_RSaIT1_E
FNDA:0,_ZSt34__uninitialized_move_if_noexcept_aIPN14raptor_physics18contact_graph_edgeES2_SaIS1_EET0_T_S5_S4_RT1_
FNDA:0,_ZSt34__uninitialized_move_if_noexcept_aIPSt4pairIPN14raptor_physics7vg_metaESt6vectorINS1_18contact_graph_edgeESaIS5_EEES9_SaIS8_EET0_T_SC_SB_RT1_
FNDA:0,_ZSt34__uninitialized_move_if_noexcept_aIPPN14raptor_physics7vg_metaES3_SaIS2_EET0_T_S6_S5_RT1_
FNF:12
FNH:0
DA:68,0
DA:71,0
DA:74,0
DA:75,0
DA:76,0
DA:78,=====
DA:80,=====
DA:81,=====
DA:91,0
DA:93,0
DA:107,0
DA:117,0
DA:256,0
DA:258,0
DA:274,0
DA:281,0
LF:16
LH:0
end_of_record
SF:/usr/include/c++/4.8/bits/stl_vector.h
FN:79,_ZNSt12_Vector_baseIPN14raptor_physics7vg_metaESaIS2_EE12_Vector_implD2Ev
FN:79,_ZNSt12_Vector_baseISt4pairIPN14raptor_physics7vg_metaESt6vectorINS1_18contact_graph_edgeESaIS5_EEESaIS8_EE12_Vector_implD2Ev
FN:79,_ZNSt12_Vector_baseIN14raptor_physics18contact_graph_edgeESaIS1_EE12_Vector_implD2Ev
FN:86,_ZNSt12_Vector_baseIPN14raptor_physics7vg_metaESaIS2_EE12_Vector_implC2Ev
FN:86,_ZNSt12_Vector_baseIN14raptor_physics18contact_graph_edgeESaIS1_EE12_Vector_implC2Ev
FN:86,_ZNSt12_Vector_baseISt4pairIPN14raptor_physics7vg_metaESt6vectorINS1_18contact_graph_edgeESaIS5_EEESaIS8_EE12_Vector_implC2Ev
FN:95,_ZNSt12_Vector_baseIN14raptor_physics18contact_graph_edgeESaIS1_EE12_Vector_implC2EOS2_
FN:101,_ZNSt12_Vector_baseIN14raptor_physics18contact_graph_edgeESaIS1_EE12_Vector_impl12_M_swap_dataERS4_
FN:113,_ZNSt12_Vector_baseIP10force_infoSaIS1_EE19_M_get_Tp_allocatorEv
FN:113,_ZNSt12_Vector_baseISt4pairIPN14raptor_physics7vg_metaESt6vectorINS1_18contact_graph_edgeESaIS5_EEESaIS8_EE19_M_get_Tp_allocatorEv
FN:113,_ZNSt12_Vector_baseIPN14raptor_physics7vg_metaESaIS2_EE19_M_get_Tp_allocatorEv
FN:113,_ZNSt12_Vector_baseIN14raptor_physics18contact_graph_edgeESaIS1_EE19_M_get_Tp_allocatorEv
FN:117,_ZNKSt12_Vector_baseIN14raptor_physics18contact_graph_edgeESaIS1_EE19_M_get_Tp_allocatorEv
FN:117,_ZNKSt12_Vector_baseISt4pairIPN14raptor_physics7vg_metaESt6vectorINS1_18contact_graph_edgeESaIS5_EEESaIS8_EE19_M_get_Tp_allocatorEv
FN:117,_ZNKSt12_Vector_baseIPN14raptor_physics7vg_metaESaIS2_EE19_M_get_Tp_allocatorEv
FN:124,_ZNSt12_Vector_baseIN14raptor_physics18contact_graph_edgeESaIS1_EEC2Ev
FN:124,_ZNSt12_Vector_baseISt4pairIPN14raptor_physics7vg_metaESt6vectorINS1_18contact_graph_edgeESaIS5_EEESaIS8_EEC2Ev
FN:124,_ZNSt12_Vector_baseIPN14raptor_physics7vg_metaESaIS2_EEC2Ev
FN:142,_ZNSt12_Vector_baseIN14raptor_physics18contact_graph_edgeESaIS1_EEC2EOS3_
FN:159,_ZNSt12_Vector_baseIN14raptor_physics18contact_graph_edgeESaIS1_EED2Ev
FN:159,_ZNSt12_Vector_baseIPN14raptor_physics7vg_metaESaIS2_EED2Ev
FN:159,_ZNSt12_Vector_baseISt4pairIPN14raptor_physics7vg_metaESt6vectorINS1_18contact_graph_edgeESaIS5_EEESaIS8_EED2Ev
FN:167,_ZNSt12_Vector_baseISt4pairIPN14raptor_physics7vg_metaESt6vectorINS1_18contact_graph_edgeESaIS5_EEESaIS8_EE11_M_allocateEm
FN:167,_ZNSt12_Vector_baseIPN14raptor_physics7vg_metaESaIS2_EE11_M_allocateEm
FN:167,_ZNSt12_Vector_baseIN14raptor_physics18contact_graph_edgeESaIS1_EE11_M_allocateEm
FN:171,_ZNSt12_Vector_baseIPN14raptor_physics7vg_metaESaIS2_EE13_M_deallocateEPS2_m
FN:171,_ZNSt12_Vector_baseISt4pairIPN14raptor_physics7vg_metaESt6vectorINS1_18contact_graph_edgeESaIS5_EEESaIS8_EE13_M_deallocateEPS8_m
FN:171,_ZNSt12_Vector_baseIN14raptor_physics18contact_graph_edgeESaIS1_EE13_M_deallocateEPS1_m
FN:248,_ZNSt6vectorIN14raptor_physics18contact_graph_edgeESaIS1_EEC2Ev
FN:248,_ZNSt6vectorIPN14raptor_physics7vg_metaESaIS2_EEC2Ev
FN:248,_ZNSt6vectorISt4pairIPN14raptor_physics7vg_metaES_INS1_18contact_graph_edgeESaIS4_EEESaIS7_EEC2Ev
FN:327,_ZNSt6vectorIN14raptor_physics18contact_graph_edgeESaIS1_EEC2EOS3_
FN:414,_ZNSt6vectorISt4pairIPN14raptor_physics7vg_metaES_INS1_18contact_graph_edgeESaIS4_EEESaIS7_EED2Ev
FN:414,_ZNSt6vectorIPN14raptor_physics7vg_metaESaIS2_EED2Ev
FN:414,_ZNSt6vectorIN14raptor_physics18contact_graph_edgeESaIS1_EED2Ev
FN:538,_ZNSt6vectorIN14raptor_physics18contact_graph_edgeESaIS1_EE5beginEv
FN:538,_ZNSt6vectorIP10force_infoSaIS1_EE5beginEv
FN:538,_ZNSt6vectorIPN14raptor_physics7vg_metaESaIS2_EE5beginEv
FN:538,_ZNSt6vectorISt4pairIPN14raptor_physics7vg_metaES_INS1_18contact_graph_edgeESaIS4_EEESaIS7_EE5beginEv
FN:547,_ZNKSt6vectorISt4pairIPN14raptor_physics7vg_metaES_INS1_18contact_graph_edgeESaIS4_EEESaIS7_EE5beginEv
FN:547,_ZNKSt6vectorIN14raptor_physics18contact_graph_edgeESaIS1_EE5beginEv
FN:547,_ZNKSt6vectorIPN14raptor_physics7vg_metaESaIS2_EE5beginEv
FN:556,_ZNSt6vectorISt4pairIPN14raptor_physics7vg_metaES_INS1_18contact_graph_edgeESaIS4_EEESaIS7_EE3endEv
FN:556,_ZNSt6vectorIN14raptor_physics18contact_graph_edgeESaIS1_EE3endEv
FN:556,_ZNSt6vectorIPN14raptor_physics7vg_metaESaIS2_EE3endEv
FN:556,_ZNSt6vectorIP10force_infoSaIS1_EE3endEv
FN:565,_ZNKSt6vectorIN14raptor_physics18contact_graph_edgeESaIS1_EE3endEv
FN:565,_ZNKSt6vectorIPN14raptor_physics7vg_metaESaIS2_EE3endEv
FN:565,_ZNKSt6vectorISt4pairIPN14raptor_physics7vg_metaES_INS1_18contact_graph_edgeESaIS4_EEESaIS7_EE3endEv
FN:645,_ZNKSt6vectorIPN14raptor_physics7vg_metaESaIS2_EE4sizeEv
FN:645,_ZNKSt6vectorISt4pairIPN14raptor_physics7vg_metaES_INS1_18contact_graph_edgeESaIS4_EEESaIS7_EE4sizeEv
FN:645,_ZNKSt6vectorIN14raptor_physics18contact_graph_edgeESaIS1_EE4sizeEv
FN:650,_ZNKSt6vectorISt4pairIPN14raptor_physics7vg_metaES_INS1_18contact_graph_edgeESaIS4_EEESaIS7_EE8max_sizeEv
FN:650,_ZNKSt6vectorIPN14raptor_physics7vg_metaESaIS2_EE8max_sizeEv
FN:650,_ZNKSt6vectorIN14raptor_physics18contact_graph_edgeESaIS1_EE8max_sizeEv
FN:770,_ZNSt6vectorISt4pairIPN14raptor_physics7vg_metaES_INS1_18contact_graph_edgeESaIS4_EEESaIS7_EEixEm
FN:785,_ZNKSt6vectorISt4pairIPN14raptor_physics7vg_metaES_INS1_18contact_graph_edgeESaIS4_EEESaIS7_EEixEm
FN:901,_ZNSt6vectorIPN14raptor_physics7vg_metaESaIS2_EE9push_backERKS2_
FN:919,_ZNSt6vectorISt4pairIPN14raptor_physics7vg_metaES_INS1_18contact_graph_edgeESaIS4_EEESaIS7_EE9push_backEOS7_
FN:1125,_ZNSt6vectorISt4pairIPN14raptor_physics7vg_metaES_INS1_18contact_graph_edgeESaIS4_EEESaIS7_EE5clearEv
FN:1125,_ZNSt6vectorIPN14raptor_physics7vg_metaESaIS2_EE5clearEv
FN:1336,_ZNKSt6vectorIN14raptor_physics18contact_graph_edgeESaIS1_EE12_M_check_lenEmPKc
FN:1336,_ZNKSt6vectorIPN14raptor_physics7vg_metaESaIS2_EE12_M_check_lenEmPKc
FN:1336,_ZNKSt6vectorISt4pairIPN14raptor_physics7vg_metaES_INS1_18contact_graph_edgeESaIS4_EEESaIS7_EE12_M_check_lenEmPKc
FN:1350,_ZNSt6vectorISt4pairIPN14raptor_physics7vg_metaES_INS1_18contact_graph_edgeESaIS4_EEESaIS7_EE15_M_erase_at_endEPS7_
FN:1350,_ZNSt6vectorIP10force_infoSaIS1_EE15_M_erase_at_endEPS1_
FN:1350,_ZNSt6vectorIPN14raptor_physics7vg_metaESaIS2_EE15_M_erase_at_endEPS2_
FNDA:0,_ZNSt12_Vector_baseIN14raptor_physics18contact_graph_edgeESaIS1_EE12_Vector_implD2Ev
FNDA:12,_ZNSt12_Vector_baseISt4pairIPN14raptor_physics7vg_metaESt6vectorINS1_18contact_graph_edgeESaIS5_EEESaIS8_EE12_Vector_implD2Ev
FNDA:12,_ZNSt12_Vector_baseIPN14raptor_physics7vg_metaESaIS2_EE12_Vector_implD2Ev
FNDA:0,_ZNSt12_Vector_baseIN14raptor_physics18contact_graph_edgeESaIS1_EE12_Vector_implC2Ev
FNDA:12,_ZNSt12_Vector_baseISt4pairIPN14raptor_physics7vg_metaESt6vectorINS1_18contact_graph_edgeESaIS5_EEESaIS8_EE12_Vector_implC2Ev
FNDA:12,_ZNSt12_Vector_baseIPN14raptor_physics7vg_metaESaIS2_EE12_Vector_implC2Ev
FNDA:0,_ZNSt12_Vector_baseIN14raptor_physics18contact_graph_edgeESaIS1_EE12_Vector_implC2EOS2_
FNDA:0,_ZNSt12_Vector_baseIN14raptor_physics18contact_graph_edgeESaIS1_EE12_Vector_impl12_M_swap_dataERS4_
FNDA:0,_ZNSt12_Vector_baseIN14raptor_physics18contact_graph_edgeESaIS1_EE19_M_get_Tp_allocatorEv
FNDA:156,_ZNSt12_Vector_baseIP10force_infoSaIS1_EE19_M_get_Tp_allocatorEv
FNDA:12,_ZNSt12_Vector_baseISt4pairIPN14raptor_physics7vg_metaESt6vectorINS1_18contact_graph_edgeESaIS5_EEESaIS8_EE19_M_get_Tp_allocatorEv
FNDA:12,_ZNSt12_Vector_baseIPN14raptor_physics7vg_metaESaIS2_EE19_M_get_Tp_allocatorEv
FNDA:0,_ZNKSt12_Vector_baseIN14raptor_physics18contact_graph_edgeESaIS1_EE19_M_get_Tp_allocatorEv
FNDA:0,_ZNKSt12_Vector_baseISt4pairIPN14raptor_physics7vg_metaESt6vectorINS1_18contact_graph_edgeESaIS5_EEESaIS8_EE19_M_get_Tp_allocatorEv
FNDA:0,_ZNKSt12_Vector_baseIPN14raptor_physics7vg_metaESaIS2_EE19_M_get_Tp_allocatorEv
FNDA:0,_ZNSt12_Vector_baseIN14raptor_physics18contact_graph_edgeESaIS1_EEC2Ev
FNDA:12,_ZNSt12_Vector_baseISt4pairIPN14raptor_physics7vg_metaESt6vectorINS1_18contact_graph_edgeESaIS5_EEESaIS8_EEC2Ev
FNDA:12,_ZNSt12_Vector_baseIPN14raptor_physics7vg_metaESaIS2_EEC2Ev
FNDA:0,_ZNSt12_Vector_baseIN14raptor_physics18contact_graph_edgeESaIS1_EEC2EOS3_
FNDA:0,_ZNSt12_Vector_baseIN14raptor_physics18contact_graph_edgeESaIS1_EED2Ev
FNDA:12,_ZNSt12_Vector_baseISt4pairIPN14raptor_physics7vg_metaESt6vectorINS1_18contact_graph_edgeESaIS5_EEESaIS8_EED2Ev
FNDA:12,_ZNSt12_Vector_baseIPN14raptor_physics7vg_metaESaIS2_EED2Ev
FNDA:0,_ZNSt12_Vector_baseIN14raptor_physics18contact_graph_edgeESaIS1_EE11_M_allocateEm
FNDA:0,_ZNSt12_Vector_baseISt4pairIPN14raptor_physics7vg_metaESt6vectorINS1_18contact_graph_edgeESaIS5_EEESaIS8_EE11_M_allocateEm
FNDA:0,_ZNSt12_Vector_baseIPN14raptor_physics7vg_metaESaIS2_EE11_M_allocateEm
FNDA:0,_ZNSt12_Vector_baseIN14raptor_physics18contact_graph_edgeESaIS1_EE13_M_deallocateEPS1_m
FNDA:12,_ZNSt12_Vector_baseISt4pairIPN14raptor_physics7vg_metaESt6vectorINS1_18contact_graph_edgeESaIS5_EEESaIS8_EE13_M_deallocateEPS8_m
FNDA:12,_ZNSt12_Vector_baseIPN14raptor_physics7vg_metaESaIS2_EE13_M_deallocateEPS2_m
FNDA:0,_ZNSt6vectorIN14raptor_physics18contact_graph_edgeESaIS1_EEC2Ev
FNDA:12,_ZNSt6vectorISt4pairIPN14raptor_physics7vg_metaES_INS1_18contact_graph_edgeESaIS4_EEESaIS7_EEC2Ev
FNDA:12,_ZNSt6vectorIPN14raptor_physics7vg_metaESaIS2_EEC2Ev
FNDA:0,_ZNSt6vectorIN14raptor_physics18contact_graph_edgeESaIS1_EEC2EOS3_
FNDA:0,_ZNSt6vectorIN14raptor_physics18contact_graph_edgeESaIS1_EED2Ev
FNDA:12,_ZNSt6vectorISt4pairIPN14raptor_physics7vg_metaES_INS1_18contact_graph_edgeESaIS4_EEESaIS7_EED2Ev
FNDA:12,_ZNSt6vectorIPN14raptor_physics7vg_metaESaIS2_EED2Ev
FNDA:0,_ZNSt6vectorIPN14raptor_physics7vg_metaESaIS2_EE5beginEv
FNDA:0,_ZNSt6vectorIN14raptor_physics18contact_graph_edgeESaIS1_EE5beginEv
FNDA:0,_ZNSt6vectorISt4pairIPN14raptor_physics7vg_metaES_INS1_18contact_graph_edgeESaIS4_EEESaIS7_EE5beginEv
FNDA:168,_ZNSt6vectorIP10force_infoSaIS1_EE5beginEv
FNDA:0,_ZNKSt6vectorIN14raptor_physics18contact_graph_edgeESaIS1_EE5beginEv
FNDA:0,_ZNKSt6vectorISt4pairIPN14raptor_physics7vg_metaES_INS1_18contact_graph_edgeESaIS4_EEESaIS7_EE5beginEv
FNDA:0,_ZNKSt6vectorIPN14raptor_physics7vg_metaESaIS2_EE5beginEv
FNDA:0,_ZNSt6vectorIPN14raptor_physics7vg_metaESaIS2_EE3endEv
FNDA:0,_ZNSt6vectorIN14raptor_physics18contact_graph_edgeESaIS1_EE3endEv
FNDA:0,_ZNSt6vectorISt4pairIPN14raptor_physics7vg_metaES_INS1_18contact_graph_edgeESaIS4_EEESaIS7_EE3endEv
FNDA:216,_ZNSt6vectorIP10force_infoSaIS1_EE3endEv
FNDA:0,_ZNKSt6vectorIN14raptor_physics18contact_graph_edgeESaIS1_EE3endEv
FNDA:0,_ZNKSt6vectorISt4pairIPN14raptor_physics7vg_metaES_INS1_18contact_graph_edgeESaIS4_EEESaIS7_EE3endEv
FNDA:0,_ZNKSt6vectorIPN14raptor_physics7vg_metaESaIS2_EE3endEv
FNDA:0,_ZNKSt6vectorIN14raptor_physics18contact_graph_edgeESaIS1_EE4sizeEv
FNDA:0,_ZNKSt6vectorISt4pairIPN14raptor_physics7vg_metaES_INS1_18contact_graph_edgeESaIS4_EEESaIS7_EE4sizeEv
FNDA:0,_ZNKSt6vectorIPN14raptor_physics7vg_metaESaIS2_EE4sizeEv
FNDA:0,_ZNKSt6vectorIN14raptor_physics18contact_graph_edgeESaIS1_EE8max_sizeEv
FNDA:0,_ZNKSt6vectorISt4pairIPN14raptor_physics7vg_metaES_INS1_18contact_graph_edgeESaIS4_EEESaIS7_EE8max_sizeEv
FNDA:0,_ZNKSt6vectorIPN14raptor_physics7vg_metaESaIS2_EE8max_sizeEv
FNDA:0,_ZNSt6vectorISt4pairIPN14raptor_physics7vg_metaES_INS1_18contact_graph_edgeESaIS4_EEESaIS7_EEixEm
FNDA:0,_ZNKSt6vectorISt4pairIPN14raptor_physics7vg_metaES_INS1_18contact_graph_edgeESaIS4_EEESaIS7_EEixEm
FNDA:0,_ZNSt6vectorIPN14raptor_physics7vg_metaESaIS2_EE9push_backERKS2_
FNDA:0,_ZNSt6vectorISt4pairIPN14raptor_physics7vg_metaES_INS1_18contact_graph_edgeESaIS4_EEESaIS7_EE9push_backEOS7_
FNDA:0,_ZNSt6vectorIPN14raptor_physics7vg_metaESaIS2_EE5clearEv
FNDA:0,_ZNSt6vectorISt4pairIPN14raptor_physics7vg_metaES_INS1_18contact_graph_edgeESaIS4_EEESaIS7_EE5clearEv
FNDA:0,_ZNKSt6vectorIN14raptor_physics18contact_graph_edgeESaIS1_EE12_M_check_lenEmPKc
FNDA:0,_ZNKSt6vectorISt4pairIPN14raptor_physics7vg_metaES_INS1_18contact_graph_edgeESaIS4_EEESaIS7_EE12_M_check_lenEmPKc
FNDA:0,_ZNKSt6vectorIPN14raptor_physics7vg_metaESaIS2_EE12_M_check_lenEmPKc
FNDA:0,_ZNSt6vectorIPN14raptor_physics7vg_metaESaIS2_EE15_M_erase_at_endEPS2_
FNDA:0,_ZNSt6vectorISt4pairIPN14raptor_physics7vg_metaES_INS1_18contact_graph_edgeESaIS4_EEESaIS7_EE15_M_erase_at_endEPS7_
FNDA:12,_ZNSt6vectorIP10force_infoSaIS1_EE15_M_erase_at_endEPS1_
FNF:67
FNH:20
DA:79,24
DA:86,24
DA:87,24
DA:88,24
DA:95,0
DA:96,0
DA:97,0
DA:98,0
DA:101,0
DA:103,0
DA:104,0
DA:105,0
DA:106,0
DA:113,180
DA:114,180
DA:117,0
DA:118,0
DA:124,24
DA:125,24
DA:142,0
DA:143,0
DA:144,0
DA:159,24
DA:160,24
DA:161,48
DA:167,0
DA:168,0
DA:171,24
DA:173,24
DA:174,0
DA:175,24
DA:248,24
DA:249,24
DA:327,0
DA:328,0
DA:414,24
DA:415,24
DA:416,48
DA:538,168
DA:539,168
DA:547,0
DA:548,0
DA:556,216
DA:557,216
DA:565,0
DA:566,0
DA:645,0
DA:646,0
DA:650,0
DA:651,0
DA:770,0
DA:771,0
DA:785,0
DA:786,0
DA:901,0
DA:903,0
DA:905,0
DA:906,0
DA:907,0
DA:911,0
DA:915,0
DA:919,0
DA:920,0
DA:1125,0
DA:1126,0
DA:1336,0
DA:1338,0
DA:1339,0
DA:1341,0
DA:1342,0
DA:1350,12
DA:1352,12
DA:1353,12
DA:1354,12
LF:74
LH:27
end_of_record
SF:/usr/include/c++/4.8/bits/unique_ptr.h
FN:95,_ZNKSt14default_deleteIA_fEclEPf
FN:335,_ZNSt10unique_ptrIA_fSt14default_deleteIS0_EEC2EPf
FN:373,_ZNSt10unique_ptrIA_fSt14default_deleteIS0_EED2Ev
FN:409,_ZNKSt10unique_ptrIA_fSt14default_deleteIS0_EEixEm
FN:416,_ZNKSt10unique_ptrIA_fSt14default_deleteIS0_EE3getEv
FN:420,_ZNSt10unique_ptrIA_fSt14default_deleteIS0_EE11get_deleterEv
FNDA:0,_ZNKSt14default_deleteIA_fEclEPf
FNDA:0,_ZNSt10unique_ptrIA_fSt14default_deleteIS0_EEC2EPf
FNDA:0,_ZNSt10unique_ptrIA_fSt14default_deleteIS0_EED2Ev
FNDA:0,_ZNKSt10unique_ptrIA_fSt14default_deleteIS0_EEixEm
FNDA:0,_ZNKSt10unique_ptrIA_fSt14default_deleteIS0_EE3getEv
FNDA:0,_ZNSt10unique_ptrIA_fSt14default_deleteIS0_EE11get_deleterEv
FNF:6
FNH:0
DA:95,0
DA:99,0
DA:100,0
DA:335,0
DA:336,0
DA:338,0
DA:373,0
DA:375,0
DA:376,0
DA:377,0
DA:378,0
DA:379,0
DA:409,0
DA:412,0
DA:416,0
DA:417,0
DA:420,0
DA:421,0
LF:18
LH:0
end_of_record
SF:/usr/include/c++/4.8/bits/unordered_map.h
FN:248,_ZNSt13unordered_mapIiPN14raptor_physics7vg_metaESt4hashIiESt8equal_toIiESaISt4pairIKiS2_EEE5beginEv
FN:270,_ZNSt13unordered_mapIiPN14raptor_physics7vg_metaESt4hashIiESt8equal_toIiESaISt4pairIKiS2_EEE3endEv
FNDA:210,_ZNSt13unordered_mapIiPN14raptor_physics7vg_metaESt4hashIiESt8equal_toIiESaISt4pairIKiS2_EEE5beginEv
FNDA:1260,_ZNSt13unordered_mapIiPN14raptor_physics7vg_metaESt4hashIiESt8equal_toIiESaISt4pairIKiS2_EEE3endEv
FNF:2
FNH:2
DA:248,210
DA:249,210
DA:270,1260
DA:271,1260
LF:4
LH:4
end_of_record
SF:/usr/include/c++/4.8/bits/vector.tcc
FN:91,_ZNSt6vectorISt4pairIPN14raptor_physics7vg_metaES_INS1_18contact_graph_edgeESaIS4_EEESaIS7_EE12emplace_backIIS7_EEEvDpOT_
FN:91,_ZNSt6vectorIN14raptor_physics18contact_graph_edgeESaIS1_EE12emplace_backIIPNS0_14collision_infoERKiRiEEEvDpOT_
FN:91,_ZNSt6vectorIN14raptor_physics18contact_graph_edgeESaIS1_EE12emplace_backIIRKPNS0_14collision_infoERiS9_EEEvDpOT_
FN:146,_ZNSt6vectorIP10force_infoSaIS1_EE5eraseEN9__gnu_cxx17__normal_iteratorIPS1_S3_EES7_
FN:399,_ZNSt6vectorIN14raptor_physics18contact_graph_edgeESaIS1_EE19_M_emplace_back_auxIIPNS0_14collision_infoERKiRiEEEvDpOT_
FN:399,_ZNSt6vectorIN14raptor_physics18contact_graph_edgeESaIS1_EE19_M_emplace_back_auxIIRKPNS0_14collision_infoERiS9_EEEvDpOT_
FN:399,_ZNSt6vectorIPN14raptor_physics7vg_metaESaIS2_EE19_M_emplace_back_auxIIRKS2_EEEvDpOT_
FN:399,_ZNSt6vectorISt4pairIPN14raptor_physics7vg_metaES_INS1_18contact_graph_edgeESaIS4_EEESaIS7_EE19_M_emplace_back_auxIIS7_EEEvDpOT_
FNDA:0,_ZNSt6vectorIN14raptor_physics18contact_graph_edgeESaIS1_EE12emplace_backIIPNS0_14collision_infoERKiRiEEEvDpOT_
FNDA:0,_ZNSt6vectorIN14raptor_physics18contact_graph_edgeESaIS1_EE12emplace_backIIRKPNS0_14collision_infoERiS9_EEEvDpOT_
FNDA:0,_ZNSt6vectorISt4pairIPN14raptor_physics7vg_metaES_INS1_18contact_graph_edgeESaIS4_EEESaIS7_EE12emplace_backIIS7_EEEvDpOT_
FNDA:24,_ZNSt6vectorIP10force_infoSaIS1_EE5eraseEN9__gnu_cxx17__normal_iteratorIPS1_S3_EES7_
FNDA:0,_ZNSt6vectorIN14raptor_physics18contact_graph_edgeESaIS1_EE19_M_emplace_back_auxIIPNS0_14collision_infoERKiRiEEEvDpOT_
FNDA:0,_ZNSt6vectorIN14raptor_physics18contact_graph_edgeESaIS1_EE19_M_emplace_back_auxIIRKPNS0_14collision_infoERiS9_EEEvDpOT_
FNDA:0,_ZNSt6vectorISt4pairIPN14raptor_physics7vg_metaES_INS1_18contact_graph_edgeESaIS4_EEESaIS7_EE19_M_emplace_back_auxIIS7_EEEvDpOT_
FNDA:0,_ZNSt6vectorIPN14raptor_physics7vg_metaESaIS2_EE19_M_emplace_back_auxIIRKS2_EEEvDpOT_
FNF:8
FNH:1
DA:91,0
DA:94,0
DA:96,0
DA:97,0
DA:98,0
DA:101,0
DA:102,0
DA:146,24
DA:149,24
DA:151,12
DA:152,0
DA:153,12
DA:155,24
DA:399,0
DA:403,0
DA:404,0
DA:405,0
DA:408,0
DA:409,0
DA:410,0
DA:412,0
DA:415,0
DA:417,0
DA:419,=====
DA:421,=====
DA:422,=====
DA:424,=====
DA:425,=====
DA:426,=====
DA:428,0
DA:429,0
DA:430,0
DA:432,0
DA:433,0
DA:434,0
DA:435,0
DA:436,0
LF:37
LH:5
end_of_record
SF:/usr/include/c++/4.8/cmath
FN:260,_ZSt4fabsf
FN:482,_ZSt4sqrtf
FNDA:2568,_ZSt4fabsf
FNDA:2484,_ZSt4sqrtf
FNF:2
FNH:2
DA:260,2568
DA:261,2568
DA:482,2484
DA:483,2484
LF:4
LH:4
end_of_record
SF:/usr/include/c++/4.8/ext/atomicity.h
FN:48,_ZN9__gnu_cxxL18__exchange_and_addEPVii
FN:65,_ZN9__gnu_cxxL25__exchange_and_add_singleEPii
FN:78,_ZN9__gnu_cxxL27__exchange_and_add_dispatchEPii
FNDA:0,_ZN9__gnu_cxxL18__exchange_and_addEPVii
FNDA:0,_ZN9__gnu_cxxL25__exchange_and_add_singleEPii
FNDA:0,_ZN9__gnu_cxxL27__exchange_and_add_dispatchEPii
FNF:3
FNH:0
DA:48,0
DA:49,0
DA:65,0
DA:67,0
DA:68,0
DA:69,0
DA:78,0
DA:81,0
DA:82,0
DA:84,0
LF:10
LH:0
end_of_record
SF:/usr/include/c++/4.8/ext/new_allocator.h
FN:79,_ZN9__gnu_cxx13new_allocatorIPN14raptor_physics7vg_metaEEC2Ev
FN:79,_ZN9__gnu_cxx13new_allocatorISt4pairIPN14raptor_physics7vg_metaESt6vectorINS2_18contact_graph_edgeESaIS6_EEEEC2Ev
FN:79,_ZN9__gnu_cxx13new_allocatorIN14raptor_physics18contact_graph_edgeEEC2Ev
FN:79,_ZN9__gnu_cxx13new_allocatorISt4pairIKPN14raptor_physics7vg_metaEPNS2_14collision_infoEEEC2Ev
FN:79,_ZN9__gnu_cxx13new_allocatorISt13_Rb_tree_nodeISt4pairIKPN14raptor_physics7vg_metaEPNS3_14collision_infoEEEEC2Ev
FN:79,_ZN9__gnu_cxx13new_allocatorIcEC2Ev
FN:81,_ZN9__gnu_cxx13new_allocatorISt4pairIKPN14raptor_physics7vg_metaEPNS2_14collision_infoEEEC2ERKS9_
FN:81,_ZN9__gnu_cxx13new_allocatorISt13_Rb_tree_nodeISt4pairIKPN14raptor_physics7vg_metaEPNS3_14collision_infoEEEEC2ERKSB_
FN:81,_ZN9__gnu_cxx13new_allocatorIcEC2ERKS1_
FN:81,_ZN9__gnu_cxx13new_allocatorIN14raptor_physics18contact_graph_edgeEEC2ERKS3_
FN:86,_ZN9__gnu_cxx13new_allocatorISt13_Rb_tree_nodeISt4pairIKPN14raptor_physics7vg_metaEPNS3_14collision_infoEEEED2Ev
FN:86,_ZN9__gnu_cxx13new_allocatorISt4pairIPN14raptor_physics7vg_metaESt6vectorINS2_18contact_graph_edgeESaIS6_EEEED2Ev
FN:86,_ZN9__gnu_cxx13new_allocatorIcED2Ev
FN:86,_ZN9__gnu_cxx13new_allocatorIN14raptor_physics18contact_graph_edgeEED2Ev
FN:86,_ZN9__gnu_cxx13new_allocatorIPN14raptor_physics7vg_metaEED2Ev
FN:86,_ZN9__gnu_cxx13new_allocatorISt4pairIKPN14raptor_physics7vg_metaEPNS2_14collision_infoEEED2Ev
FN:99,_ZN9__gnu_cxx13new_allocatorIPN14raptor_physics7vg_metaEE8allocateEmPKv
FN:99,_ZN9__gnu_cxx13new_allocatorISt13_Rb_tree_nodeISt4pairIKPN14raptor_physics7vg_metaEPNS3_14collision_infoEEEE8allocateEmPKv
FN:99,_ZN9__gnu_cxx13new_allocatorISt4pairIPN14raptor_physics7vg_metaESt6vectorINS2_18contact_graph_edgeESaIS6_EEEE8allocateEmPKv
FN:99,_ZN9__gnu_cxx13new_allocatorISt13_Rb_tree_nodeISt4pairIKPN14raptor_physics7vg_metaEPNS3_13tracking_infoIS4_EEEEE8allocateEmPKv
FN:99,_ZN9__gnu_cxx13new_allocatorIN14raptor_physics18contact_graph_edgeEE8allocateEmPKv
FN:109,_ZN9__gnu_cxx13new_allocatorISt13_Rb_tree_nodeISt4pairIKPN14raptor_physics7vg_metaEPNS3_14collision_infoEEEE10deallocateEPSA_m
FN:109,_ZN9__gnu_cxx13new_allocatorISt13_Rb_tree_nodeISt4pairIKPN14raptor_physics7vg_metaEPNS3_13tracking_infoIS4_EEEEE10deallocateEPSB_m
FN:109,_ZN9__gnu_cxx13new_allocatorIN14raptor_physics18contact_graph_edgeEE10deallocateEPS2_m
FN:109,_ZN9__gnu_cxx13new_allocatorISt4pairIPN14raptor_physics7vg_metaESt6vectorINS2_18contact_graph_edgeESaIS6_EEEE10deallocateEPS9_m
FN:109,_ZN9__gnu_cxx13new_allocatorIPN14raptor_physics7vg_metaEE10deallocateEPS3_m
FN:113,_ZNK9__gnu_cxx13new_allocatorIN14raptor_physics18contact_graph_edgeEE8max_sizeEv
FN:113,_ZNK9__gnu_cxx13new_allocatorIPN14raptor_physics7vg_metaEE8max_sizeEv
FN:113,_ZNK9__gnu_cxx13new_allocatorISt4pairIPN14raptor_physics7vg_metaESt6vectorINS2_18contact_graph_edgeESaIS6_EEEE8max_sizeEv
FN:113,_ZNK9__gnu_cxx13new_allocatorISt13_Rb_tree_nodeISt4pairIKPN14raptor_physics7vg_metaEPNS3_14collision_infoEEEE8max_sizeEv
FN:113,_ZNK9__gnu_cxx13new_allocatorISt13_Rb_tree_nodeISt4pairIKPN14raptor_physics7vg_metaEPNS3_13tracking_infoIS4_EEEEE8max_sizeEv
FN:119,_ZN9__gnu_cxx13new_allocatorIN14raptor_physics18contact_graph_edgeEE9constructIS2_IRKPNS1_14collision_infoERiS9_EEEvPT_DpOT0_
FN:119,_ZN9__gnu_cxx13new_allocatorISt4pairIPN14raptor_physics7vg_metaESt6vectorINS2_18contact_graph_edgeESaIS6_EEEE9constructIS9_IS9_EEEvPT_DpOT0_
FN:119,_ZN9__gnu_cxx13new_allocatorIPN14raptor_physics7vg_metaEE9constructIS3_IRKS3_EEEvPT_DpOT0_
FN:119,_ZN9__gnu_cxx13new_allocatorISt13_Rb_tree_nodeISt4pairIKPN14raptor_physics7vg_metaEPNS3_13tracking_infoIS4_EEEEE9constructISB_IRKSA_EEEvPT_DpOT0_
FN:119,_ZN9__gnu_cxx13new_allocatorISt13_Rb_tree_nodeISt4pairIKPN14raptor_physics7vg_metaEPNS3_13tracking_infoIS4_EEEEE9constructISB_IRKSt21piecewise_construct_tSt5tupleIIRS6_EESH_IIEEEEEvPT_DpOT0_
FN:119,_ZN9__gnu_cxx13new_allocatorISt13_Rb_tree_nodeISt4pairIKPN14raptor_physics7vg_metaEPNS3_14collision_infoEEEE9constructISA_IRKS9_EEEvPT_DpOT0_
FN:119,_ZN9__gnu_cxx13new_allocatorIN14raptor_physics18contact_graph_edgeEE9constructIS2_IPNS1_14collision_infoERKiRiEEEvPT_DpOT0_
FN:124,_ZN9__gnu_cxx13new_allocatorIN14raptor_physics18contact_graph_edgeEE7destroyIS2_EEvPT_
FN:124,_ZN9__gnu_cxx13new_allocatorISt13_Rb_tree_nodeISt4pairIKPN14raptor_physics7vg_metaEPNS3_14collision_infoEEEE7destroyISA_EEvPT_
FN:124,_ZN9__gnu_cxx13new_allocatorISt13_Rb_tree_nodeISt4pairIKPN14raptor_physics7vg_metaEPNS3_13tracking_infoIS4_EEEEE7destroyISB_EEvPT_
FN:124,_ZN9__gnu_cxx13new_allocatorIPN14raptor_physics7vg_metaEE7destroyIS3_EEvPT_
FN:124,_ZN9__gnu_cxx13new_allocatorISt4pairIPN14raptor_physics7vg_metaESt6vectorINS2_18contact_graph_edgeESaIS6_EEEE7destroyIS9_EEvPT_
FNDA:0,_ZN9__gnu_cxx13new_allocatorIN14raptor_physics18contact_graph_edgeEEC2Ev
FNDA:12,_ZN9__gnu_cxx13new_allocatorISt4pairIPN14raptor_physics7vg_metaESt6vectorINS2_18contact_graph_edgeESaIS6_EEEEC2Ev
FNDA:12,_ZN9__gnu_cxx13new_allocatorIPN14raptor_physics7vg_metaEEC2Ev
FNDA:36,_ZN9__gnu_cxx13new_allocatorISt13_Rb_tree_nodeISt4pairIKPN14raptor_physics7vg_metaEPNS3_14collision_infoEEEEC2Ev
FNDA:36,_ZN9__gnu_cxx13new_allocatorISt4pairIKPN14raptor_physics7vg_metaEPNS2_14collision_infoEEEC2Ev
FNDA:0,_ZN9__gnu_cxx13new_allocatorIcEC2Ev
FNDA:0,_ZN9__gnu_cxx13new_allocatorIN14raptor_physics18contact_graph_edgeEEC2ERKS3_
FNDA:36,_ZN9__gnu_cxx13new_allocatorISt13_Rb_tree_nodeISt4pairIKPN14raptor_physics7vg_metaEPNS3_14collision_infoEEEEC2ERKSB_
FNDA:36,_ZN9__gnu_cxx13new_allocatorISt4pairIKPN14raptor_physics7vg_metaEPNS2_14collision_infoEEEC2ERKS9_
FNDA:0,_ZN9__gnu_cxx13new_allocatorIcEC2ERKS1_
FNDA:0,_ZN9__gnu_cxx13new_allocatorIN14raptor_physics18contact_graph_edgeEED2Ev
FNDA:12,_ZN9__gnu_cxx13new_allocatorISt4pairIPN14raptor_physics7vg_metaESt6vectorINS2_18contact_graph_edgeESaIS6_EEEED2Ev
FNDA:12,_ZN9__gnu_cxx13new_allocatorIPN14raptor_physics7vg_metaEED2Ev
FNDA:72,_ZN9__gnu_cxx13new_allocatorISt13_Rb_tree_nodeISt4pairIKPN14raptor_physics7vg_metaEPNS3_14collision_infoEEEED2Ev
FNDA:72,_ZN9__gnu_cxx13new_allocatorISt4pairIKPN14raptor_physics7vg_metaEPNS2_14collision_infoEEED2Ev
FNDA:0,_ZN9__gnu_cxx13new_allocatorIcED2Ev
FNDA:0,_ZN9__gnu_cxx13new_allocatorIN14raptor_physics18contact_graph_edgeEE8allocateEmPKv
FNDA:0,_ZN9__gnu_cxx13new_allocatorISt4pairIPN14raptor_physics7vg_metaESt6vectorINS2_18contact_graph_edgeESaIS6_EEEE8allocateEmPKv
FNDA:48,_ZN9__gnu_cxx13new_allocatorISt13_Rb_tree_nodeISt4pairIKPN14raptor_physics7vg_metaEPNS3_14collision_infoEEEE8allocateEmPKv
FNDA:0,_ZN9__gnu_cxx13new_allocatorIPN14raptor_physics7vg_metaEE8allocateEmPKv
FNDA:36,_ZN9__gnu_cxx13new_allocatorISt13_Rb_tree_nodeISt4pairIKPN14raptor_physics7vg_metaEPNS3_13tracking_infoIS4_EEEEE8allocateEmPKv
FNDA:0,_ZN9__gnu_cxx13new_allocatorIN14raptor_physics18contact_graph_edgeEE10deallocateEPS2_m
FNDA:48,_ZN9__gnu_cxx13new_allocatorISt13_Rb_tree_nodeISt4pairIKPN14raptor_physics7vg_metaEPNS3_14collision_infoEEEE10deallocateEPSA_m
FNDA:36,_ZN9__gnu_cxx13new_allocatorISt13_Rb_tree_nodeISt4pairIKPN14raptor_physics7vg_metaEPNS3_13tracking_infoIS4_EEEEE10deallocateEPSB_m
FNDA:0,_ZN9__gnu_cxx13new_allocatorISt4pairIPN14raptor_physics7vg_metaESt6vectorINS2_18contact_graph_edgeESaIS6_EEEE10deallocateEPS9_m
FNDA:0,_ZN9__gnu_cxx13new_allocatorIPN14raptor_physics7vg_metaEE10deallocateEPS3_m
FNDA:0,_ZNK9__gnu_cxx13new_allocatorIN14raptor_physics18contact_graph_edgeEE8max_sizeEv
FNDA:0,_ZNK9__gnu_cxx13new_allocatorISt4pairIPN14raptor_physics7vg_metaESt6vectorINS2_18contact_graph_edgeESaIS6_EEEE8max_sizeEv
FNDA:48,_ZNK9__gnu_cxx13new_allocatorISt13_Rb_tree_nodeISt4pairIKPN14raptor_physics7vg_metaEPNS3_14collision_infoEEEE8max_sizeEv
FNDA:0,_ZNK9__gnu_cxx13new_allocatorIPN14raptor_physics7vg_metaEE8max_sizeEv
FNDA:36,_ZNK9__gnu_cxx13new_allocatorISt13_Rb_tree_nodeISt4pairIKPN14raptor_physics7vg_metaEPNS3_13tracking_infoIS4_EEEEE8max_sizeEv
FNDA:48,_ZN9__gnu_cxx13new_allocatorISt13_Rb_tree_nodeISt4pairIKPN14raptor_physics7vg_metaEPNS3_14collision_infoEEEE9constructISA_IRKS9_EEEvPT_DpOT0_
FNDA:0,_ZN9__gnu_cxx13new_allocatorIN14raptor_physics18contact_graph_edgeEE9constructIS2_IPNS1_14collision_infoERKiRiEEEvPT_DpOT0_
FNDA:0,_ZN9__gnu_cxx13new_allocatorIN14raptor_physics18contact_graph_edgeEE9constructIS2_IRKPNS1_14collision_infoERiS9_EEEvPT_DpOT0_
FNDA:0,_ZN9__gnu_cxx13new_allocatorISt4pairIPN14raptor_physics7vg_metaESt6vectorINS2_18contact_graph_edgeESaIS6_EEEE9constructIS9_IS9_EEEvPT_DpOT0_
FNDA:36,_ZN9__gnu_cxx13new_allocatorISt13_Rb_tree_nodeISt4pairIKPN14raptor_physics7vg_metaEPNS3_13tracking_infoIS4_EEEEE9constructISB_IRKSA_EEEvPT_DpOT0_
FNDA:0,_ZN9__gnu_cxx13new_allocatorIPN14raptor_physics7vg_metaEE9constructIS3_IRKS3_EEEvPT_DpOT0_
FNDA:0,_ZN9__gnu_cxx13new_allocatorISt13_Rb_tree_nodeISt4pairIKPN14raptor_physics7vg_metaEPNS3_13tracking_infoIS4_EEEEE9constructISB_IRKSt21piecewise_construct_tSt5tupleIIRS6_EESH_IIEEEEEvPT_DpOT0_
FNDA:0,_ZN9__gnu_cxx13new_allocatorIN14raptor_physics18contact_graph_edgeEE7destroyIS2_EEvPT_
FNDA:0,_ZN9__gnu_cxx13new_allocatorISt4pairIPN14raptor_physics7vg_metaESt6vectorINS2_18contact_graph_edgeESaIS6_EEEE7destroyIS9_EEvPT_
FNDA:0,_ZN9__gnu_cxx13new_allocatorIPN14raptor_physics7vg_metaEE7destroyIS3_EEvPT_
FNDA:48,_ZN9__gnu_cxx13new_allocatorISt13_Rb_tree_nodeISt4pairIKPN14raptor_physics7vg_metaEPNS3_14collision_infoEEEE7destroyISA_EEvPT_
FNDA:36,_ZN9__gnu_cxx13new_allocatorISt13_Rb_tree_nodeISt4pairIKPN14raptor_physics7vg_metaEPNS3_13tracking_infoIS4_EEEEE7destroyISB_EEvPT_
FNF:43
FNH:20
DA:79,96
DA:81,72
DA:86,168
DA:99,84
DA:101,84
DA:102,0
DA:104,84
DA:109,84
DA:110,84
DA:113,84
DA:114,84
DA:119,84
DA:120,84
DA:124,84
LF:14
LH:13
end_of_record
SF:/usr/include/c++/4.8/ext/type_traits.h
FN:150,_ZN9__gnu_cxx17__is_null_pointerIcEEbPT_
FNDA:0,_ZN9__gnu_cxx17__is_null_pointerIcEEbPT_
FNF:1
FNH:0
DA:150,0
DA:151,0
LF:2
LH:0
end_of_record
SF:/usr/include/c++/4.8/initializer_list
FN:71,_ZNKSt16initializer_listISt4pairIKPN14raptor_physics7vg_metaEPNS1_14collision_infoEEE4sizeEv
FN:75,_ZNKSt16initializer_listISt4pairIKPN14raptor_physics7vg_metaEPNS1_14collision_infoEEE5beginEv
FN:79,_ZNKSt16initializer_listISt4pairIKPN14raptor_physics7vg_metaEPNS1_14collision_infoEEE3endEv
FNDA:36,_ZNKSt16initializer_listISt4pairIKPN14raptor_physics7vg_metaEPNS1_14collision_infoEEE4sizeEv
FNDA:72,_ZNKSt16initializer_listISt4pairIKPN14raptor_physics7vg_metaEPNS1_14collision_infoEEE5beginEv
FNDA:36,_ZNKSt16initializer_listISt4pairIKPN14raptor_physics7vg_metaEPNS1_14collision_infoEEE3endEv
FNF:3
FNH:3
DA:71,36
DA:75,72
DA:79,36
LF:3
LH:3
end_of_record
SF:/usr/include/c++/4.8/iomanip
FN:192,_ZSt12setprecisioni
FN:222,_ZSt4setwi
FNDA:0,_ZSt12setprecisioni
FNDA:0,_ZSt4setwi
FNF:2
FNH:0
DA:192,0
DA:193,0
DA:222,0
DA:223,0
LF:4
LH:0
end_of_record
SF:/usr/include/c++/4.8/iostream
DA:74,6
LF:1
LH:1
end_of_record
SF:/usr/include/c++/4.8/limits
FN:1561,_ZNSt14numeric_limitsIfE3maxEv
FN:1565,_ZNSt14numeric_limitsIfE6lowestEv
FN:1599,_ZNSt14numeric_limitsIfE8infinityEv
FNDA:90,_ZNSt14numeric_limitsIfE3maxEv
FNDA:0,_ZNSt14numeric_limitsIfE6lowestEv
FNDA:216,_ZNSt14numeric_limitsIfE8infinityEv
FNF:3
FNH:2
DA:1561,90
DA:1565,0
DA:1599,216
LF:3
LH:2
end_of_record
SF:/usr/include/c++/4.8/new
FN:109,_ZnwmPv
FN:115,_ZdlPvS_
FNDA:8592,_ZnwmPv
FNDA:0,_ZdlPvS_
FNF:2
FNH:1
DA:109,8592
DA:110,8592
DA:115,0
LF:3
LH:2
end_of_record
SF:/usr/include/c++/4.8/sstream
FN:64,_ZNSt15basic_stringbufIcSt11char_traitsIcESaIcEED0Ev
FN:64,_ZNSt15basic_stringbufIcSt11char_traitsIcESaIcEED2Ev
FNDA:0,_ZNSt15basic_stringbufIcSt11char_traitsIcESaIcEED0Ev
FNDA:0,_ZNSt15basic_stringbufIcSt11char_traitsIcESaIcEED2Ev
FNF:2
FNH:0
DA:64,0
LF:1
LH:0
end_of_record
SF:/usr/include/c++/4.8/tuple
FN:94,_ZNSt10_Head_baseILm1ESt14default_deleteIA_fELb1EEC2IS2_vEEOT_
FN:121,_ZNSt10_Head_baseILm1ESt14default_deleteIA_fELb1EE7_M_headERS3_
FN:133,_ZNSt10_Head_baseILm0ERKPN14raptor_physics7vg_metaELb0EEC2ES4_
FN:139,_ZNSt10_Head_baseILm0EPfLb0EEC2IRS0_vEEOT_
FN:167,_ZNSt10_Head_baseILm0EPfLb0EE7_M_headERS1_
FN:167,_ZNSt10_Head_baseILm0ERKPN14raptor_physics7vg_metaELb0EE7_M_headERS5_
FN:170,_ZNSt10_Head_baseILm0EPfLb0EE7_M_headERKS1_
FN:195,_ZNSt11_Tuple_implILm2EIEEC2Ev
FN:195,_ZNSt11_Tuple_implILm1EIEEC2Ev
FN:239,_ZNSt11_Tuple_implILm1EISt14default_deleteIA_fEEE7_M_headERS3_
FN:239,_ZNSt11_Tuple_implILm0EIPfSt14default_deleteIA_fEEE7_M_headERS4_
FN:239,_ZNSt11_Tuple_implILm0EIRKPN14raptor_physics7vg_metaEEE7_M_headERS5_
FN:242,_ZNSt11_Tuple_implILm0EIPfSt14default_deleteIA_fEEE7_M_headERKS4_
FN:245,_ZNSt11_Tuple_implILm0EIRKPN14raptor_physics7vg_metaEEE7_M_tailERS5_
FN:254,_ZNSt11_Tuple_implILm0EIRKPN14raptor_physics7vg_metaEEEC2ES4_
FN:260,_ZNSt11_Tuple_implILm0EIPfSt14default_deleteIA_fEEEC2IRS0_IS3_EvEEOT_DpOT0_
FN:260,_ZNSt11_Tuple_implILm1EISt14default_deleteIA_fEEEC2IS2_IEvEEOT_DpOT0_
FN:267,_ZNSt11_Tuple_implILm0EIRKPN14raptor_physics7vg_metaEEEC2EOS5_
FN:397,_ZNSt5tupleIIRKPN14raptor_physics7vg_metaEEEC2ES4_
FN:409,_ZNSt5tupleIIRKPN14raptor_physics7vg_metaEEEC2EOS5_
FN:537,_ZNSt5tupleIIPfSt14default_deleteIA_fEEEC2IRS0_S3_vEEOT_OT0_
FN:742,_ZSt12__get_helperILm0ERKPN14raptor_physics7vg_metaEIEENSt9__add_refIT0_E4typeERSt11_Tuple_implIXT_EIS6_DpT1_EE
FN:742,_ZSt12__get_helperILm0EPfISt14default_deleteIA_fEEENSt9__add_refIT0_E4typeERSt11_Tuple_implIXT_EIS5_DpT1_EE
FN:742,_ZSt12__get_helperILm1ESt14default_deleteIA_fEIEENSt9__add_refIT0_E4typeERSt11_Tuple_implIXT_EIS4_DpT1_EE
FN:747,_ZSt12__get_helperILm0EPfISt14default_deleteIA_fEEENSt11__add_c_refIT0_E4typeERKSt11_Tuple_implIXT_EIS5_DpT1_EE
FN:757,_ZSt3getILm1EIPfSt14default_deleteIA_fEEENSt9__add_refINSt13tuple_elementIXT_ESt5tupleIIDpT0_EEE4typeEE4typeERS9_
FN:757,_ZSt3getILm0EIRKPN14raptor_physics7vg_metaEEENSt9__add_refINSt13tuple_elementIXT_ESt5tupleIIDpT0_EEE4typeEE4typeERSA_
FN:757,_ZSt3getILm0EIPfSt14default_deleteIA_fEEENSt9__add_refINSt13tuple_elementIXT_ESt5tupleIIDpT0_EEE4typeEE4typeERS9_
FN:764,_ZSt3getILm0EIPfSt14default_deleteIA_fEEENSt11__add_c_refINSt13tuple_elementIXT_ESt5tupleIIDpT0_EEE4typeEE4typeERKS9_
FN:1072,_ZNSt4pairIKPN14raptor_physics7vg_metaEPNS0_13tracking_infoIS1_EEEC2IIRS3_EIEEESt21piecewise_construct_tSt5tupleIIDpT_EESB_IIDpT0_EE
FN:1084,_ZNSt4pairIKPN14raptor_physics7vg_metaEPNS0_13tracking_infoIS1_EEEC2IIRS3_EILm0EEIEIEEERSt5tupleIIDpT_EERSA_IIDpT1_EESt12_Index_tupleIIXspT0_EEESJ_IIXspT2_EEE
FNDA:0,_ZNSt10_Head_baseILm1ESt14default_deleteIA_fELb1EEC2IS2_vEEOT_
FNDA:0,_ZNSt10_Head_baseILm1ESt14default_deleteIA_fELb1EE7_M_headERS3_
FNDA:0,_ZNSt10_Head_baseILm0ERKPN14raptor_physics7vg_metaELb0EEC2ES4_
FNDA:0,_ZNSt10_Head_baseILm0EPfLb0EEC2IRS0_vEEOT_
FNDA:0,_ZNSt10_Head_baseILm0ERKPN14raptor_physics7vg_metaELb0EE7_M_headERS5_
FNDA:0,_ZNSt10_Head_baseILm0EPfLb0EE7_M_headERS1_
FNDA:0,_ZNSt10_Head_baseILm0EPfLb0EE7_M_headERKS1_
FNDA:102,_ZNSt11_Tuple_implILm2EIEEC2Ev
FNDA:0,_ZNSt11_Tuple_implILm1EIEEC2Ev
FNDA:0,_ZNSt11_Tuple_implILm0EIRKPN14raptor_physics7vg_metaEEE7_M_headERS5_
FNDA:0,_ZNSt11_Tuple_implILm1EISt14default_deleteIA_fEEE7_M_headERS3_
FNDA:0,_ZNSt11_Tuple_implILm0EIPfSt14default_deleteIA_fEEE7_M_headERS4_
FNDA:0,_ZNSt11_Tuple_implILm0EIPfSt14default_deleteIA_fEEE7_M_headERKS4_
FNDA:0,_ZNSt11_Tuple_implILm0EIRKPN14raptor_physics7vg_metaEEE7_M_tailERS5_
FNDA:0,_ZNSt11_Tuple_implILm0EIRKPN14raptor_physics7vg_metaEEEC2ES4_
FNDA:0,_ZNSt11_Tuple_implILm0EIPfSt14default_deleteIA_fEEEC2IRS0_IS3_EvEEOT_DpOT0_
FNDA:0,_ZNSt11_Tuple_implILm1EISt14default_deleteIA_fEEEC2IS2_IEvEEOT_DpOT0_
FNDA:0,_ZNSt11_Tuple_implILm0EIRKPN14raptor_physics7vg_metaEEEC2EOS5_
FNDA:0,_ZNSt5tupleIIRKPN14raptor_physics7vg_metaEEEC2ES4_
FNDA:0,_ZNSt5tupleIIRKPN14raptor_physics7vg_metaEEEC2EOS5_
FNDA:0,_ZNSt5tupleIIPfSt14default_deleteIA_fEEEC2IRS0_S3_vEEOT_OT0_
FNDA:0,_ZSt12__get_helperILm0ERKPN14raptor_physics7vg_metaEIEENSt9__add_refIT0_E4typeERSt11_Tuple_implIXT_EIS6_DpT1_EE
FNDA:0,_ZSt12__get_helperILm1ESt14default_deleteIA_fEIEENSt9__add_refIT0_E4typeERSt11_Tuple_implIXT_EIS4_DpT1_EE
FNDA:0,_ZSt12__get_helperILm0EPfISt14default_deleteIA_fEEENSt9__add_refIT0_E4typeERSt11_Tuple_implIXT_EIS5_DpT1_EE
FNDA:0,_ZSt12__get_helperILm0EPfISt14default_deleteIA_fEEENSt11__add_c_refIT0_E4typeERKSt11_Tuple_implIXT_EIS5_DpT1_EE
FNDA:0,_ZSt3getILm0EIRKPN14raptor_physics7vg_metaEEENSt9__add_refINSt13tuple_elementIXT_ESt5tupleIIDpT0_EEE4typeEE4typeERSA_
FNDA:0,_ZSt3getILm1EIPfSt14default_deleteIA_fEEENSt9__add_refINSt13tuple_elementIXT_ESt5tupleIIDpT0_EEE4typeEE4typeERS9_
FNDA:0,_ZSt3getILm0EIPfSt14default_deleteIA_fEEENSt9__add_refINSt13tuple_elementIXT_ESt5tupleIIDpT0_EEE4typeEE4typeERS9_
FNDA:0,_ZSt3getILm0EIPfSt14default_deleteIA_fEEENSt11__add_c_refINSt13tuple_elementIXT_ESt5tupleIIDpT0_EEE4typeEE4typeERKS9_
FNDA:0,_ZNSt4pairIKPN14raptor_physics7vg_metaEPNS0_13tracking_infoIS1_EEEC2IIRS3_EIEEESt21piecewise_construct_tSt5tupleIIDpT_EESB_IIDpT0_EE
FNDA:0,_ZNSt4pairIKPN14raptor_physics7vg_metaEPNS0_13tracking_infoIS1_EEEC2IIRS3_EILm0EEIEIEEERSt5tupleIIDpT_EERSA_IIDpT1_EESt12_Index_tupleIIXspT0_EEESJ_IIXspT2_EEE
FNF:31
FNH:1
DA:94,0
DA:95,0
DA:121,0
DA:133,0
DA:134,0
DA:139,0
DA:140,0
DA:167,0
DA:170,0
DA:195,102
DA:239,0
DA:242,0
DA:245,0
DA:254,0
DA:255,0
DA:260,0
DA:261,0
DA:262,0
DA:267,0
DA:270,0
DA:271,0
DA:397,0
DA:398,0
DA:409,0
DA:537,0
DA:538,0
DA:742,0
DA:743,0
DA:747,0
DA:748,0
DA:757,0
DA:758,0
DA:764,0
DA:765,0
DA:1072,0
DA:1077,0
DA:1078,0
DA:1084,0
DA:1087,0
DA:1088,0
DA:1089,0
LF:41
LH:1
end_of_record
SF:/usr/include/x86_64-linux-gnu/c++/4.8/bits/gthr-default.h
FN:247,_ZL18__gthread_active_pv
FNDA:0,_ZL18__gthread_active_pv
FNF:1
FNH:0
DA:247,0
DA:251,0
LF:2
LH:0
end_of_record
SF:/home/bruce/work/RAPTor/physics_engine/collision_info.h
FN:19,_ZN14raptor_physics14collision_infoC2EPNS_7simplexERKS1_fNS_11collision_tE
FN:33,_ZN14raptor_physics14collision_info6updateEPNS_7simplexERKS1_fNS_11collision_tE
FN:50,_ZN14raptor_physics14collision_info24successful_retest_updateEPNS_7simplexERKS1_
FN:60,_ZN14raptor_physics14collision_info14void_collisionEv
FN:68,_ZNK14raptor_physics14collision_info11get_simplexEv
FN:69,_ZNK14raptor_physics14collision_info23get_normal_of_collisionEv
FN:70,_ZNK14raptor_physics14collision_info22get_point_of_collisionEv
FN:71,_ZNK14raptor_physics14collision_info8get_timeEv
FN:72,_ZNK14raptor_physics14collision_info8get_typeEv
FNDA:48,_ZN14raptor_physics14collision_infoC2EPNS_7simplexERKS1_fNS_11collision_tE
FNDA:0,_ZN14raptor_physics14collision_info6updateEPNS_7simplexERKS1_fNS_11collision_tE
FNDA:0,_ZN14raptor_physics14collision_info24successful_retest_updateEPNS_7simplexERKS1_
FNDA:24,_ZN14raptor_physics14collision_info14void_collisionEv
FNDA:0,_ZNK14raptor_physics14collision_info11get_simplexEv
FNDA:54,_ZNK14raptor_physics14collision_info23get_normal_of_collisionEv
FNDA:54,_ZNK14raptor_physics14collision_info22get_point_of_collisionEv
FNDA:132,_ZNK14raptor_physics14collision_info8get_timeEv
FNDA:102,_ZNK14raptor_physics14collision_info8get_typeEv
FNF:9
FNH:6
DA:19,48
DA:21,48
DA:22,96
DA:24,192
DA:33,0
DA:35,0
DA:36,0
DA:37,0
DA:40,0
DA:42,0
DA:43,0
DA:46,0
DA:50,0
DA:52,0
DA:53,0
DA:54,0
DA:55,0
DA:56,0
DA:60,24
DA:62,24
DA:63,24
DA:64,24
DA:68,0
DA:69,54
DA:70,54
DA:71,132
DA:72,102
LF:27
LH:12
end_of_record
SF:/home/bruce/work/RAPTor/physics_engine/contact_graph.h
FN:35,_ZN14raptor_physics18contact_graph_edgeC2EPNS_14collision_infoEii
FN:41,_ZNK14raptor_physics18contact_graph_edge4infoEv
FN:42,_ZNK14raptor_physics18contact_graph_edge2toEv
FN:43,_ZNK14raptor_physics18contact_graph_edge7edge_idEv
FN:54,_ZN14raptor_physics13contact_graphINS_7vg_metaEED2Ev
FN:61,_ZN14raptor_physics13contact_graphINS_7vg_metaEEC2Ev
FN:73,_ZN14raptor_physics13contact_graphINS_7vg_metaEE7rebuildERSt3mapIPS1_PNS_13tracking_infoIS1_EESt4lessIS4_ESaISt4pairIKS4_S7_EEES4_
FN:89,_ZNK14raptor_physics13contact_graphINS_7vg_metaEE15number_of_edgesEv
FN:94,_ZN14raptor_physics13contact_graphINS_7vg_metaEE14resolve_forcesEf
FN:183,_ZNK14raptor_physics13contact_graphINS_7vg_metaEE15void_collisionsEPSt3mapIPS1_PNS_13tracking_infoIS1_EESt4lessIS4_ESaISt4pairIKS4_S7_EEE
FN:197,_ZN14raptor_physics13contact_graphINS_7vg_metaEE25start_build_contact_graphERSt3mapIPS1_PNS_13tracking_infoIS1_EESt4lessIS4_ESaISt4pairIKS4_S7_EEES4_
FN:208,_ZN14raptor_physics13contact_graphINS_7vg_metaEE19build_contact_graphERSt3mapIPS1_PNS_13tracking_infoIS1_EESt4lessIS4_ESaISt4pairIKS4_S7_EEES4_i
FN:256,_ZNK14raptor_physics13contact_graphINS_7vg_metaEE22compute_contact_matrixEPf
FN:316,_ZN14raptor_physics13contact_graphINS_7vg_metaEE25compute_relative_velocityEPf
FN:352,_ZN14raptor_physics13contact_graphINS_7vg_metaEE27compute_relative_accelationEPf
FN:410,_ZNK14raptor_physics13contact_graphINS_7vg_metaEE8minimiseEPKfS4_Pf
FN:441,_ZN14raptor_physics13contact_graphINS_7vg_metaEE9find_edgeEii
FN:444,_ZZN14raptor_physics13contact_graphINS_7vg_metaEE9find_edgeEiiENKUlRKNS_18contact_graph_edgeEE_clES5_
FNDA:0,_ZN14raptor_physics18contact_graph_edgeC2EPNS_14collision_infoEii
FNDA:0,_ZNK14raptor_physics18contact_graph_edge4infoEv
FNDA:0,_ZNK14raptor_physics18contact_graph_edge2toEv
FNDA:0,_ZNK14raptor_physics18contact_graph_edge7edge_idEv
FNDA:12,_ZN14raptor_physics13contact_graphINS_7vg_metaEED2Ev
FNDA:12,_ZN14raptor_physics13contact_graphINS_7vg_metaEEC2Ev
FNDA:0,_ZN14raptor_physics13contact_graphINS_7vg_metaEE7rebuildERSt3mapIPS1_PNS_13tracking_infoIS1_EESt4lessIS4_ESaISt4pairIKS4_S7_EEES4_
FNDA:0,_ZNK14raptor_physics13contact_graphINS_7vg_metaEE15number_of_edgesEv
FNDA:0,_ZN14raptor_physics13contact_graphINS_7vg_metaEE14resolve_forcesEf
FNDA:0,_ZNK14raptor_physics13contact_graphINS_7vg_metaEE15void_collisionsEPSt3mapIPS1_PNS_13tracking_infoIS1_EESt4lessIS4_ESaISt4pairIKS4_S7_EEE
FNDA:0,_ZN14raptor_physics13contact_graphINS_7vg_metaEE25start_build_contact_graphERSt3mapIPS1_PNS_13tracking_infoIS1_EESt4lessIS4_ESaISt4pairIKS4_S7_EEES4_
FNDA:0,_ZN14raptor_physics13contact_graphINS_7vg_metaEE19build_contact_graphERSt3mapIPS1_PNS_13tracking_infoIS1_EESt4lessIS4_ESaISt4pairIKS4_S7_EEES4_i
FNDA:0,_ZNK14raptor_physics13contact_graphINS_7vg_metaEE22compute_contact_matrixEPf
FNDA:0,_ZN14raptor_physics13contact_graphINS_7vg_metaEE25compute_relative_velocityEPf
FNDA:0,_ZN14raptor_physics13contact_graphINS_7vg_metaEE27compute_relative_accelationEPf
FNDA:0,_ZNK14raptor_physics13contact_graphINS_7vg_metaEE8minimiseEPKfS4_Pf
FNDA:0,_ZN14raptor_physics13contact_graphINS_7vg_metaEE9find_edgeEii
FNDA:0,_ZZN14raptor_physics13contact_graphINS_7vg_metaEE9find_edgeEiiENKUlRKNS_18contact_graph_edgeEE_clES5_
FNF:18
FNH:2
DA:35,0
DA:36,0
DA:41,0
DA:42,0
DA:43,0
DA:54,12
DA:61,12
DA:73,0
DA:75,0
DA:78,0
DA:79,0
DA:80,0
DA:81,0
DA:84,0
DA:85,0
DA:89,0
DA:94,0
DA:96,0
DA:99,0
DA:100,0
DA:104,0
DA:107,0
DA:108,0
DA:111,0
DA:112,0
DA:113,0
DA:116,0
DA:117,0
DA:120,0
DA:122,0
DA:125,0
DA:126,0
DA:127,0
DA:129,0
DA:131,0
DA:132,0
DA:133,0
DA:134,0
DA:136,0
DA:142,0
DA:145,0
DA:146,0
DA:149,0
DA:150,0
DA:151,0
DA:154,0
DA:155,0
DA:158,0
DA:160,0
DA:163,0
DA:164,0
DA:165,0
DA:167,0
DA:169,0
DA:170,0
DA:171,0
DA:172,0
DA:174,0
DA:178,0
DA:183,0
DA:185,0
DA:187,0
DA:189,0
DA:193,0
DA:197,0
DA:200,0
DA:201,0
DA:204,0
DA:205,0
DA:206,0
DA:208,0
DA:210,0
DA:212,0
DA:213,0
DA:215,0
DA:220,0
DA:221,0
DA:224,0
DA:225,0
DA:226,0
DA:227,0
DA:232,0
DA:233,0
DA:236,0
DA:237,0
DA:239,0
DA:240,0
DA:245,0
DA:246,0
DA:247,0
DA:248,0
DA:251,0
DA:254,0
DA:256,0
DA:259,0
DA:262,0
DA:263,0
DA:266,0
DA:267,0
DA:270,0
DA:272,0
DA:275,0
DA:276,0
DA:277,0
DA:279,0
DA:280,0
DA:283,0
DA:285,0
DA:286,0
DA:288,0
DA:290,0
DA:291,0
DA:292,0
DA:296,0
DA:298,0
DA:299,0
DA:301,0
DA:303,0
DA:304,0
DA:305,0
DA:309,0
DA:312,0
DA:316,0
DA:319,0
DA:320,0
DA:321,0
DA:324,0
DA:325,0
DA:326,0
DA:329,0
DA:331,0
DA:334,0
DA:336,0
DA:337,0
DA:340,0
DA:341,0
DA:342,0
DA:345,0
DA:348,0
DA:352,0
DA:355,0
DA:356,0
DA:357,0
DA:360,0
DA:361,0
DA:362,0
DA:365,0
DA:367,0
DA:370,0
DA:372,0
DA:373,0
DA:376,0
DA:377,0
DA:379,0
DA:380,0
DA:381,0
DA:384,0
DA:385,0
DA:387,0
DA:388,0
DA:389,0
DA:390,0
DA:394,0
DA:395,0
DA:397,0
DA:400,0
DA:401,0
DA:404,0
DA:407,0
DA:410,0
DA:413,0
DA:414,0
DA:417,0
DA:418,0
DA:419,0
DA:421,0
DA:423,0
DA:424,0
DA:425,0
DA:430,0
DA:431,0
DA:433,0
DA:434,0
DA:438,0
DA:441,0
DA:444,0
DA:446,0
DA:447,0
DA:449,0
LF:189
LH:2
end_of_record
SF:/home/bruce/work/RAPTor/physics_engine/force_info.h
FN:10,_ZN10force_infoC2ERK7point_tS2_f
FNDA:24,_ZN10force_infoC2ERK7point_tS2_f
FNF:1
FNH:1
DA:10,24
DA:11,24
LF:2
LH:2
end_of_record
SF:/home/bruce/work/RAPTor/physics_engine/inertia_tensor.h
FN:15,_ZN14raptor_physics21invert_inertia_tensorEPfPKf
FN:238,_ZNK14raptor_physics14inertia_tensor4massEv
FN:239,_ZNK14raptor_physics14inertia_tensor14center_of_massEv
FN:240,_ZNK14raptor_physics14inertia_tensor6tensorEv
FN:241,_ZNK14raptor_physics14inertia_tensor14inverse_tensorEv
FN:277,_ZN14raptor_physics19inertia_tensor_viewC2ERKNS_14inertia_tensorERK12quaternion_t
FN:302,_ZNK14raptor_physics19inertia_tensor_view14inverse_tensorEv
FN:303,_ZNK14raptor_physics19inertia_tensor_view6tensorEv
FN:306,_ZN14raptor_physics19inertia_tensor_view6rotateEPfPKfS3_
FN:336,_ZN14raptor_physicsdvINS_19inertia_tensor_viewEEE7point_tRKS2_RKT_
FN:347,_ZN14raptor_physicsmlINS_19inertia_tensor_viewEEE7point_tRKT_RKS2_
FNDA:192,_ZN14raptor_physics21invert_inertia_tensorEPfPKf
FNDA:1020,_ZNK14raptor_physics14inertia_tensor4massEv
FNDA:72,_ZNK14raptor_physics14inertia_tensor14center_of_massEv
FNDA:0,_ZNK14raptor_physics14inertia_tensor6tensorEv
FNDA:24,_ZNK14raptor_physics14inertia_tensor14inverse_tensorEv
FNDA:0,_ZN14raptor_physics19inertia_tensor_viewC2ERKNS_14inertia_tensorERK12quaternion_t
FNDA:0,_ZNK14raptor_physics19inertia_tensor_view14inverse_tensorEv
FNDA:0,_ZNK14raptor_physics19inertia_tensor_view6tensorEv
FNDA:0,_ZN14raptor_physics19inertia_tensor_view6rotateEPfPKfS3_
FNDA:0,_ZN14raptor_physicsdvINS_19inertia_tensor_viewEEE7point_tRKS2_RKT_
FNDA:0,_ZN14raptor_physicsmlINS_19inertia_tensor_viewEEE7point_tRKT_RKS2_
FNF:11
FNH:4
DA:15,192
DA:18,192
DA:19,192
DA:20,192
DA:22,192
DA:23,192
DA:25,192
DA:28,192
DA:29,192
DA:31,0
DA:32,0
DA:33,0
DA:34,0
DA:35,0
DA:36,0
DA:37,192
DA:41,192
DA:42,192
DA:43,192
DA:44,192
DA:45,192
DA:46,192
DA:47,192
DA:49,384
DA:50,384
DA:51,384
DA:52,384
DA:238,1020
DA:239,72
DA:240,0
DA:241,24
DA:277,0
DA:279,0
DA:280,0
DA:283,0
DA:285,0
DA:286,0
DA:287,0
DA:292,0
DA:295,0
DA:298,0
DA:302,0
DA:303,0
DA:306,0
DA:310,0
DA:311,0
DA:312,0
DA:313,0
DA:314,0
DA:315,0
DA:316,0
DA:317,0
DA:318,0
DA:319,0
DA:321,0
DA:322,0
DA:323,0
DA:324,0
DA:325,0
DA:326,0
DA:327,0
DA:336,0
DA:338,0
DA:339,0
DA:340,0
DA:341,0
DA:343,0
DA:347,0
DA:349,0
DA:350,0
DA:351,0
DA:352,0
DA:354,0
LF:73
LH:24
end_of_record
SF:/home/bruce/work/RAPTor/physics_engine/lcp_solver.h
FN:28,_ZN14raptor_physics10lcp_solverC2Eii
FN:91,_ZN14raptor_physics10lcp_solverD2Ev
FN:121,_ZN14raptor_physics10lcp_solver12initialise_mEv
FN:122,_ZN14raptor_physics10lcp_solver12initialise_qEv
FN:126,_ZN14raptor_physics10lcp_solver5solveEPf
FN:181,_ZZN14raptor_physics10lcp_solver5solveEPfENKUlPSt18basic_stringstreamIcSt11char_traitsIcESaIcEEiE_clES7_i
FN:195,_ZNK14raptor_physics10lcp_solver10find_pivotEi
FN:223,_ZNK14raptor_physics10lcp_solver10find_pivotEv
FN:248,_ZN14raptor_physics10lcp_solver20gaussian_eliminationEii
FN:295,_ZN14raptor_physics10lcp_solver22gaussian_elimination_qEii
FN:315,_ZNK14raptor_physics10lcp_solver4dumpEv
FN:317,_ZZNK14raptor_physics10lcp_solver4dumpEvENKUlPSt18basic_stringstreamIcSt11char_traitsIcESaIcEEiE_clES6_i
FN:327,_ZZNK14raptor_physics10lcp_solver4dumpEvENKUlPSt18basic_stringstreamIcSt11char_traitsIcESaIcEEfE0_clES6_f
FNDA:0,_ZN14raptor_physics10lcp_solverC2Eii
FNDA:0,_ZN14raptor_physics10lcp_solverD2Ev
FNDA:0,_ZN14raptor_physics10lcp_solver12initialise_mEv
FNDA:0,_ZN14raptor_physics10lcp_solver12initialise_qEv
FNDA:0,_ZN14raptor_physics10lcp_solver5solveEPf
FNDA:0,_ZZN14raptor_physics10lcp_solver5solveEPfENKUlPSt18basic_stringstreamIcSt11char_traitsIcESaIcEEiE_clES7_i
FNDA:0,_ZNK14raptor_physics10lcp_solver10find_pivotEi
FNDA:0,_ZNK14raptor_physics10lcp_solver10find_pivotEv
FNDA:0,_ZN14raptor_physics10lcp_solver20gaussian_eliminationEii
FNDA:0,_ZN14raptor_physics10lcp_solver22gaussian_elimination_qEii
FNDA:0,_ZNK14raptor_physics10lcp_solver4dumpEv
FNDA:0,_ZZNK14raptor_physics10lcp_solver4dumpEvENKUlPSt18basic_stringstreamIcSt11char_traitsIcESaIcEEiE_clES6_i
FNDA:0,_ZZNK14raptor_physics10lcp_solver4dumpEvENKUlPSt18basic_stringstreamIcSt11char_traitsIcESaIcEEfE0_clES6_f
FNF:13
FNH:0
DA:28,0
DA:29,0
DA:30,0
DA:32,0
DA:35,0
DA:36,0
DA:38,0
DA:43,0
DA:44,0
DA:46,0
DA:50,0
DA:52,0
DA:56,0
DA:58,0
DA:59,0
DA:60,0
DA:91,0
DA:93,0
DA:95,0
DA:97,0
DA:100,0
DA:102,0
DA:105,0
DA:107,0
DA:110,0
DA:112,0
DA:115,0
DA:117,0
DA:118,0
DA:119,0
DA:121,0
DA:122,0
DA:126,0
DA:128,0
DA:129,0
DA:132,0
DA:133,0
DA:136,0
DA:138,0
DA:139,0
DA:143,0
DA:144,0
DA:147,0
DA:148,0
DA:149,0
DA:152,0
DA:153,0
DA:154,0
DA:157,0
DA:158,0
DA:161,0
DA:163,0
DA:164,0
DA:167,0
DA:168,0
DA:172,0
DA:173,0
DA:175,0
DA:177,0
DA:181,0
DA:183,0
DA:184,0
DA:185,0
DA:188,0
DA:195,0
DA:199,0
DA:200,0
DA:201,0
DA:202,0
DA:204,0
DA:207,0
DA:208,0
DA:210,0
DA:211,0
DA:212,0
DA:217,0
DA:223,0
DA:226,0
DA:227,0
DA:228,0
DA:229,0
DA:231,0
DA:233,0
DA:234,0
DA:235,0
DA:239,0
DA:248,0
DA:250,0
DA:253,0
DA:255,0
DA:257,0
DA:259,0
DA:260,0
DA:262,0
DA:264,0
DA:266,0
DA:269,0
DA:274,0
DA:275,0
DA:276,0
DA:278,0
DA:280,0
DA:283,0
DA:286,0
DA:287,0
DA:288,0
DA:290,0
DA:295,0
DA:297,0
DA:300,0
DA:302,0
DA:304,0
DA:305,0
DA:310,0
DA:311,0
DA:312,0
DA:315,0
DA:317,0
DA:319,0
DA:320,0
DA:321,0
DA:323,0
DA:325,0
DA:326,0
DA:327,0
DA:329,0
DA:330,0
DA:331,0
DA:332,0
DA:333,0
LF:130
LH:0
end_of_record
SF:/home/bruce/work/RAPTor/physics_engine/matrix_3d.h
FN:182,_ZNK9matrix_3d15get_extremitiesEP7point_tS1_
FNDA:156,_ZNK9matrix_3d15get_extremitiesEP7point_tS1_
FNF:1
FNH:1
DA:182,156
DA:185,156
DA:186,156
DA:189,1248
DA:191,1092
DA:192,1092
DA:195,156
LF:7
LH:7
end_of_record
SF:/home/bruce/work/RAPTor/physics_engine/physics_engine.cc
FN:16,_ZN14raptor_physics14physics_engine12advance_timeEf
FN:174,_ZZN14raptor_physics14physics_engine12advance_timeEfENKUlRKSt4pairIiPNS_7vg_metaEEE_clES6_
FN:175,_ZZN14raptor_physics14physics_engine12advance_timeEfENKUlRKSt4pairIiPNS_7vg_metaEEE0_clES6_
FN:223,_ZN14raptor_physics14physics_engine17collide_and_cacheEPNS_7vg_metaES2_fb
FN:255,_ZN14raptor_physics14physics_engine16retest_and_cacheEPNS_7vg_metaES2_fb
FN:290,_ZN14raptor_physics14physics_engine23collision_detect_versusERKNSt8__detail20_Node_const_iteratorISt4pairIKiPNS_7vg_metaEELb0ELb0EEEfb
FN:299,_Z41__static_initialization_and_destruction_0ii
FN:299,_GLOBAL__sub_I_physics_engine.cc
FNDA:12,_ZN14raptor_physics14physics_engine12advance_timeEf
FNDA:0,_ZZN14raptor_physics14physics_engine12advance_timeEfENKUlRKSt4pairIiPNS_7vg_metaEEE_clES6_
FNDA:0,_ZZN14raptor_physics14physics_engine12advance_timeEfENKUlRKSt4pairIiPNS_7vg_metaEEE0_clES6_
FNDA:246,_ZN14raptor_physics14physics_engine17collide_and_cacheEPNS_7vg_metaES2_fb
FNDA:0,_ZN14raptor_physics14physics_engine16retest_and_cacheEPNS_7vg_metaES2_fb
FNDA:132,_ZN14raptor_physics14physics_engine23collision_detect_versusERKNSt8__detail20_Node_const_iteratorISt4pairIKiPNS_7vg_metaEELb0ELb0EEEfb
FNDA:6,_GLOBAL__sub_I_physics_engine.cc
FNDA:6,_Z41__static_initialization_and_destruction_0ii
FNF:8
FNH:5
DA:16,12
DA:18,12
DA:21,12
DA:24,12
DA:25,12
DA:26,36
DA:29,12
DA:30,36
DA:32,24
DA:34,12
DA:35,24
DA:39,36
DA:41,24
DA:47,12
DA:49,0
DA:51,0
DA:53,0
DA:55,0
DA:62,24
DA:63,12
DA:64,12
DA:82,0
DA:83,0
DA:85,0
DA:86,0
DA:93,24
DA:94,36
DA:96,24
DA:101,12
DA:102,24
DA:106,12
DA:107,12
DA:108,12
DA:111,24
DA:112,12
DA:113,12
DA:114,12
DA:116,24
DA:117,24
DA:121,0
DA:123,0
DA:124,0
DA:126,0
DA:131,0
DA:132,0
DA:133,0
DA:134,0
DA:136,0
DA:137,0
DA:141,0
DA:142,0
DA:143,0
DA:144,0
DA:147,0
DA:148,0
DA:150,0
DA:153,0
DA:154,0
DA:155,0
DA:159,0
DA:162,0
DA:165,0
DA:166,0
DA:167,0
DA:170,0
DA:171,0
DA:174,0
DA:175,0
DA:176,0
DA:179,0
DA:181,0
DA:185,0
DA:186,0
DA:187,0
DA:188,0
DA:192,0
DA:193,0
DA:195,0
DA:196,0
DA:197,0
DA:200,0
DA:204,60
DA:206,24
DA:210,12
DA:211,12
DA:212,12
DA:214,0
DA:215,0
DA:217,12
DA:219,12
DA:223,246
DA:227,246
DA:228,246
DA:229,246
DA:231,48
DA:233,24
DA:234,24
DA:236,0
DA:240,24
DA:241,24
DA:243,24
DA:247,222
DA:248,222
DA:251,222
DA:255,0
DA:259,0
DA:260,0
DA:261,0
DA:264,0
DA:266,0
DA:267,0
DA:269,0
DA:274,0
DA:275,0
DA:277,0
DA:283,0
DA:284,0
DA:286,0
DA:290,132
DA:292,378
DA:294,246
DA:297,132
DA:299,18
LF:123
LH:56
end_of_record
SF:/home/bruce/work/RAPTor/physics_engine/physics_engine.h
FN:110,_ZN14raptor_physics14physics_engine24void_all_collisions_withEPNS_7vg_metaE
FN:199,_ZN14raptor_physics14physics_engine12is_collisionC2ENS_11collision_tE
FN:201,_ZNK14raptor_physics14physics_engine12is_collisionclERKSt4pairIPNS_7vg_metaEPNS_13tracking_infoIS3_EEE
FN:212,_ZN14raptor_physics14physics_engine20update_tracking_infoEPNS_7vg_metaES2_PNS_7simplexERKS3_fNS_11collision_tE
FN:229,_ZN14raptor_physics14physics_engine20update_tracking_infoEPNS_7vg_metaES2_PNS_7simplexERKS3_
FNDA:24,_ZN14raptor_physics14physics_engine24void_all_collisions_withEPNS_7vg_metaE
FNDA:24,_ZN14raptor_physics14physics_engine12is_collisionC2ENS_11collision_tE
FNDA:0,_ZNK14raptor_physics14physics_engine12is_collisionclERKSt4pairIPNS_7vg_metaEPNS_13tracking_infoIS3_EEE
FNDA:48,_ZN14raptor_physics14physics_engine20update_tracking_infoEPNS_7vg_metaES2_PNS_7simplexERKS3_fNS_11collision_tE
FNDA:0,_ZN14raptor_physics14physics_engine20update_tracking_infoEPNS_7vg_metaES2_PNS_7simplexERKS3_
FNF:5
FNH:3
DA:110,24
DA:112,96
DA:114,72
DA:117,24
DA:199,24
DA:201,0
DA:203,0
DA:212,48
DA:215,48
DA:216,48
DA:218,12
DA:222,36
DA:225,48
DA:229,0
DA:231,0
DA:234,0
DA:236,0
DA:238,0
LF:18
LH:11
end_of_record
SF:/home/bruce/work/RAPTor/physics_engine/simplex.h
FN:146,_ZNK14raptor_physics7simplex34rate_of_change_of_normal_of_impactINS_12vertex_groupEEE7point_tRKS0_RKT_S8_RKS3_
FNDA:0,_ZNK14raptor_physics7simplex34rate_of_change_of_normal_of_impactINS_12vertex_groupEEE7point_tRKS0_RKT_S8_RKS3_
FNF:1
FNH:0
DA:146,0
DA:148,0
DA:149,0
DA:152,0
DA:155,0
DA:156,0
DA:157,0
DA:162,0
DA:163,0
DA:166,0
DA:167,0
DA:171,0
DA:173,0
DA:174,0
DA:178,0
DA:179,0
DA:182,0
DA:183,0
DA:187,0
DA:188,0
DA:189,0
DA:190,0
DA:191,0
DA:193,0
DA:197,0
DA:198,0
DA:201,0
DA:203,0
DA:204,0
DA:205,0
DA:206,0
DA:208,0
DA:209,0
DA:210,0
DA:211,0
DA:213,0
DA:214,0
DA:215,0
DA:217,0
DA:218,0
DA:219,0
DA:220,0
DA:222,0
DA:223,0
DA:224,0
DA:228,0
DA:229,0
DA:230,0
DA:231,0
DA:232,0
DA:233,0
DA:236,0
DA:239,0
DA:240,0
DA:244,0
DA:246,0
DA:249,0
DA:250,0
LF:58
LH:0
end_of_record
SF:/home/bruce/work/RAPTor/physics_engine/tracking_info.h
FN:27,_ZN14raptor_physics13tracking_infoINS_7vg_metaEEC2EPS1_PNS_7simplexERKS4_fNS_11collision_tE
FN:44,_ZN14raptor_physics13tracking_infoINS_7vg_metaEE6updateEPS1_PNS_7simplexERKS4_fNS_11collision_tE
FN:73,_ZN14raptor_physics13tracking_infoINS_7vg_metaEE24successful_retest_updateEPS1_PNS_7simplexERKS4_
FN:89,_ZN14raptor_physics13tracking_infoINS_7vg_metaEE14void_collisionEPS1_
FN:108,_ZNK14raptor_physics13tracking_infoINS_7vg_metaEE24get_first_collision_typeEv
FN:109,_ZNK14raptor_physics13tracking_infoINS_7vg_metaEE24get_first_collision_timeEv
FN:110,_ZNK14raptor_physics13tracking_infoINS_7vg_metaEE19get_first_collisionEv
FN:113,_ZN14raptor_physics13tracking_infoINS_7vg_metaEEixEPS1_
FN:126,_ZNK14raptor_physics13tracking_infoINS_7vg_metaEE5beginEv
FN:127,_ZNK14raptor_physics13tracking_infoINS_7vg_metaEE3endEv
FN:130,_ZN14raptor_physics13tracking_infoINS_7vg_metaEE20find_first_collisionEv
FNDA:36,_ZN14raptor_physics13tracking_infoINS_7vg_metaEEC2EPS1_PNS_7simplexERKS4_fNS_11collision_tE
FNDA:12,_ZN14raptor_physics13tracking_infoINS_7vg_metaEE6updateEPS1_PNS_7simplexERKS4_fNS_11collision_tE
FNDA:0,_ZN14raptor_physics13tracking_infoINS_7vg_metaEE24successful_retest_updateEPS1_PNS_7simplexERKS4_
FNDA:72,_ZN14raptor_physics13tracking_infoINS_7vg_metaEE14void_collisionEPS1_
FNDA:0,_ZNK14raptor_physics13tracking_infoINS_7vg_metaEE24get_first_collision_typeEv
FNDA:0,_ZNK14raptor_physics13tracking_infoINS_7vg_metaEE24get_first_collision_timeEv
FNDA:0,_ZNK14raptor_physics13tracking_infoINS_7vg_metaEE19get_first_collisionEv
FNDA:162,_ZN14raptor_physics13tracking_infoINS_7vg_metaEEixEPS1_
FNDA:0,_ZNK14raptor_physics13tracking_infoINS_7vg_metaEE5beginEv
FNDA:0,_ZNK14raptor_physics13tracking_infoINS_7vg_metaEE3endEv
FNDA:24,_ZN14raptor_physics13tracking_infoINS_7vg_metaEE20find_first_collisionEv
FNF:11
FNH:5
DA:27,36
DA:31,36
DA:44,12
DA:47,12
DA:48,12
DA:50,0
DA:54,12
DA:58,12
DA:60,0
DA:61,0
DA:62,0
DA:64,12
DA:66,0
DA:69,12
DA:73,0
DA:75,0
DA:78,0
DA:80,0
DA:81,0
DA:85,0
DA:89,72
DA:92,72
DA:93,72
DA:95,24
DA:99,72
DA:101,24
DA:104,72
DA:108,0
DA:109,0
DA:110,0
DA:113,162
DA:115,162
DA:116,162
DA:118,18
DA:122,144
DA:126,0
DA:127,0
DA:130,24
DA:132,24
DA:133,24
DA:134,24
DA:135,60
DA:137,36
DA:138,36
DA:140,6
DA:141,6
DA:142,6
DA:146,24
LF:48
LH:32
end_of_record
SF:/home/bruce/work/RAPTor/physics_engine/vertex_group.h
FN:38,_ZN14raptor_physics12is_uncertainENS_11collision_tE
FN:44,_ZN14raptor_physics10to_certainENS_11collision_tE
FN:79,_ZN14raptor_physics12vertex_group11apply_forceERK10force_infof
FN:119,_ZN14raptor_physics12vertex_group13apply_impulseERK7point_tS3_
FN:137,_ZNK14raptor_physics12vertex_group10get_boundsEP7point_tS2_
FN:147,_ZN14raptor_physics12vertex_group18resolve_collisionsEPS0_PPNS_7simplexES4_Pf
FN:180,_ZNK14raptor_physics12vertex_group12get_velocityEv
FN:181,_ZNK14raptor_physics12vertex_group20get_angular_velocityEv
FN:189,_ZNK14raptor_physics12vertex_group20get_angular_momentumEv
FN:195,_ZNK14raptor_physics12vertex_group12get_velocityERK7point_t
FN:206,_ZNK14raptor_physics12vertex_group9get_forceEv
FN:207,_ZNK14raptor_physics12vertex_group10get_torqueEv
FN:208,_ZNK14raptor_physics12vertex_group9get_speedEv
FN:209,_ZNK14raptor_physics12vertex_group8get_massEv
FN:210,_ZNK14raptor_physics12vertex_group18get_center_of_massEv
FN:213,_ZNK14raptor_physics12vertex_group21get_orientated_tensorEv
FN:216,_ZN14raptor_physics12vertex_group10reset_timeEv
FNDA:96,_ZN14raptor_physics12is_uncertainENS_11collision_tE
FNDA:0,_ZN14raptor_physics10to_certainENS_11collision_tE
FNDA:24,_ZN14raptor_physics12vertex_group11apply_forceERK10force_infof
FNDA:0,_ZN14raptor_physics12vertex_group13apply_impulseERK7point_tS3_
FNDA:156,_ZNK14raptor_physics12vertex_group10get_boundsEP7point_tS2_
FNDA:246,_ZN14raptor_physics12vertex_group18resolve_collisionsEPS0_PPNS_7simplexES4_Pf
FNDA:12,_ZNK14raptor_physics12vertex_group12get_velocityEv
FNDA:0,_ZNK14raptor_physics12vertex_group20get_angular_velocityEv
FNDA:0,_ZNK14raptor_physics12vertex_group20get_angular_momentumEv
FNDA:0,_ZNK14raptor_physics12vertex_group12get_velocityERK7point_t
FNDA:72,_ZNK14raptor_physics12vertex_group9get_forceEv
FNDA:72,_ZNK14raptor_physics12vertex_group10get_torqueEv
FNDA:24,_ZNK14raptor_physics12vertex_group9get_speedEv
FNDA:36,_ZNK14raptor_physics12vertex_group8get_massEv
FNDA:0,_ZNK14raptor_physics12vertex_group18get_center_of_massEv
FNDA:0,_ZNK14raptor_physics12vertex_group21get_orientated_tensorEv
FNDA:24,_ZN14raptor_physics12vertex_group10reset_timeEv
FNF:17
FNH:10
DA:38,96
DA:40,96
DA:44,0
DA:46,0
DA:79,24
DA:82,24
DA:84,0
DA:88,24
DA:89,24
DA:92,24
DA:93,24
DA:94,24
DA:96,24
DA:119,0
DA:121,0
DA:122,0
DA:124,0
DA:125,0
DA:126,0
DA:137,156
DA:139,156
DA:140,156
DA:147,246
DA:150,960
DA:151,690
DA:153,222
DA:158,24
DA:180,12
DA:181,0
DA:189,0
DA:192,0
DA:195,0
DA:198,0
DA:199,0
DA:201,0
DA:206,72
DA:207,72
DA:208,24
DA:209,36
DA:210,0
DA:213,0
DA:216,24
DA:218,24
DA:219,24
DA:220,24
DA:221,24
LF:46
LH:28
end_of_record
SF:/home/bruce/work/RAPTor/physics_engine/vg_meta.h
FN:44,_ZN14raptor_physics7vg_meta12apply_forcesEf
FN:67,_ZN14raptor_physics7vg_meta18resolve_collisionsEPKS0_PPNS_7simplexES5_Pf
FN:72,_ZN14raptor_physics7vg_meta7collideERKNS_8colliderEPS0_RK7point_tS7_NS_11collision_tE
FN:78,_ZN14raptor_physics7vg_meta15commit_movementEf
FN:119,_ZNK14raptor_physics7vg_meta16get_vertex_groupEv
FN:122,_ZNK14raptor_physics7vg_meta9get_speedEv
FNDA:24,_ZN14raptor_physics7vg_meta12apply_forcesEf
FNDA:246,_ZN14raptor_physics7vg_meta18resolve_collisionsEPKS0_PPNS_7simplexES5_Pf
FNDA:0,_ZN14raptor_physics7vg_meta7collideERKNS_8colliderEPS0_RK7point_tS7_NS_11collision_tE
FNDA:24,_ZN14raptor_physics7vg_meta15commit_movementEf
FNDA:264,_ZNK14raptor_physics7vg_meta16get_vertex_groupEv
FNDA:24,_ZNK14raptor_physics7vg_meta9get_speedEv
FNF:6
FNH:5
DA:44,24
DA:46,24
DA:49,48
DA:51,24
DA:55,24
DA:56,24
DA:57,24
DA:59,24
DA:60,24
DA:61,24
DA:62,24
DA:63,24
DA:64,24
DA:65,24
DA:67,246
DA:69,246
DA:72,0
DA:74,0
DA:75,0
DA:78,24
DA:81,48
DA:83,24
DA:84,24
DA:86,12
DA:87,12
DA:93,24
DA:96,24
DA:99,24
DA:100,24
DA:101,24
DA:103,24
DA:104,24
DA:105,24
DA:106,24
DA:107,24
DA:108,24
DA:109,24
DA:119,264
DA:122,24
LF:39
LH:36
end_of_record
TN:
SF:/home/bruce/work/RAPTor/common/logging.h
FN:34,_ZN14raptor_physics13method_loggerC2ERKSs
FN:39,_ZN14raptor_physics13method_loggerD2Ev
FNDA:0,_ZN14raptor_physics13method_loggerC2ERKSs
FNDA:0,_ZN14raptor_physics13method_loggerD2Ev
FNF:2
FNH:0
DA:34,0
DA:36,0
DA:37,0
DA:39,0
DA:40,0
DA:41,0
DA:42,0
LF:7
LH:0
end_of_record
SF:/home/bruce/work/RAPTor/raytracer/point_t.h
FN:17,_ZN7point_tC2Efff
FN:24,_ZNK7point_tngEv
FN:59,_ZlsRSoRK7point_t
FN:75,_ZmlRK7point_tf
FN:80,_ZdvRK7point_tf
FN:85,_ZplRK7point_tS1_
FN:90,_ZmiRK7point_tS1_
FN:297,_Z9magnitudeRK7point_t
FN:432,_Z13cross_productRK7point_tS1_PS_
FN:445,_Z13cross_productRK7point_tS1_
FN:456,_Z11dot_productRK7point_tS1_
FN:477,_Z9normalise7point_t
FNDA:0,_ZN7point_tC2Efff
FNDA:0,_ZNK7point_tngEv
FNDA:0,_ZlsRSoRK7point_t
FNDA:0,_ZmlRK7point_tf
FNDA:0,_ZdvRK7point_tf
FNDA:0,_ZplRK7point_tS1_
FNDA:0,_ZmiRK7point_tS1_
FNDA:0,_Z9magnitudeRK7point_t
FNDA:0,_Z13cross_productRK7point_tS1_PS_
FNDA:0,_Z13cross_productRK7point_tS1_
FNDA:0,_Z11dot_productRK7point_tS1_
FNDA:0,_Z9normalise7point_t
FNF:12
FNH:0
DA:17,0
DA:24,0
DA:59,0
DA:61,0
DA:75,0
DA:77,0
DA:80,0
DA:82,0
DA:85,0
DA:87,0
DA:90,0
DA:92,0
DA:297,0
DA:299,0
DA:432,0
DA:434,0
DA:435,0
DA:436,0
DA:437,0
DA:445,0
DA:447,0
DA:456,0
DA:458,0
DA:477,0
DA:479,0
DA:480,0
DA:481,0
DA:482,0
DA:483,0
LF:29
LH:0
end_of_record
SF:/home/bruce/work/lib/boost_1_54_0/boost/log/core/core.hpp
DA:308,0
LF:1
LH:0
end_of_record
SF:/home/bruce/work/lib/boost_1_54_0/boost/log/core/record.hpp
FN:66,_ZN5boost3log11v2_mt_posix6recordC2Ev
FN:79,_ZN5boost3log11v2_mt_posix6recordD2Ev
FN:125,_ZNK5boost3log11v2_mt_posix6recordntEv
FN:149,_ZN5boost3log11v2_mt_posix6record5resetEv
FNDA:0,_ZN5boost3log11v2_mt_posix6recordC2Ev
FNDA:0,_ZN5boost3log11v2_mt_posix6recordD2Ev
FNDA:0,_ZNK5boost3log11v2_mt_posix6recordntEv
FNDA:0,_ZN5boost3log11v2_mt_posix6record5resetEv
FNF:4
FNH:0
DA:66,0
DA:79,0
DA:81,0
DA:82,0
DA:125,0
DA:127,0
DA:149,0
DA:151,0
DA:153,0
DA:154,0
DA:156,0
LF:11
LH:0
end_of_record
SF:/home/bruce/work/lib/boost_1_54_0/boost/log/detail/attachable_sstream_buf.hpp
FN:109,_ZNK5boost3log11v2_mt_posix3aux22basic_ostringstreambufIcSt11char_traitsIcESaIcEE7storageEv
FNDA:0,_ZNK5boost3log11v2_mt_posix3aux22basic_ostringstreambufIcSt11char_traitsIcESaIcEE7storageEv
FNF:1
FNH:0
DA:109,0
LF:1
LH:0
end_of_record
SF:/home/bruce/work/lib/boost_1_54_0/boost/log/detail/code_conversion.hpp
FN:59,_ZN5boost3log11v2_mt_posix3aux12code_convertIcSt11char_traitsIcESaIcEEEvPKT_mRSbIS7_T0_T1_ERKSt6locale
FNDA:0,_ZN5boost3log11v2_mt_posix3aux12code_convertIcSt11char_traitsIcESaIcEEEvPKT_mRSbIS7_T0_T1_ERKSt6locale
FNF:1
FNH:0
DA:59,0
DA:61,0
DA:62,0
LF:3
LH:0
end_of_record
SF:/home/bruce/work/lib/boost_1_54_0/boost/log/detail/light_rw_mutex.hpp
FN:142,_ZN5boost3log11v2_mt_posix3aux14light_rw_mutex11lock_sharedEv
FN:146,_ZN5boost3log11v2_mt_posix3aux14light_rw_mutex13unlock_sharedEv
FNDA:0,_ZN5boost3log11v2_mt_posix3aux14light_rw_mutex11lock_sharedEv
FNDA:0,_ZN5boost3log11v2_mt_posix3aux14light_rw_mutex13unlock_sharedEv
FNF:2
FNH:0
DA:142,0
DA:144,0
DA:145,0
DA:146,0
DA:148,0
DA:149,0
LF:6
LH:0
end_of_record
SF:/home/bruce/work/lib/boost_1_54_0/boost/log/detail/locks.hpp
FN:56,_ZN5boost3log11v2_mt_posix7no_lockINS1_7sources18multi_thread_modelINS1_3aux14light_rw_mutexEEEEC2ERS7_
FN:120,_ZN5boost3log11v2_mt_posix3aux17shared_lock_guardINS1_7sources18multi_thread_modelINS2_14light_rw_mutexEEEEC2ERS7_
FN:124,_ZN5boost3log11v2_mt_posix3aux17shared_lock_guardINS1_7sources18multi_thread_modelINS2_14light_rw_mutexEEEED2Ev
FNDA:0,_ZN5boost3log11v2_mt_posix7no_lockINS1_7sources18multi_thread_modelINS1_3aux14light_rw_mutexEEEEC2ERS7_
FNDA:0,_ZN5boost3log11v2_mt_posix3aux17shared_lock_guardINS1_7sources18multi_thread_modelINS2_14light_rw_mutexEEEEC2ERS7_
FNDA:0,_ZN5boost3log11v2_mt_posix3aux17shared_lock_guardINS1_7sources18multi_thread_modelINS2_14light_rw_mutexEEEED2Ev
FNF:3
FNH:0
DA:56,0
DA:120,0
DA:122,0
DA:123,0
DA:124,0
DA:126,0
DA:127,0
LF:7
LH:0
end_of_record
SF:/home/bruce/work/lib/boost_1_54_0/boost/log/sources/basic_logger.hpp
FN:180,_ZNK5boost3log11v2_mt_posix7sources12basic_loggerIcNS2_18severity_logger_mtINS1_7trivial14severity_levelEEENS2_18multi_thread_modelINS1_3aux14light_rw_mutexEEEE4coreEv
FN:192,_ZN5boost3log11v2_mt_posix7sources12basic_loggerIcNS2_18severity_logger_mtINS1_7trivial14severity_levelEEENS2_18multi_thread_modelINS1_3aux14light_rw_mutexEEEE19get_threading_modelEv
FN:258,_ZN5boost3log11v2_mt_posix7sources12basic_loggerIcNS2_18severity_logger_mtINS1_7trivial14severity_levelEEENS2_18multi_thread_modelINS1_3aux14light_rw_mutexEEEE20open_record_unlockedINS_9parameter3aux15tagged_argumentINS1_8keywords3tag8severityEKS6_EEEENS1_6recordERKT_
FN:266,_ZN5boost3log11v2_mt_posix7sources12basic_loggerIcNS2_18severity_logger_mtINS1_7trivial14severity_levelEEENS2_18multi_thread_modelINS1_3aux14light_rw_mutexEEEE20push_record_unlockedEONS1_6recordE
FN:454,_ZN5boost3log11v2_mt_posix7sources22basic_composite_loggerIcNS2_18severity_logger_mtINS1_7trivial14severity_levelEEENS2_18multi_thread_modelINS1_3aux14light_rw_mutexEEENS2_8featuresIINS2_8severityIS6_EEEEEE11open_recordINS_9parameter3aux15tagged_argumentINS1_8keywords3tag8severityEKS6_EEEENS1_6recordERKT_
FN:470,_ZN5boost3log11v2_mt_posix7sources22basic_composite_loggerIcNS2_18severity_logger_mtINS1_7trivial14severity_levelEEENS2_18multi_thread_modelINS1_3aux14light_rw_mutexEEENS2_8featuresIINS2_8severityIS6_EEEEEE11push_recordEONS1_6recordE
FNDA:0,_ZNK5boost3log11v2_mt_posix7sources12basic_loggerIcNS2_18severity_logger_mtINS1_7trivial14severity_levelEEENS2_18multi_thread_modelINS1_3aux14light_rw_mutexEEEE4coreEv
FNDA:0,_ZN5boost3log11v2_mt_posix7sources12basic_loggerIcNS2_18severity_logger_mtINS1_7trivial14severity_levelEEENS2_18multi_thread_modelINS1_3aux14light_rw_mutexEEEE19get_threading_modelEv
FNDA:0,_ZN5boost3log11v2_mt_posix7sources12basic_loggerIcNS2_18severity_logger_mtINS1_7trivial14severity_levelEEENS2_18multi_thread_modelINS1_3aux14light_rw_mutexEEEE20open_record_unlockedINS_9parameter3aux15tagged_argumentINS1_8keywords3tag8severityEKS6_EEEENS1_6recordERKT_
FNDA:0,_ZN5boost3log11v2_mt_posix7sources12basic_loggerIcNS2_18severity_logger_mtINS1_7trivial14severity_levelEEENS2_18multi_thread_modelINS1_3aux14light_rw_mutexEEEE20push_record_unlockedEONS1_6recordE
FNDA:0,_ZN5boost3log11v2_mt_posix7sources22basic_composite_loggerIcNS2_18severity_logger_mtINS1_7trivial14severity_levelEEENS2_18multi_thread_modelINS1_3aux14light_rw_mutexEEENS2_8featuresIINS2_8severityIS6_EEEEEE11open_recordINS_9parameter3aux15tagged_argumentINS1_8keywords3tag8severityEKS6_EEEENS1_6recordERKT_
FNDA:0,_ZN5boost3log11v2_mt_posix7sources22basic_composite_loggerIcNS2_18severity_logger_mtINS1_7trivial14severity_levelEEENS2_18multi_thread_modelINS1_3aux14light_rw_mutexEEENS2_8featuresIINS2_8severityIS6_EEEEEE11push_recordEONS1_6recordE
FNF:6
FNH:0
DA:180,0
DA:192,0
DA:258,0
DA:260,0
DA:266,0
DA:268,0
DA:269,0
DA:454,0
DA:457,0
DA:459,0
DA:460,0
DA:463,0
DA:470,0
DA:472,0
DA:473,0
DA:474,0
LF:16
LH:0
end_of_record
SF:/home/bruce/work/lib/boost_1_54_0/boost/log/sources/record_ostream.hpp
FN:124,_ZN5boost3log11v2_mt_posix20basic_record_ostreamIcE10get_recordEv
FN:242,_ZN5boost3log11v2_mt_posix3aux11record_pumpINS1_7sources18severity_logger_mtINS1_7trivial14severity_levelEEEE12auto_releaseC2EPNS2_15stream_providerIcE15stream_compoundE
FN:243,_ZN5boost3log11v2_mt_posix3aux11record_pumpINS1_7sources18severity_logger_mtINS1_7trivial14severity_levelEEEE12auto_releaseD2Ev
FN:256,_ZN5boost3log11v2_mt_posix3aux11record_pumpINS1_7sources18severity_logger_mtINS1_7trivial14severity_levelEEEEC2ERS8_RNS1_6recordE
FN:272,_ZN5boost3log11v2_mt_posix3aux11record_pumpINS1_7sources18severity_logger_mtINS1_7trivial14severity_levelEEEED2Ev
FN:284,_ZNK5boost3log11v2_mt_posix3aux11record_pumpINS1_7sources18severity_logger_mtINS1_7trivial14severity_levelEEEE6streamEv
FNDA:0,_ZN5boost3log11v2_mt_posix20basic_record_ostreamIcE10get_recordEv
FNDA:0,_ZN5boost3log11v2_mt_posix3aux11record_pumpINS1_7sources18severity_logger_mtINS1_7trivial14severity_levelEEEE12auto_releaseC2EPNS2_15stream_providerIcE15stream_compoundE
FNDA:0,_ZN5boost3log11v2_mt_posix3aux11record_pumpINS1_7sources18severity_logger_mtINS1_7trivial14severity_levelEEEE12auto_releaseD2Ev
FNDA:0,_ZN5boost3log11v2_mt_posix3aux11record_pumpINS1_7sources18severity_logger_mtINS1_7trivial14severity_levelEEEEC2ERS8_RNS1_6recordE
FNDA:0,_ZN5boost3log11v2_mt_posix3aux11record_pumpINS1_7sources18severity_logger_mtINS1_7trivial14severity_levelEEEED2Ev
FNDA:0,_ZNK5boost3log11v2_mt_posix3aux11record_pumpINS1_7sources18severity_logger_mtINS1_7trivial14severity_levelEEEE6streamEv
FNF:6
FNH:0
DA:124,0
DA:126,0
DA:127,0
DA:128,0
DA:242,0
DA:243,0
DA:256,0
DA:257,0
DA:258,0
DA:259,0
DA:261,0
DA:272,0
DA:274,0
DA:276,0
DA:278,0
DA:279,0
DA:281,0
DA:284,0
DA:286,0
DA:287,0
DA:294,2880
LF:21
LH:1
end_of_record
SF:/home/bruce/work/lib/boost_1_54_0/boost/log/sources/severity_feature.hpp
FN:133,_ZN5boost3log11v2_mt_posix7sources3aux14severity_levelINS1_7trivial14severity_levelEE9set_valueES6_
FN:250,_ZN5boost3log11v2_mt_posix7sources21basic_severity_loggerINS2_12basic_loggerIcNS2_18severity_logger_mtINS1_7trivial14severity_levelEEENS2_18multi_thread_modelINS1_3aux14light_rw_mutexEEEEES7_E20open_record_unlockedINS_9parameter3aux15tagged_argumentINS1_8keywords3tag8severityEKS7_EEEENS1_6recordERKT_
FNDA:0,_ZN5boost3log11v2_mt_posix7sources3aux14severity_levelINS1_7trivial14severity_levelEE9set_valueES6_
FNDA:0,_ZN5boost3log11v2_mt_posix7sources21basic_severity_loggerINS2_12basic_loggerIcNS2_18severity_logger_mtINS1_7trivial14severity_levelEEENS2_18multi_thread_modelINS1_3aux14light_rw_mutexEEEEES7_E20open_record_unlockedINS_9parameter3aux15tagged_argumentINS1_8keywords3tag8severityEKS7_EEEENS1_6recordERKT_
FNF:2
FNH:0
DA:133,0
DA:135,0
DA:136,0
DA:250,0
DA:252,0
DA:253,0
LF:6
LH:0
end_of_record
SF:/home/bruce/work/lib/boost_1_54_0/boost/log/sources/threading_models.hpp
FN:74,_ZNK5boost3log11v2_mt_posix7sources18multi_thread_modelINS1_3aux14light_rw_mutexEE11lock_sharedEv
FN:78,_ZNK5boost3log11v2_mt_posix7sources18multi_thread_modelINS1_3aux14light_rw_mutexEE13unlock_sharedEv
FNDA:0,_ZNK5boost3log11v2_mt_posix7sources18multi_thread_modelINS1_3aux14light_rw_mutexEE11lock_sharedEv
FNDA:0,_ZNK5boost3log11v2_mt_posix7sources18multi_thread_modelINS1_3aux14light_rw_mutexEE13unlock_sharedEv
FNF:2
FNH:0
DA:74,0
DA:78,0
LF:2
LH:0
end_of_record
SF:/home/bruce/work/lib/boost_1_54_0/boost/log/utility/formatting_ostream.hpp
FN:114,_ZN5boost3log11v2_mt_posix24basic_formatting_ostreamIcSt11char_traitsIcESaIcEE6sentryD2Ev
FN:120,_ZN5boost3log11v2_mt_posix24basic_formatting_ostreamIcSt11char_traitsIcESaIcEE6sentryC2ERS6_
FN:247,_ZN5boost3log11v2_mt_posix24basic_formatting_ostreamIcSt11char_traitsIcESaIcEE6streamEv
FN:316,_ZN5boost3log11v2_mt_posix24basic_formatting_ostreamIcSt11char_traitsIcESaIcEE5flushEv
FN:390,_ZN5boost3log11v2_mt_posix24basic_formatting_ostreamIcSt11char_traitsIcESaIcEElsEPKc
FN:451,_ZN5boost3log11v2_mt_posix24basic_formatting_ostreamIcSt11char_traitsIcESaIcEElsEi
FN:514,_ZN5boost3log11v2_mt_posixlsIcSt11char_traitsIcESaIcEEENS1_3aux19enable_if_char_typeIT_RNS1_24basic_formatting_ostreamIcS4_S5_EEE4typeESB_RKSbIS8_T0_T1_E
FN:549,_ZN5boost3log11v2_mt_posix24basic_formatting_ostreamIcSt11char_traitsIcESaIcEE15formatted_writeIcEERS6_PKT_l
FN:662,_ZN5boost3log11v2_mt_posixlsIcSt11char_traitsIcESaIcE7point_tEERNS1_24basic_formatting_ostreamIT_T0_T1_EESC_RKT2_
FNDA:0,_ZN5boost3log11v2_mt_posix24basic_formatting_ostreamIcSt11char_traitsIcESaIcEE6sentryD2Ev
FNDA:0,_ZN5boost3log11v2_mt_posix24basic_formatting_ostreamIcSt11char_traitsIcESaIcEE6sentryC2ERS6_
FNDA:0,_ZN5boost3log11v2_mt_posix24basic_formatting_ostreamIcSt11char_traitsIcESaIcEE6streamEv
FNDA:0,_ZN5boost3log11v2_mt_posix24basic_formatting_ostreamIcSt11char_traitsIcESaIcEE5flushEv
FNDA:0,_ZN5boost3log11v2_mt_posix24basic_formatting_ostreamIcSt11char_traitsIcESaIcEElsEPKc
FNDA:0,_ZN5boost3log11v2_mt_posix24basic_formatting_ostreamIcSt11char_traitsIcESaIcEElsEi
FNDA:0,_ZN5boost3log11v2_mt_posixlsIcSt11char_traitsIcESaIcEEENS1_3aux19enable_if_char_typeIT_RNS1_24basic_formatting_ostreamIcS4_S5_EEE4typeESB_RKSbIS8_T0_T1_E
FNDA:0,_ZN5boost3log11v2_mt_posix24basic_formatting_ostreamIcSt11char_traitsIcESaIcEE15formatted_writeIcEERS6_PKT_l
FNDA:0,_ZN5boost3log11v2_mt_posixlsIcSt11char_traitsIcESaIcE7point_tEERNS1_24basic_formatting_ostreamIT_T0_T1_EESC_RKT2_
FNF:9
FNH:0
DA:114,0
DA:120,0
DA:122,0
DA:247,0
DA:316,0
DA:318,0
DA:319,0
DA:390,0
DA:392,0
DA:451,0
DA:453,0
DA:454,0
DA:514,0
DA:516,0
DA:549,0
DA:551,0
DA:552,0
DA:554,0
DA:555,0
DA:557,0
DA:558,0
DA:560,0
DA:564,0
DA:566,0
DA:567,0
DA:568,0
DA:570,0
DA:572,0
DA:573,0
DA:576,0
DA:579,0
DA:662,0
DA:664,0
DA:665,0
LF:34
LH:0
end_of_record
SF:/home/bruce/work/lib/boost_1_54_0/boost/move/utility.hpp
FN:138,_ZN5boost4moveIRNS_3log11v2_mt_posix6recordEEEONS_16remove_referenceIT_E4typeEOS6_
FNDA:0,_ZN5boost4moveIRNS_3log11v2_mt_posix6recordEEEONS_16remove_referenceIT_E4typeEOS6_
FNF:1
FNH:0
DA:138,0
DA:139,0
LF:2
LH:0
end_of_record
SF:/home/bruce/work/lib/boost_1_54_0/boost/parameter/aux_/default.hpp
FN:18,_ZN5boost9parameter3aux8default_INS_3log11v2_mt_posix8keywords3tag8severityENS4_7trivial14severity_levelEEC2ERS9_
FNDA:0,_ZN5boost9parameter3aux8default_INS_3log11v2_mt_posix8keywords3tag8severityENS4_7trivial14severity_levelEEC2ERS9_
FNF:1
FNH:0
DA:18,0
DA:19,0
DA:20,0
LF:3
LH:0
end_of_record
SF:/home/bruce/work/lib/boost_1_54_0/boost/parameter/aux_/tagged_argument.hpp
FN:25,_ZN5boost9parameter3aux20tagged_argument_baseC2Ev
FN:37,_ZN5boost9parameter3aux15tagged_argumentINS_3log11v2_mt_posix8keywords3tag8severityEKNS4_7trivial14severity_levelEEC2ERSA_
FN:123,_ZNK5boost9parameter3aux15tagged_argumentINS_3log11v2_mt_posix8keywords3tag8severityEKNS4_7trivial14severity_levelEEixIS9_EERSA_RKNS1_8default_IS7_T_EE
FNDA:0,_ZN5boost9parameter3aux20tagged_argument_baseC2Ev
FNDA:0,_ZN5boost9parameter3aux15tagged_argumentINS_3log11v2_mt_posix8keywords3tag8severityEKNS4_7trivial14severity_levelEEC2ERSA_
FNDA:0,_ZNK5boost9parameter3aux15tagged_argumentINS_3log11v2_mt_posix8keywords3tag8severityEKNS4_7trivial14severity_levelEEixIS9_EERSA_RKNS1_8default_IS7_T_EE
FNF:3
FNH:0
DA:25,0
DA:37,0
DA:123,0
DA:125,0
LF:4
LH:0
end_of_record
SF:/home/bruce/work/lib/boost_1_54_0/boost/parameter/keyword.hpp
FN:43,_ZNK5boost9parameter7keywordINS_3log11v2_mt_posix8keywords3tag8severityEEorINS3_7trivial14severity_levelEEENS0_3aux8default_IS6_T_EERSD_
FN:58,_ZNK5boost9parameter7keywordINS_3log11v2_mt_posix8keywords3tag8severityEEaSINS3_7trivial14severity_levelEEEKNS0_3aux3tagIS6_KT_E4typeERSE_
FNDA:0,_ZNK5boost9parameter7keywordINS_3log11v2_mt_posix8keywords3tag8severityEEorINS3_7trivial14severity_levelEEENS0_3aux8default_IS6_T_EERSD_
FNDA:0,_ZNK5boost9parameter7keywordINS_3log11v2_mt_posix8keywords3tag8severityEEaSINS3_7trivial14severity_levelEEEKNS0_3aux3tagIS6_KT_E4typeERSE_
FNF:2
FNH:0
DA:43,0
DA:45,0
DA:58,0
DA:61,0
LF:4
LH:0
end_of_record
SF:/home/bruce/work/lib/boost_1_54_0/boost/smart_ptr/shared_ptr.hpp
FN:651,_ZNK5boost10shared_ptrINS_3log11v2_mt_posix4coreEEptEv
FNDA:0,_ZNK5boost10shared_ptrINS_3log11v2_mt_posix4coreEEptEv
FNF:1
FNH:0
DA:651,0
DA:653,0
DA:654,0
LF:3
LH:0
end_of_record
SF:/home/bruce/work/lib/boost_1_54_0/boost/utility/addressof.hpp
FN:28,_ZN5boost6detail13addr_impl_refINS_3log11v2_mt_posix7sources18severity_logger_mtINS3_7trivial14severity_levelEEEEC2ERS8_
FN:29,_ZNK5boost6detail13addr_impl_refINS_3log11v2_mt_posix7sources18severity_logger_mtINS3_7trivial14severity_levelEEEEcvRS8_Ev
FN:37,_ZN5boost6detail14addressof_implINS_3log11v2_mt_posix7sources18severity_logger_mtINS3_7trivial14severity_levelEEEE1fERS8_l
FN:51,_ZN5boost9addressofINS_3log11v2_mt_posix7sources18severity_logger_mtINS2_7trivial14severity_levelEEEEEPT_RS8_
FNDA:0,_ZN5boost6detail13addr_impl_refINS_3log11v2_mt_posix7sources18severity_logger_mtINS3_7trivial14severity_levelEEEEC2ERS8_
FNDA:0,_ZNK5boost6detail13addr_impl_refINS_3log11v2_mt_posix7sources18severity_logger_mtINS3_7trivial14severity_levelEEEEcvRS8_Ev
FNDA:0,_ZN5boost6detail14addressof_implINS_3log11v2_mt_posix7sources18severity_logger_mtINS3_7trivial14severity_levelEEEE1fERS8_l
FNDA:0,_ZN5boost9addressofINS_3log11v2_mt_posix7sources18severity_logger_mtINS2_7trivial14severity_levelEEEEEPT_RS8_
FNF:4
FNH:0
DA:28,0
DA:29,0
DA:37,0
DA:40,0
DA:51,0
DA:59,0
LF:6
LH:0
end_of_record
SF:/usr/include/c++/4.8/bits/basic_ios.h
FN:46,_ZSt13__check_facetISt5ctypeIcEERKT_PS3_
FNDA:0,_ZSt13__check_facetISt5ctypeIcEERKT_PS3_
FNF:1
FNH:0
DA:46,0
DA:48,0
DA:49,0
DA:50,0
LF:4
LH:0
end_of_record
SF:/usr/include/c++/4.8/bits/basic_string.h
FN:272,_ZNSs12_Alloc_hiderD2Ev
FNDA:0,_ZNSs12_Alloc_hiderD2Ev
FNF:1
FNH:0
DA:272,0
LF:1
LH:0
end_of_record
SF:/usr/include/c++/4.8/bits/char_traits.h
FN:258,_ZNSt11char_traitsIcE6lengthEPKc
FNDA:0,_ZNSt11char_traitsIcE6lengthEPKc
FNF:1
FNH:0
DA:258,0
DA:259,0
LF:2
LH:0
end_of_record
SF:/usr/include/c++/4.8/bits/ios_base.h
FN:75,_ZStanSt13_Ios_FmtflagsS_
FN:157,_ZStorSt12_Ios_IostateS_
FN:551,_ZNKSt8ios_base5flagsEv
FN:644,_ZNKSt8ios_base5widthEv
FN:653,_ZNSt8ios_base5widthEl
FN:695,_ZNKSt8ios_base6getlocEv
FNDA:0,_ZStanSt13_Ios_FmtflagsS_
FNDA:0,_ZStorSt12_Ios_IostateS_
FNDA:0,_ZNKSt8ios_base5flagsEv
FNDA:0,_ZNKSt8ios_base5widthEv
FNDA:0,_ZNSt8ios_base5widthEl
FNDA:0,_ZNKSt8ios_base6getlocEv
FNF:6
FNH:0
DA:75,0
DA:76,0
DA:157,0
DA:158,0
DA:551,0
DA:552,0
DA:644,0
DA:645,0
DA:653,0
DA:655,0
DA:656,0
DA:657,0
DA:695,0
DA:696,0
LF:14
LH:0
end_of_record
SF:/usr/include/c++/4.8/bits/locale_facets.h
FN:865,_ZNKSt5ctypeIcE5widenEc
FNDA:0,_ZNKSt5ctypeIcE5widenEc
FNF:1
FNH:0
DA:865,0
DA:867,0
DA:868,0
DA:869,0
DA:870,0
LF:5
LH:0
end_of_record
SF:/usr/include/c++/4.8/bits/move.h
FN:101,_ZSt4moveIRPiEONSt16remove_referenceIT_E4typeEOS3_
FN:166,_ZSt4swapIPiEvRT_S2_
FNDA:4320,_ZSt4moveIRPiEONSt16remove_referenceIT_E4typeEOS3_
FNDA:1440,_ZSt4swapIPiEvRT_S2_
FNF:2
FNH:2
DA:101,4320
DA:102,4320
DA:166,1440
DA:175,1440
DA:176,1440
DA:177,1440
DA:178,1440
LF:7
LH:7
end_of_record
SF:/usr/include/c++/4.8/cmath
FN:482,_ZSt4sqrtf
FNDA:0,_ZSt4sqrtf
FNF:1
FNH:0
DA:482,0
DA:483,0
LF:2
LH:0
end_of_record
SF:/usr/include/c++/4.8/ext/atomicity.h
FN:48,_ZN9__gnu_cxxL18__exchange_and_addEPVii
FN:65,_ZN9__gnu_cxxL25__exchange_and_add_singleEPii
FN:78,_ZN9__gnu_cxxL27__exchange_and_add_dispatchEPii
FNDA:0,_ZN9__gnu_cxxL18__exchange_and_addEPVii
FNDA:0,_ZN9__gnu_cxxL25__exchange_and_add_singleEPii
FNDA:0,_ZN9__gnu_cxxL27__exchange_and_add_dispatchEPii
FNF:3
FNH:0
DA:48,0
DA:49,0
DA:65,0
DA:67,0
DA:68,0
DA:69,0
DA:78,0
DA:81,0
DA:82,0
DA:84,0
LF:10
LH:0
end_of_record
SF:/usr/include/c++/4.8/ext/new_allocator.h
FN:79,_ZN9__gnu_cxx13new_allocatorIcEC2Ev
FN:81,_ZN9__gnu_cxx13new_allocatorIcEC2ERKS1_
FN:86,_ZN9__gnu_cxx13new_allocatorIcED2Ev
FNDA:0,_ZN9__gnu_cxx13new_allocatorIcEC2Ev
FNDA:0,_ZN9__gnu_cxx13new_allocatorIcEC2ERKS1_
FNDA:0,_ZN9__gnu_cxx13new_allocatorIcED2Ev
FNF:3
FNH:0
DA:79,0
DA:81,0
DA:86,0
LF:3
LH:0
end_of_record
SF:/usr/include/c++/4.8/iostream
DA:74,6
LF:1
LH:1
end_of_record
SF:/usr/include/x86_64-linux-gnu/c++/4.8/bits/gthr-default.h
FN:247,_ZL18__gthread_active_pv
FNDA:0,_ZL18__gthread_active_pv
FNF:1
FNH:0
DA:247,0
DA:251,0
LF:2
LH:0
end_of_record
SF:/home/bruce/work/RAPTor/physics_engine/gjk.cc
FN:7,_ZN14raptor_physics3gjk21find_minimum_distanceEP7point_tRKS1_S4_b
FN:63,_ZNK14raptor_physics3gjk30find_closest_feature_to_originEPK7point_tPiPS1_
FN:254,_ZNK14raptor_physics3gjk11in_triangleERK7point_tS3_S3_S3_PS1_Piiii
FN:295,_Z41__static_initialization_and_destruction_0ii
FN:295,_GLOBAL__sub_I_gjk.cc
FNDA:240,_ZN14raptor_physics3gjk21find_minimum_distanceEP7point_tRKS1_S4_b
FNDA:720,_ZNK14raptor_physics3gjk30find_closest_feature_to_originEPK7point_tPiPS1_
FNDA:0,_ZNK14raptor_physics3gjk11in_triangleERK7point_tS3_S3_S3_PS1_Piiii
FNDA:6,_GLOBAL__sub_I_gjk.cc
FNDA:6,_Z41__static_initialization_and_destruction_0ii
FNF:5
FNH:4
DA:7,240
DA:9,240
DA:11,240
DA:12,240
DA:15,480
DA:16,480
DA:27,720
DA:31,720
DA:32,1440
DA:33,1440
DA:36,720
DA:38,0
DA:39,0
DA:40,0
DA:44,720
DA:45,720
DA:46,1440
DA:48,720
DA:49,720
DA:50,720
DA:51,720
DA:53,240
DA:54,480
DA:55,240
DA:58,480
DA:59,480
DA:60,240
DA:63,720
DA:65,720
DA:68,720
DA:69,720
DA:72,240
DA:73,240
DA:74,240
DA:82,480
DA:83,1512
DA:85,1656
DA:87,624
DA:88,624
DA:98,1512
DA:100,3312
DA:102,2280
DA:104,1248
DA:110,1344
DA:112,1032
DA:113,3312
DA:115,2280
DA:119,1032
DA:121,168
DA:122,168
DA:123,168
DA:128,312
DA:130,240
DA:131,240
DA:132,240
DA:133,240
DA:134,240
DA:135,240
DA:139,72
DA:140,72
DA:141,72
DA:143,72
DA:144,72
DA:145,72
DA:149,0
DA:150,0
DA:151,0
DA:160,72
DA:162,0
DA:166,72
DA:168,72
DA:172,0
DA:174,0
DA:177,0
DA:179,0
DA:183,0
DA:185,0
DA:189,0
DA:191,0
DA:195,0
DA:197,0
DA:198,0
DA:199,0
DA:201,0
DA:202,0
DA:206,0
DA:207,0
DA:210,0
DA:211,0
DA:212,0
DA:220,0
DA:221,0
DA:223,0
DA:226,0
DA:227,0
DA:229,0
DA:232,0
DA:233,0
DA:235,0
DA:238,0
DA:239,0
DA:241,0
DA:245,0
DA:246,0
DA:247,0
DA:248,0
DA:249,0
DA:250,0
DA:254,0
DA:258,0
DA:259,0
DA:261,0
DA:262,0
DA:263,0
DA:266,0
DA:267,0
DA:268,0
DA:270,0
DA:271,0
DA:272,0
DA:274,0
DA:275,0
DA:277,0
DA:280,0
DA:281,0
DA:283,0
DA:287,0
DA:288,0
DA:289,0
DA:291,0
DA:293,0
DA:295,18
LF:132
LH:65
end_of_record
SF:/home/bruce/work/RAPTor/physics_engine/gjk.h
FN:59,_ZN14raptor_physics3gjk19find_support_vertexERK9matrix_3dRK7point_tS6_b
FN:81,_ZNK14raptor_physics3gjk9test_edgeERK7point_tS3_ffS3_S3_iiPiPS1_
FNDA:720,_ZN14raptor_physics3gjk19find_support_vertexERK9matrix_3dRK7point_tS6_b
FNDA:144,_ZNK14raptor_physics3gjk9test_edgeERK7point_tS3_ffS3_S3_iiPiPS1_
FNF:2
FNH:2
DA:59,720
DA:62,720
DA:65,720
DA:66,720
DA:68,72
DA:71,720
DA:81,144
DA:85,144
DA:89,144
DA:90,144
DA:91,144
DA:94,72
DA:95,72
DA:96,72
DA:97,72
DA:99,72
DA:100,72
DA:104,0
DA:106,72
DA:110,72
LF:20
LH:19
end_of_record
SF:/home/bruce/work/RAPTor/physics_engine/matrix_3d.h
FN:198,_ZNK9matrix_3d7get_rowEi
FNDA:0,_ZNK9matrix_3d7get_rowEi
FNF:1
FNH:0
DA:198,0
DA:200,0
LF:2
LH:0
end_of_record
SF:/home/bruce/work/RAPTor/physics_engine/simplex.h
FN:47,_ZNK14raptor_physics7simplex15compute_c_spaceERKS0_P7point_tRKS3_S6_
FN:82,_ZNK14raptor_physics7simplex4sizeEv
FN:87,_ZNK14raptor_physics7simplex11is_new_pairERKS0_ii
FN:106,_ZN14raptor_physics7simplex15retain_verticesEPKij
FN:124,_ZN14raptor_physics7simplex3addEi
FN:255,_ZNK14raptor_physics7simplex20get_displaced_vertexERK7point_ti
FNDA:720,_ZNK14raptor_physics7simplex15compute_c_spaceERKS0_P7point_tRKS3_S6_
FNDA:1440,_ZNK14raptor_physics7simplex4sizeEv
FNDA:720,_ZNK14raptor_physics7simplex11is_new_pairERKS0_ii
FNDA:1440,_ZN14raptor_physics7simplex15retain_verticesEPKij
FNDA:960,_ZN14raptor_physics7simplex3addEi
FNDA:2544,_ZNK14raptor_physics7simplex20get_displaced_vertexERK7point_ti
FNF:6
FNH:6
DA:47,720
DA:50,720
DA:56,1992
DA:58,1272
DA:64,720
DA:66,0
DA:67,0
DA:68,0
DA:69,0
DA:70,0
DA:71,0
DA:73,0
DA:74,0
DA:75,0
DA:78,720
DA:82,1440
DA:84,1440
DA:87,720
DA:90,720
DA:93,1512
DA:96,1032
DA:98,240
DA:102,480
DA:106,1440
DA:108,1440
DA:111,3504
DA:113,2064
DA:117,1440
DA:118,1440
DA:120,1440
DA:124,960
DA:126,960
DA:127,960
DA:129,960
DA:255,2544
DA:257,2544
DA:258,2544
DA:260,144
DA:264,2400
LF:39
LH:30
end_of_record
TN:
SF:/home/bruce/work/RAPTor/common/logging.h
FN:34,_ZN14raptor_physics13method_loggerC2ERKSs
FN:39,_ZN14raptor_physics13method_loggerD2Ev
FNDA:0,_ZN14raptor_physics13method_loggerC2ERKSs
FNDA:0,_ZN14raptor_physics13method_loggerD2Ev
FNF:2
FNH:0
DA:34,0
DA:36,0
DA:37,0
DA:39,0
DA:40,0
DA:41,0
DA:42,0
LF:7
LH:0
end_of_record
SF:/home/bruce/work/RAPTor/raytracer/point_t.h
FN:17,_ZN7point_tC2Efff
FN:130,_Z3maxRK7point_tS1_
FN:141,_Z3minRK7point_tS1_
FNDA:0,_ZN7point_tC2Efff
FNDA:0,_Z3maxRK7point_tS1_
FNDA:0,_Z3minRK7point_tS1_
FNF:3
FNH:0
DA:17,0
DA:130,0
DA:132,0
DA:133,0
DA:134,0
DA:135,0
DA:137,0
DA:141,0
DA:143,0
DA:144,0
DA:145,0
DA:146,0
DA:148,0
LF:13
LH:0
end_of_record
SF:/home/bruce/work/lib/boost_1_54_0/boost/log/core/core.hpp
DA:308,0
LF:1
LH:0
end_of_record
SF:/home/bruce/work/lib/boost_1_54_0/boost/log/core/record.hpp
FN:66,_ZN5boost3log11v2_mt_posix6recordC2Ev
FN:79,_ZN5boost3log11v2_mt_posix6recordD2Ev
FN:125,_ZNK5boost3log11v2_mt_posix6recordntEv
FN:149,_ZN5boost3log11v2_mt_posix6record5resetEv
FNDA:0,_ZN5boost3log11v2_mt_posix6recordC2Ev
FNDA:0,_ZN5boost3log11v2_mt_posix6recordD2Ev
FNDA:0,_ZNK5boost3log11v2_mt_posix6recordntEv
FNDA:0,_ZN5boost3log11v2_mt_posix6record5resetEv
FNF:4
FNH:0
DA:66,0
DA:79,0
DA:81,0
DA:82,0
DA:125,0
DA:127,0
DA:149,0
DA:151,0
DA:153,0
DA:154,0
DA:156,0
LF:11
LH:0
end_of_record
SF:/home/bruce/work/lib/boost_1_54_0/boost/log/detail/attachable_sstream_buf.hpp
FN:109,_ZNK5boost3log11v2_mt_posix3aux22basic_ostringstreambufIcSt11char_traitsIcESaIcEE7storageEv
FNDA:0,_ZNK5boost3log11v2_mt_posix3aux22basic_ostringstreambufIcSt11char_traitsIcESaIcEE7storageEv
FNF:1
FNH:0
DA:109,0
LF:1
LH:0
end_of_record
SF:/home/bruce/work/lib/boost_1_54_0/boost/log/detail/code_conversion.hpp
FN:59,_ZN5boost3log11v2_mt_posix3aux12code_convertIcSt11char_traitsIcESaIcEEEvPKT_mRSbIS7_T0_T1_ERKSt6locale
FNDA:0,_ZN5boost3log11v2_mt_posix3aux12code_convertIcSt11char_traitsIcESaIcEEEvPKT_mRSbIS7_T0_T1_ERKSt6locale
FNF:1
FNH:0
DA:59,0
DA:61,0
DA:62,0
LF:3
LH:0
end_of_record
SF:/home/bruce/work/lib/boost_1_54_0/boost/log/detail/light_rw_mutex.hpp
FN:142,_ZN5boost3log11v2_mt_posix3aux14light_rw_mutex11lock_sharedEv
FN:146,_ZN5boost3log11v2_mt_posix3aux14light_rw_mutex13unlock_sharedEv
FNDA:0,_ZN5boost3log11v2_mt_posix3aux14light_rw_mutex11lock_sharedEv
FNDA:0,_ZN5boost3log11v2_mt_posix3aux14light_rw_mutex13unlock_sharedEv
FNF:2
FNH:0
DA:142,0
DA:144,0
DA:145,0
DA:146,0
DA:148,0
DA:149,0
LF:6
LH:0
end_of_record
SF:/home/bruce/work/lib/boost_1_54_0/boost/log/detail/locks.hpp
FN:56,_ZN5boost3log11v2_mt_posix7no_lockINS1_7sources18multi_thread_modelINS1_3aux14light_rw_mutexEEEEC2ERS7_
FN:120,_ZN5boost3log11v2_mt_posix3aux17shared_lock_guardINS1_7sources18multi_thread_modelINS2_14light_rw_mutexEEEEC2ERS7_
FN:124,_ZN5boost3log11v2_mt_posix3aux17shared_lock_guardINS1_7sources18multi_thread_modelINS2_14light_rw_mutexEEEED2Ev
FNDA:0,_ZN5boost3log11v2_mt_posix7no_lockINS1_7sources18multi_thread_modelINS1_3aux14light_rw_mutexEEEEC2ERS7_
FNDA:0,_ZN5boost3log11v2_mt_posix3aux17shared_lock_guardINS1_7sources18multi_thread_modelINS2_14light_rw_mutexEEEEC2ERS7_
FNDA:0,_ZN5boost3log11v2_mt_posix3aux17shared_lock_guardINS1_7sources18multi_thread_modelINS2_14light_rw_mutexEEEED2Ev
FNF:3
FNH:0
DA:56,0
DA:120,0
DA:122,0
DA:123,0
DA:124,0
DA:126,0
DA:127,0
LF:7
LH:0
end_of_record
SF:/home/bruce/work/lib/boost_1_54_0/boost/log/sources/basic_logger.hpp
FN:180,_ZNK5boost3log11v2_mt_posix7sources12basic_loggerIcNS2_18severity_logger_mtINS1_7trivial14severity_levelEEENS2_18multi_thread_modelINS1_3aux14light_rw_mutexEEEE4coreEv
FN:192,_ZN5boost3log11v2_mt_posix7sources12basic_loggerIcNS2_18severity_logger_mtINS1_7trivial14severity_levelEEENS2_18multi_thread_modelINS1_3aux14light_rw_mutexEEEE19get_threading_modelEv
FN:258,_ZN5boost3log11v2_mt_posix7sources12basic_loggerIcNS2_18severity_logger_mtINS1_7trivial14severity_levelEEENS2_18multi_thread_modelINS1_3aux14light_rw_mutexEEEE20open_record_unlockedINS_9parameter3aux15tagged_argumentINS1_8keywords3tag8severityEKS6_EEEENS1_6recordERKT_
FN:266,_ZN5boost3log11v2_mt_posix7sources12basic_loggerIcNS2_18severity_logger_mtINS1_7trivial14severity_levelEEENS2_18multi_thread_modelINS1_3aux14light_rw_mutexEEEE20push_record_unlockedEONS1_6recordE
FN:454,_ZN5boost3log11v2_mt_posix7sources22basic_composite_loggerIcNS2_18severity_logger_mtINS1_7trivial14severity_levelEEENS2_18multi_thread_modelINS1_3aux14light_rw_mutexEEENS2_8featuresIINS2_8severityIS6_EEEEEE11open_recordINS_9parameter3aux15tagged_argumentINS1_8keywords3tag8severityEKS6_EEEENS1_6recordERKT_
FN:470,_ZN5boost3log11v2_mt_posix7sources22basic_composite_loggerIcNS2_18severity_logger_mtINS1_7trivial14severity_levelEEENS2_18multi_thread_modelINS1_3aux14light_rw_mutexEEENS2_8featuresIINS2_8severityIS6_EEEEEE11push_recordEONS1_6recordE
FNDA:0,_ZNK5boost3log11v2_mt_posix7sources12basic_loggerIcNS2_18severity_logger_mtINS1_7trivial14severity_levelEEENS2_18multi_thread_modelINS1_3aux14light_rw_mutexEEEE4coreEv
FNDA:0,_ZN5boost3log11v2_mt_posix7sources12basic_loggerIcNS2_18severity_logger_mtINS1_7trivial14severity_levelEEENS2_18multi_thread_modelINS1_3aux14light_rw_mutexEEEE19get_threading_modelEv
FNDA:0,_ZN5boost3log11v2_mt_posix7sources12basic_loggerIcNS2_18severity_logger_mtINS1_7trivial14severity_levelEEENS2_18multi_thread_modelINS1_3aux14light_rw_mutexEEEE20open_record_unlockedINS_9parameter3aux15tagged_argumentINS1_8keywords3tag8severityEKS6_EEEENS1_6recordERKT_
FNDA:0,_ZN5boost3log11v2_mt_posix7sources12basic_loggerIcNS2_18severity_logger_mtINS1_7trivial14severity_levelEEENS2_18multi_thread_modelINS1_3aux14light_rw_mutexEEEE20push_record_unlockedEONS1_6recordE
FNDA:0,_ZN5boost3log11v2_mt_posix7sources22basic_composite_loggerIcNS2_18severity_logger_mtINS1_7trivial14severity_levelEEENS2_18multi_thread_modelINS1_3aux14light_rw_mutexEEENS2_8featuresIINS2_8severityIS6_EEEEEE11open_recordINS_9parameter3aux15tagged_argumentINS1_8keywords3tag8severityEKS6_EEEENS1_6recordERKT_
FNDA:0,_ZN5boost3log11v2_mt_posix7sources22basic_composite_loggerIcNS2_18severity_logger_mtINS1_7trivial14severity_levelEEENS2_18multi_thread_modelINS1_3aux14light_rw_mutexEEENS2_8featuresIINS2_8severityIS6_EEEEEE11push_recordEONS1_6recordE
FNF:6
FNH:0
DA:180,0
DA:192,0
DA:258,0
DA:260,0
DA:266,0
DA:268,0
DA:269,0
DA:454,0
DA:457,0
DA:459,0
DA:460,0
DA:463,0
DA:470,0
DA:472,0
DA:473,0
DA:474,0
LF:16
LH:0
end_of_record
SF:/home/bruce/work/lib/boost_1_54_0/boost/log/sources/record_ostream.hpp
FN:124,_ZN5boost3log11v2_mt_posix20basic_record_ostreamIcE10get_recordEv
FN:242,_ZN5boost3log11v2_mt_posix3aux11record_pumpINS1_7sources18severity_logger_mtINS1_7trivial14severity_levelEEEE12auto_releaseC2EPNS2_15stream_providerIcE15stream_compoundE
FN:243,_ZN5boost3log11v2_mt_posix3aux11record_pumpINS1_7sources18severity_logger_mtINS1_7trivial14severity_levelEEEE12auto_releaseD2Ev
FN:256,_ZN5boost3log11v2_mt_posix3aux11record_pumpINS1_7sources18severity_logger_mtINS1_7trivial14severity_levelEEEEC2ERS8_RNS1_6recordE
FN:272,_ZN5boost3log11v2_mt_posix3aux11record_pumpINS1_7sources18severity_logger_mtINS1_7trivial14severity_levelEEEED2Ev
FN:284,_ZNK5boost3log11v2_mt_posix3aux11record_pumpINS1_7sources18severity_logger_mtINS1_7trivial14severity_levelEEEE6streamEv
FNDA:0,_ZN5boost3log11v2_mt_posix20basic_record_ostreamIcE10get_recordEv
FNDA:0,_ZN5boost3log11v2_mt_posix3aux11record_pumpINS1_7sources18severity_logger_mtINS1_7trivial14severity_levelEEEE12auto_releaseC2EPNS2_15stream_providerIcE15stream_compoundE
FNDA:0,_ZN5boost3log11v2_mt_posix3aux11record_pumpINS1_7sources18severity_logger_mtINS1_7trivial14severity_levelEEEE12auto_releaseD2Ev
FNDA:0,_ZN5boost3log11v2_mt_posix3aux11record_pumpINS1_7sources18severity_logger_mtINS1_7trivial14severity_levelEEEEC2ERS8_RNS1_6recordE
FNDA:0,_ZN5boost3log11v2_mt_posix3aux11record_pumpINS1_7sources18severity_logger_mtINS1_7trivial14severity_levelEEEED2Ev
FNDA:0,_ZNK5boost3log11v2_mt_posix3aux11record_pumpINS1_7sources18severity_logger_mtINS1_7trivial14severity_levelEEEE6streamEv
FNF:6
FNH:0
DA:124,0
DA:126,0
DA:127,0
DA:128,0
DA:242,0
DA:243,0
DA:256,0
DA:257,0
DA:258,0
DA:259,0
DA:261,0
DA:272,0
DA:274,0
DA:276,0
DA:278,0
DA:279,0
DA:281,0
DA:284,0
DA:286,0
DA:287,0
DA:294,0
LF:21
LH:0
end_of_record
SF:/home/bruce/work/lib/boost_1_54_0/boost/log/sources/severity_feature.hpp
FN:133,_ZN5boost3log11v2_mt_posix7sources3aux14severity_levelINS1_7trivial14severity_levelEE9set_valueES6_
FN:250,_ZN5boost3log11v2_mt_posix7sources21basic_severity_loggerINS2_12basic_loggerIcNS2_18severity_logger_mtINS1_7trivial14severity_levelEEENS2_18multi_thread_modelINS1_3aux14light_rw_mutexEEEEES7_E20open_record_unlockedINS_9parameter3aux15tagged_argumentINS1_8keywords3tag8severityEKS7_EEEENS1_6recordERKT_
FNDA:0,_ZN5boost3log11v2_mt_posix7sources3aux14severity_levelINS1_7trivial14severity_levelEE9set_valueES6_
FNDA:0,_ZN5boost3log11v2_mt_posix7sources21basic_severity_loggerINS2_12basic_loggerIcNS2_18severity_logger_mtINS1_7trivial14severity_levelEEENS2_18multi_thread_modelINS1_3aux14light_rw_mutexEEEEES7_E20open_record_unlockedINS_9parameter3aux15tagged_argumentINS1_8keywords3tag8severityEKS7_EEEENS1_6recordERKT_
FNF:2
FNH:0
DA:133,0
DA:135,0
DA:136,0
DA:250,0
DA:252,0
DA:253,0
LF:6
LH:0
end_of_record
SF:/home/bruce/work/lib/boost_1_54_0/boost/log/sources/threading_models.hpp
FN:74,_ZNK5boost3log11v2_mt_posix7sources18multi_thread_modelINS1_3aux14light_rw_mutexEE11lock_sharedEv
FN:78,_ZNK5boost3log11v2_mt_posix7sources18multi_thread_modelINS1_3aux14light_rw_mutexEE13unlock_sharedEv
FNDA:0,_ZNK5boost3log11v2_mt_posix7sources18multi_thread_modelINS1_3aux14light_rw_mutexEE11lock_sharedEv
FNDA:0,_ZNK5boost3log11v2_mt_posix7sources18multi_thread_modelINS1_3aux14light_rw_mutexEE13unlock_sharedEv
FNF:2
FNH:0
DA:74,0
DA:78,0
LF:2
LH:0
end_of_record
SF:/home/bruce/work/lib/boost_1_54_0/boost/log/utility/formatting_ostream.hpp
FN:114,_ZN5boost3log11v2_mt_posix24basic_formatting_ostreamIcSt11char_traitsIcESaIcEE6sentryD2Ev
FN:120,_ZN5boost3log11v2_mt_posix24basic_formatting_ostreamIcSt11char_traitsIcESaIcEE6sentryC2ERS6_
FN:247,_ZN5boost3log11v2_mt_posix24basic_formatting_ostreamIcSt11char_traitsIcESaIcEE6streamEv
FN:316,_ZN5boost3log11v2_mt_posix24basic_formatting_ostreamIcSt11char_traitsIcESaIcEE5flushEv
FN:390,_ZN5boost3log11v2_mt_posix24basic_formatting_ostreamIcSt11char_traitsIcESaIcEElsEPKc
FN:514,_ZN5boost3log11v2_mt_posixlsIcSt11char_traitsIcESaIcEEENS1_3aux19enable_if_char_typeIT_RNS1_24basic_formatting_ostreamIcS4_S5_EEE4typeESB_RKSbIS8_T0_T1_E
FN:549,_ZN5boost3log11v2_mt_posix24basic_formatting_ostreamIcSt11char_traitsIcESaIcEE15formatted_writeIcEERS6_PKT_l
FNDA:0,_ZN5boost3log11v2_mt_posix24basic_formatting_ostreamIcSt11char_traitsIcESaIcEE6sentryD2Ev
FNDA:0,_ZN5boost3log11v2_mt_posix24basic_formatting_ostreamIcSt11char_traitsIcESaIcEE6sentryC2ERS6_
FNDA:0,_ZN5boost3log11v2_mt_posix24basic_formatting_ostreamIcSt11char_traitsIcESaIcEE6streamEv
FNDA:0,_ZN5boost3log11v2_mt_posix24basic_formatting_ostreamIcSt11char_traitsIcESaIcEE5flushEv
FNDA:0,_ZN5boost3log11v2_mt_posix24basic_formatting_ostreamIcSt11char_traitsIcESaIcEElsEPKc
FNDA:0,_ZN5boost3log11v2_mt_posixlsIcSt11char_traitsIcESaIcEEENS1_3aux19enable_if_char_typeIT_RNS1_24basic_formatting_ostreamIcS4_S5_EEE4typeESB_RKSbIS8_T0_T1_E
FNDA:0,_ZN5boost3log11v2_mt_posix24basic_formatting_ostreamIcSt11char_traitsIcESaIcEE15formatted_writeIcEERS6_PKT_l
FNF:7
FNH:0
DA:114,0
DA:120,0
DA:122,0
DA:247,0
DA:316,0
DA:318,0
DA:319,0
DA:390,0
DA:392,0
DA:514,0
DA:516,0
DA:549,0
DA:551,0
DA:552,0
DA:554,0
DA:555,0
DA:557,0
DA:558,0
DA:560,0
DA:564,0
DA:566,0
DA:567,0
DA:568,0
DA:570,0
DA:572,0
DA:573,0
DA:576,0
DA:579,0
LF:28
LH:0
end_of_record
SF:/home/bruce/work/lib/boost_1_54_0/boost/move/utility.hpp
FN:138,_ZN5boost4moveIRNS_3log11v2_mt_posix6recordEEEONS_16remove_referenceIT_E4typeEOS6_
FNDA:0,_ZN5boost4moveIRNS_3log11v2_mt_posix6recordEEEONS_16remove_referenceIT_E4typeEOS6_
FNF:1
FNH:0
DA:138,0
DA:139,0
LF:2
LH:0
end_of_record
SF:/home/bruce/work/lib/boost_1_54_0/boost/parameter/aux_/default.hpp
FN:18,_ZN5boost9parameter3aux8default_INS_3log11v2_mt_posix8keywords3tag8severityENS4_7trivial14severity_levelEEC2ERS9_
FNDA:0,_ZN5boost9parameter3aux8default_INS_3log11v2_mt_posix8keywords3tag8severityENS4_7trivial14severity_levelEEC2ERS9_
FNF:1
FNH:0
DA:18,0
DA:19,0
DA:20,0
LF:3
LH:0
end_of_record
SF:/home/bruce/work/lib/boost_1_54_0/boost/parameter/aux_/tagged_argument.hpp
FN:25,_ZN5boost9parameter3aux20tagged_argument_baseC2Ev
FN:37,_ZN5boost9parameter3aux15tagged_argumentINS_3log11v2_mt_posix8keywords3tag8severityEKNS4_7trivial14severity_levelEEC2ERSA_
FN:123,_ZNK5boost9parameter3aux15tagged_argumentINS_3log11v2_mt_posix8keywords3tag8severityEKNS4_7trivial14severity_levelEEixIS9_EERSA_RKNS1_8default_IS7_T_EE
FNDA:0,_ZN5boost9parameter3aux20tagged_argument_baseC2Ev
FNDA:0,_ZN5boost9parameter3aux15tagged_argumentINS_3log11v2_mt_posix8keywords3tag8severityEKNS4_7trivial14severity_levelEEC2ERSA_
FNDA:0,_ZNK5boost9parameter3aux15tagged_argumentINS_3log11v2_mt_posix8keywords3tag8severityEKNS4_7trivial14severity_levelEEixIS9_EERSA_RKNS1_8default_IS7_T_EE
FNF:3
FNH:0
DA:25,0
DA:37,0
DA:123,0
DA:125,0
LF:4
LH:0
end_of_record
SF:/home/bruce/work/lib/boost_1_54_0/boost/parameter/keyword.hpp
FN:43,_ZNK5boost9parameter7keywordINS_3log11v2_mt_posix8keywords3tag8severityEEorINS3_7trivial14severity_levelEEENS0_3aux8default_IS6_T_EERSD_
FN:58,_ZNK5boost9parameter7keywordINS_3log11v2_mt_posix8keywords3tag8severityEEaSINS3_7trivial14severity_levelEEEKNS0_3aux3tagIS6_KT_E4typeERSE_
FNDA:0,_ZNK5boost9parameter7keywordINS_3log11v2_mt_posix8keywords3tag8severityEEorINS3_7trivial14severity_levelEEENS0_3aux8default_IS6_T_EERSD_
FNDA:0,_ZNK5boost9parameter7keywordINS_3log11v2_mt_posix8keywords3tag8severityEEaSINS3_7trivial14severity_levelEEEKNS0_3aux3tagIS6_KT_E4typeERSE_
FNF:2
FNH:0
DA:43,0
DA:45,0
DA:58,0
DA:61,0
LF:4
LH:0
end_of_record
SF:/home/bruce/work/lib/boost_1_54_0/boost/smart_ptr/shared_ptr.hpp
FN:651,_ZNK5boost10shared_ptrINS_3log11v2_mt_posix4coreEEptEv
FNDA:0,_ZNK5boost10shared_ptrINS_3log11v2_mt_posix4coreEEptEv
FNF:1
FNH:0
DA:651,0
DA:653,0
DA:654,0
LF:3
LH:0
end_of_record
SF:/home/bruce/work/lib/boost_1_54_0/boost/utility/addressof.hpp
FN:28,_ZN5boost6detail13addr_impl_refINS_3log11v2_mt_posix7sources18severity_logger_mtINS3_7trivial14severity_levelEEEEC2ERS8_
FN:29,_ZNK5boost6detail13addr_impl_refINS_3log11v2_mt_posix7sources18severity_logger_mtINS3_7trivial14severity_levelEEEEcvRS8_Ev
FN:37,_ZN5boost6detail14addressof_implINS_3log11v2_mt_posix7sources18severity_logger_mtINS3_7trivial14severity_levelEEEE1fERS8_l
FN:51,_ZN5boost9addressofINS_3log11v2_mt_posix7sources18severity_logger_mtINS2_7trivial14severity_levelEEEEEPT_RS8_
FNDA:0,_ZN5boost6detail13addr_impl_refINS_3log11v2_mt_posix7sources18severity_logger_mtINS3_7trivial14severity_levelEEEEC2ERS8_
FNDA:0,_ZNK5boost6detail13addr_impl_refINS_3log11v2_mt_posix7sources18severity_logger_mtINS3_7trivial14severity_levelEEEEcvRS8_Ev
FNDA:0,_ZN5boost6detail14addressof_implINS_3log11v2_mt_posix7sources18severity_logger_mtINS3_7trivial14severity_levelEEEE1fERS8_l
FNDA:0,_ZN5boost9addressofINS_3log11v2_mt_posix7sources18severity_logger_mtINS2_7trivial14severity_levelEEEEEPT_RS8_
FNF:4
FNH:0
DA:28,0
DA:29,0
DA:37,0
DA:40,0
DA:51,0
DA:59,0
LF:6
LH:0
end_of_record
SF:/usr/include/c++/4.8/bits/alloc_traits.h
FN:253,_ZNSt16allocator_traitsISaIPSt4pairIPN14raptor_physics7vg_metaEfEEE12_S_constructIS5_IS5_EEENSt9enable_ifIXsrNS7_18__construct_helperIT_IDpT0_EEE5valueEvE4typeERS6_PSB_DpOSC_
FN:280,_ZNSt16allocator_traitsISaIPSt4pairIPN14raptor_physics7vg_metaEfEEE10_S_destroyIS5_EENSt9enable_ifIXsrNS7_16__destroy_helperIT_EE5valueEvE4typeERS6_PSB_
FN:305,_ZNSt16allocator_traitsISaIPSt4pairIPN14raptor_physics7vg_metaEfEEE11_S_max_sizeIKS6_EENSt9enable_ifIXsrNS7_16__maxsize_helperIT_EE5valueEmE4typeERSC_
FN:391,_ZNSt16allocator_traitsISaIPSt4pairIPN14raptor_physics7vg_metaEfEEE9constructIS5_IS5_EEEDTcl12_S_constructfp_fp0_spcl7forwardIT0_Efp1_EEERS6_PT_DpOS9_
FN:404,_ZNSt16allocator_traitsISaIPSt4pairIPN14raptor_physics7vg_metaEfEEE7destroyIS5_EEvRS6_PT_
FN:415,_ZNSt16allocator_traitsISaIPSt4pairIPN14raptor_physics7vg_metaEfEEE8max_sizeERKS6_
FNDA:648,_ZNSt16allocator_traitsISaIPSt4pairIPN14raptor_physics7vg_metaEfEEE12_S_constructIS5_IS5_EEENSt9enable_ifIXsrNS7_18__construct_helperIT_IDpT0_EEE5valueEvE4typeERS6_PSB_DpOSC_
FNDA:0,_ZNSt16allocator_traitsISaIPSt4pairIPN14raptor_physics7vg_metaEfEEE10_S_destroyIS5_EENSt9enable_ifIXsrNS7_16__destroy_helperIT_EE5valueEvE4typeERS6_PSB_
FNDA:828,_ZNSt16allocator_traitsISaIPSt4pairIPN14raptor_physics7vg_metaEfEEE11_S_max_sizeIKS6_EENSt9enable_ifIXsrNS7_16__maxsize_helperIT_EE5valueEmE4typeERSC_
FNDA:648,_ZNSt16allocator_traitsISaIPSt4pairIPN14raptor_physics7vg_metaEfEEE9constructIS5_IS5_EEEDTcl12_S_constructfp_fp0_spcl7forwardIT0_Efp1_EEERS6_PT_DpOS9_
FNDA:0,_ZNSt16allocator_traitsISaIPSt4pairIPN14raptor_physics7vg_metaEfEEE7destroyIS5_EEvRS6_PT_
FNDA:828,_ZNSt16allocator_traitsISaIPSt4pairIPN14raptor_physics7vg_metaEfEEE8max_sizeERKS6_
FNF:6
FNH:4
DA:253,648
DA:254,648
DA:280,0
DA:281,0
DA:305,828
DA:306,828
DA:391,648
DA:393,648
DA:404,0
DA:405,0
DA:415,828
DA:416,828
LF:12
LH:8
end_of_record
SF:/usr/include/c++/4.8/bits/allocator.h
FN:121,_ZNSaIiED2Ev
FN:121,_ZNSaIP10force_infoED2Ev
FNDA:96,_ZNSaIP10force_infoED2Ev
FNDA:1056,_ZNSaIiED2Ev
FNF:2
FNH:2
DA:121,1152
LF:1
LH:1
end_of_record
SF:/usr/include/c++/4.8/bits/basic_ios.h
FN:46,_ZSt13__check_facetISt5ctypeIcEERKT_PS3_
FNDA:0,_ZSt13__check_facetISt5ctypeIcEERKT_PS3_
FNF:1
FNH:0
DA:46,0
DA:48,0
DA:49,0
DA:50,0
LF:4
LH:0
end_of_record
SF:/usr/include/c++/4.8/bits/basic_string.h
FN:272,_ZNSs12_Alloc_hiderD2Ev
FNDA:0,_ZNSs12_Alloc_hiderD2Ev
FNF:1
FNH:0
DA:272,0
LF:1
LH:0
end_of_record
SF:/usr/include/c++/4.8/bits/char_traits.h
FN:258,_ZNSt11char_traitsIcE6lengthEPKc
FNDA:0,_ZNSt11char_traitsIcE6lengthEPKc
FNF:1
FNH:0
DA:258,0
DA:259,0
LF:2
LH:0
end_of_record
SF:/usr/include/c++/4.8/bits/ios_base.h
FN:75,_ZStanSt13_Ios_FmtflagsS_
FN:157,_ZStorSt12_Ios_IostateS_
FN:551,_ZNKSt8ios_base5flagsEv
FN:644,_ZNKSt8ios_base5widthEv
FN:653,_ZNSt8ios_base5widthEl
FN:695,_ZNKSt8ios_base6getlocEv
FNDA:0,_ZStanSt13_Ios_FmtflagsS_
FNDA:0,_ZStorSt12_Ios_IostateS_
FNDA:0,_ZNKSt8ios_base5flagsEv
FNDA:0,_ZNKSt8ios_base5widthEv
FNDA:0,_ZNSt8ios_base5widthEl
FNDA:0,_ZNKSt8ios_base6getlocEv
FNF:6
FNH:0
DA:75,0
DA:76,0
DA:157,0
DA:158,0
DA:551,0
DA:552,0
DA:644,0
DA:645,0
DA:653,0
DA:655,0
DA:656,0
DA:657,0
DA:695,0
DA:696,0
LF:14
LH:0
end_of_record
SF:/usr/include/c++/4.8/bits/locale_facets.h
FN:865,_ZNKSt5ctypeIcE5widenEc
FNDA:0,_ZNKSt5ctypeIcE5widenEc
FNF:1
FNH:0
DA:865,0
DA:867,0
DA:868,0
DA:869,0
DA:870,0
LF:5
LH:0
end_of_record
SF:/usr/include/c++/4.8/bits/move.h
FN:76,_ZSt7forwardIRfEOT_RNSt16remove_referenceIS1_E4typeE
FN:76,_ZSt7forwardIKPN14raptor_physics7vg_metaEEOT_RNSt16remove_referenceIS4_E4typeE
FN:76,_ZSt7forwardIPSt4pairIPN14raptor_physics7vg_metaEfEEOT_RNSt16remove_referenceIS6_E4typeE
FN:101,_ZSt4moveIRPSt4pairIPN14raptor_physics7vg_metaEfEEONSt16remove_referenceIT_E4typeEOS8_
FNDA:3006,_ZSt7forwardIPSt4pairIPN14raptor_physics7vg_metaEfEEOT_RNSt16remove_referenceIS6_E4typeE
FNDA:0,_ZSt7forwardIRfEOT_RNSt16remove_referenceIS1_E4typeE
FNDA:648,_ZSt7forwardIKPN14raptor_physics7vg_metaEEOT_RNSt16remove_referenceIS4_E4typeE
FNDA:936,_ZSt4moveIRPSt4pairIPN14raptor_physics7vg_metaEfEEONSt16remove_referenceIT_E4typeEOS8_
FNF:4
FNH:3
DA:76,3654
DA:77,3654
DA:101,936
DA:102,936
LF:4
LH:4
end_of_record
SF:/usr/include/c++/4.8/bits/stl_algo.h
FN:158,_ZSt6__findIN9__gnu_cxx17__normal_iteratorIPPSt4pairIPN14raptor_physics7vg_metaEfESt6vectorIS7_SaIS7_EEEES7_ET_SD_SD_RKT0_St26random_access_iterator_tag
FN:1091,_ZSt6removeIN9__gnu_cxx17__normal_iteratorIPPSt4pairIPN14raptor_physics7vg_metaEfESt6vectorIS7_SaIS7_EEEES7_ET_SD_SD_RKT0_
FN:4432,_ZSt4findIN9__gnu_cxx17__normal_iteratorIPPSt4pairIPN14raptor_physics7vg_metaEfESt6vectorIS7_SaIS7_EEEES7_ET_SD_SD_RKT0_
FNDA:576,_ZSt6__findIN9__gnu_cxx17__normal_iteratorIPPSt4pairIPN14raptor_physics7vg_metaEfESt6vectorIS7_SaIS7_EEEES7_ET_SD_SD_RKT0_St26random_access_iterator_tag
FNDA:576,_ZSt6removeIN9__gnu_cxx17__normal_iteratorIPPSt4pairIPN14raptor_physics7vg_metaEfESt6vectorIS7_SaIS7_EEEES7_ET_SD_SD_RKT0_
FNDA:576,_ZSt4findIN9__gnu_cxx17__normal_iteratorIPPSt4pairIPN14raptor_physics7vg_metaEfESt6vectorIS7_SaIS7_EEEES7_ET_SD_SD_RKT0_
FNF:3
FNH:3
DA:158,576
DA:162,576
DA:164,720
DA:166,288
DA:167,0
DA:168,288
DA:170,288
DA:171,0
DA:172,288
DA:174,288
DA:175,144
DA:176,144
DA:178,144
DA:179,0
DA:180,144
DA:183,432
DA:186,144
DA:187,0
DA:188,144
DA:190,288
DA:191,144
DA:192,144
DA:194,288
DA:195,288
DA:196,0
DA:199,0
DA:1091,576
DA:1101,576
DA:1102,576
DA:1103,0
DA:1104,576
DA:1105,576
DA:1106,864
DA:1107,288
DA:1109,288
DA:1110,288
DA:1112,576
DA:4432,576
DA:4441,576
LF:39
LH:32
end_of_record
SF:/usr/include/c++/4.8/bits/stl_algobase.h
FN:193,_ZSt3minIfERKT_S2_S2_
FN:216,_ZSt3maxImERKT_S2_S2_
FN:216,_ZSt3maxIfERKT_S2_S2_
FN:277,_ZSt12__niter_baseIPPSt4pairIPN14raptor_physics7vg_metaEfEENSt11_Niter_baseIT_E13iterator_typeES8_
FN:277,_ZSt12__niter_baseIN9__gnu_cxx17__normal_iteratorIPPSt4pairIPN14raptor_physics7vg_metaEfESt6vectorIS7_SaIS7_EEEEENSt11_Niter_baseIT_E13iterator_typeESE_
FN:288,_ZSt12__miter_baseISt13move_iteratorIPPSt4pairIPN14raptor_physics7vg_metaEfEEENSt11_Miter_baseIT_E13iterator_typeESA_
FN:288,_ZSt12__miter_baseIN9__gnu_cxx17__normal_iteratorIPPSt4pairIPN14raptor_physics7vg_metaEfESt6vectorIS7_SaIS7_EEEEENSt11_Miter_baseIT_E13iterator_typeESE_
FN:368,_ZNSt11__copy_moveILb1ELb1ESt26random_access_iterator_tagE8__copy_mIPSt4pairIPN14raptor_physics7vg_metaEfEEEPT_PKS9_SC_SA_
FN:379,_ZSt13__copy_move_aILb1EPPSt4pairIPN14raptor_physics7vg_metaEfES6_ET1_T0_S8_S7_
FN:424,_ZSt14__copy_move_a2ILb1EPPSt4pairIPN14raptor_physics7vg_metaEfES6_ET1_T0_S8_S7_
FN:424,_ZSt14__copy_move_a2ILb1EN9__gnu_cxx17__normal_iteratorIPPSt4pairIPN14raptor_physics7vg_metaEfESt6vectorIS7_SaIS7_EEEESC_ET1_T0_SE_SD_
FN:450,_ZSt4copyISt13move_iteratorIPPSt4pairIPN14raptor_physics7vg_metaEfEES7_ET0_T_SA_S9_
FN:483,_ZSt4moveIN9__gnu_cxx17__normal_iteratorIPPSt4pairIPN14raptor_physics7vg_metaEfESt6vectorIS7_SaIS7_EEEESC_ET0_T_SE_SD_
FNDA:0,_ZSt3minIfERKT_S2_S2_
FNDA:0,_ZSt3maxImERKT_S2_S2_
FNDA:0,_ZSt3maxIfERKT_S2_S2_
FNDA:1242,_ZSt12__niter_baseIPPSt4pairIPN14raptor_physics7vg_metaEfEENSt11_Niter_baseIT_E13iterator_typeES8_
FNDA:0,_ZSt12__niter_baseIN9__gnu_cxx17__normal_iteratorIPPSt4pairIPN14raptor_physics7vg_metaEfESt6vectorIS7_SaIS7_EEEEENSt11_Niter_baseIT_E13iterator_typeESE_
FNDA:828,_ZSt12__miter_baseISt13move_iteratorIPPSt4pairIPN14raptor_physics7vg_metaEfEEENSt11_Miter_baseIT_E13iterator_typeESA_
FNDA:0,_ZSt12__miter_baseIN9__gnu_cxx17__normal_iteratorIPPSt4pairIPN14raptor_physics7vg_metaEfESt6vectorIS7_SaIS7_EEEEENSt11_Miter_baseIT_E13iterator_typeESE_
FNDA:414,_ZNSt11__copy_moveILb1ELb1ESt26random_access_iterator_tagE8__copy_mIPSt4pairIPN14raptor_physics7vg_metaEfEEEPT_PKS9_SC_SA_
FNDA:414,_ZSt13__copy_move_aILb1EPPSt4pairIPN14raptor_physics7vg_metaEfES6_ET1_T0_S8_S7_
FNDA:414,_ZSt14__copy_move_a2ILb1EPPSt4pairIPN14raptor_physics7vg_metaEfES6_ET1_T0_S8_S7_
FNDA:0,_ZSt14__copy_move_a2ILb1EN9__gnu_cxx17__normal_iteratorIPPSt4pairIPN14raptor_physics7vg_metaEfESt6vectorIS7_SaIS7_EEEESC_ET1_T0_SE_SD_
FNDA:414,_ZSt4copyISt13move_iteratorIPPSt4pairIPN14raptor_physics7vg_metaEfEES7_ET0_T_SA_S9_
FNDA:0,_ZSt4moveIN9__gnu_cxx17__normal_iteratorIPPSt4pairIPN14raptor_physics7vg_metaEfESt6vectorIS7_SaIS7_EEEESC_ET0_T_SE_SD_
FNF:13
FNH:6
DA:193,0
DA:198,0
DA:199,0
DA:200,0
DA:216,0
DA:221,0
DA:222,0
DA:223,0
DA:277,1242
DA:278,1242
DA:288,828
DA:289,828
DA:368,414
DA:370,414
DA:371,414
DA:372,288
DA:373,414
DA:379,414
DA:387,414
DA:390,414
DA:424,414
DA:428,414
DA:450,414
DA:460,414
DA:483,0
DA:492,0
LF:26
LH:16
end_of_record
SF:/usr/include/c++/4.8/bits/stl_construct.h
FN:112,_ZNSt12_Destroy_auxILb1EE9__destroyIPPSt4pairIPN14raptor_physics7vg_metaEfEEEvT_S9_
FN:112,_ZNSt12_Destroy_auxILb1EE9__destroyIPiEEvT_S3_
FN:112,_ZNSt12_Destroy_auxILb1EE9__destroyIPP10force_infoEEvT_S5_
FN:122,_ZSt8_DestroyIPiEvT_S1_
FN:122,_ZSt8_DestroyIPPSt4pairIPN14raptor_physics7vg_metaEfEEvT_S7_
FN:122,_ZSt8_DestroyIPP10force_infoEvT_S3_
FN:148,_ZSt8_DestroyIPP10force_infoS1_EvT_S3_RSaIT0_E
FN:148,_ZSt8_DestroyIPPSt4pairIPN14raptor_physics7vg_metaEfES5_EvT_S7_RSaIT0_E
FN:148,_ZSt8_DestroyIPiiEvT_S1_RSaIT0_E
FNDA:0,_ZNSt12_Destroy_auxILb1EE9__destroyIPP10force_infoEEvT_S5_
FNDA:1134,_ZNSt12_Destroy_auxILb1EE9__destroyIPPSt4pairIPN14raptor_physics7vg_metaEfEEEvT_S9_
FNDA:6240,_ZNSt12_Destroy_auxILb1EE9__destroyIPiEEvT_S3_
FNDA:0,_ZSt8_DestroyIPP10force_infoEvT_S3_
FNDA:1134,_ZSt8_DestroyIPPSt4pairIPN14raptor_physics7vg_metaEfEEvT_S7_
FNDA:6240,_ZSt8_DestroyIPiEvT_S1_
FNDA:0,_ZSt8_DestroyIPP10force_infoS1_EvT_S3_RSaIT0_E
FNDA:1134,_ZSt8_DestroyIPPSt4pairIPN14raptor_physics7vg_metaEfES5_EvT_S7_RSaIT0_E
FNDA:6240,_ZSt8_DestroyIPiiEvT_S1_RSaIT0_E
FNF:9
FNH:6
DA:112,7374
DA:122,7374
DA:126,7374
DA:128,7374
DA:148,7374
DA:151,7374
DA:152,7374
LF:7
LH:7
end_of_record
SF:/usr/include/c++/4.8/bits/stl_iterator.h
FN:726,_ZN9__gnu_cxx17__normal_iteratorIPPSt4pairIPN14raptor_physics7vg_metaEfESt6vectorIS6_SaIS6_EEEC2ERKS7_
FN:726,_ZN9__gnu_cxx17__normal_iteratorIPP10force_infoSt6vectorIS2_SaIS2_EEEC2ERKS3_
FN:738,_ZNK9__gnu_cxx17__normal_iteratorIPP10force_infoSt6vectorIS2_SaIS2_EEEdeEv
FN:738,_ZNK9__gnu_cxx17__normal_iteratorIPPSt4pairIPN14raptor_physics7vg_metaEfESt6vectorIS6_SaIS6_EEEdeEv
FN:746,_ZN9__gnu_cxx17__normal_iteratorIPP10force_infoSt6vectorIS2_SaIS2_EEEppEv
FN:746,_ZN9__gnu_cxx17__normal_iteratorIPPSt4pairIPN14raptor_physics7vg_metaEfESt6vectorIS6_SaIS6_EEEppEv
FN:786,_ZNK9__gnu_cxx17__normal_iteratorIPPSt4pairIPN14raptor_physics7vg_metaEfESt6vectorIS6_SaIS6_EEEmiERKl
FN:790,_ZNK9__gnu_cxx17__normal_iteratorIPP10force_infoSt6vectorIS2_SaIS2_EEE4baseEv
FN:790,_ZNK9__gnu_cxx17__normal_iteratorIPPSt4pairIPN14raptor_physics7vg_metaEfESt6vectorIS6_SaIS6_EEE4baseEv
FN:811,_ZN9__gnu_cxxeqIPPSt4pairIPN14raptor_physics7vg_metaEfESt6vectorIS6_SaIS6_EEEEbRKNS_17__normal_iteratorIT_T0_EESG_
FN:823,_ZN9__gnu_cxxneIPPSt4pairIPN14raptor_physics7vg_metaEfESt6vectorIS6_SaIS6_EEEEbRKNS_17__normal_iteratorIT_T0_EESG_
FN:823,_ZN9__gnu_cxxneIPP10force_infoSt6vectorIS2_SaIS2_EEEEbRKNS_17__normal_iteratorIT_T0_EESC_
FN:896,_ZN9__gnu_cxxmiIPPSt4pairIPN14raptor_physics7vg_metaEfESt6vectorIS6_SaIS6_EEEENS_17__normal_iteratorIT_T0_E15difference_typeERKSE_SH_
FN:950,_ZNSt13move_iteratorIPPSt4pairIPN14raptor_physics7vg_metaEfEEC2ES6_
FN:958,_ZNKSt13move_iteratorIPPSt4pairIPN14raptor_physics7vg_metaEfEE4baseEv
FN:1132,_ZSt32__make_move_if_noexcept_iteratorIPPSt4pairIPN14raptor_physics7vg_metaEfESt13move_iteratorIS6_EET0_T_
FNDA:4176,_ZN9__gnu_cxx17__normal_iteratorIPPSt4pairIPN14raptor_physics7vg_metaEfESt6vectorIS6_SaIS6_EEEC2ERKS7_
FNDA:0,_ZN9__gnu_cxx17__normal_iteratorIPP10force_infoSt6vectorIS2_SaIS2_EEEC2ERKS3_
FNDA:3240,_ZNK9__gnu_cxx17__normal_iteratorIPPSt4pairIPN14raptor_physics7vg_metaEfESt6vectorIS6_SaIS6_EEEdeEv
FNDA:0,_ZNK9__gnu_cxx17__normal_iteratorIPP10force_infoSt6vectorIS2_SaIS2_EEEdeEv
FNDA:2304,_ZN9__gnu_cxx17__normal_iteratorIPPSt4pairIPN14raptor_physics7vg_metaEfESt6vectorIS6_SaIS6_EEEppEv
FNDA:0,_ZN9__gnu_cxx17__normal_iteratorIPP10force_infoSt6vectorIS2_SaIS2_EEEppEv
FNDA:648,_ZNK9__gnu_cxx17__normal_iteratorIPPSt4pairIPN14raptor_physics7vg_metaEfESt6vectorIS6_SaIS6_EEEmiERKl
FNDA:8928,_ZNK9__gnu_cxx17__normal_iteratorIPPSt4pairIPN14raptor_physics7vg_metaEfESt6vectorIS6_SaIS6_EEE4baseEv
FNDA:0,_ZNK9__gnu_cxx17__normal_iteratorIPP10force_infoSt6vectorIS2_SaIS2_EEE4baseEv
FNDA:576,_ZN9__gnu_cxxeqIPPSt4pairIPN14raptor_physics7vg_metaEfESt6vectorIS6_SaIS6_EEEEbRKNS_17__normal_iteratorIT_T0_EESG_
FNDA:2016,_ZN9__gnu_cxxneIPPSt4pairIPN14raptor_physics7vg_metaEfESt6vectorIS6_SaIS6_EEEEbRKNS_17__normal_iteratorIT_T0_EESG_
FNDA:0,_ZN9__gnu_cxxneIPP10force_infoSt6vectorIS2_SaIS2_EEEEbRKNS_17__normal_iteratorIT_T0_EESC_
FNDA:1584,_ZN9__gnu_cxxmiIPPSt4pairIPN14raptor_physics7vg_metaEfESt6vectorIS6_SaIS6_EEEENS_17__normal_iteratorIT_T0_E15difference_typeERKSE_SH_
FNDA:828,_ZNSt13move_iteratorIPPSt4pairIPN14raptor_physics7vg_metaEfEEC2ES6_
FNDA:828,_ZNKSt13move_iteratorIPPSt4pairIPN14raptor_physics7vg_metaEfEE4baseEv
FNDA:828,_ZSt32__make_move_if_noexcept_iteratorIPPSt4pairIPN14raptor_physics7vg_metaEfESt13move_iteratorIS6_EET0_T_
FNF:16
FNH:11
DA:726,4176
DA:738,3240
DA:739,3240
DA:746,2304
DA:748,2304
DA:749,2304
DA:786,648
DA:787,648
DA:790,8928
DA:791,8928
DA:811,576
DA:813,576
DA:823,2016
DA:825,2016
DA:896,1584
DA:898,1584
DA:950,828
DA:951,828
DA:958,828
DA:959,828
DA:1132,828
DA:1133,828
LF:22
LH:22
end_of_record
SF:/usr/include/c++/4.8/bits/stl_iterator_base_types.h
FN:201,_ZSt19__iterator_categoryIN9__gnu_cxx17__normal_iteratorIPPSt4pairIPN14raptor_physics7vg_metaEfESt6vectorIS7_SaIS7_EEEEENSt15iterator_traitsIT_E17iterator_categoryERKSE_
FN:212,_ZNSt10_Iter_baseIN9__gnu_cxx17__normal_iteratorIPPSt4pairIPN14raptor_physics7vg_metaEfESt6vectorIS7_SaIS7_EEEELb0EE7_S_baseESC_
FN:212,_ZNSt10_Iter_baseIPPSt4pairIPN14raptor_physics7vg_metaEfELb0EE7_S_baseES6_
FN:220,_ZNSt10_Iter_baseISt13move_iteratorIPPSt4pairIPN14raptor_physics7vg_metaEfEELb1EE7_S_baseES8_
FN:220,_ZNSt10_Iter_baseIN9__gnu_cxx17__normal_iteratorIPPSt4pairIPN14raptor_physics7vg_metaEfESt6vectorIS7_SaIS7_EEEELb1EE7_S_baseESC_
FNDA:576,_ZSt19__iterator_categoryIN9__gnu_cxx17__normal_iteratorIPPSt4pairIPN14raptor_physics7vg_metaEfESt6vectorIS7_SaIS7_EEEEENSt15iterator_traitsIT_E17iterator_categoryERKSE_
FNDA:1242,_ZNSt10_Iter_baseIPPSt4pairIPN14raptor_physics7vg_metaEfELb0EE7_S_baseES6_
FNDA:0,_ZNSt10_Iter_baseIN9__gnu_cxx17__normal_iteratorIPPSt4pairIPN14raptor_physics7vg_metaEfESt6vectorIS7_SaIS7_EEEELb0EE7_S_baseESC_
FNDA:828,_ZNSt10_Iter_baseISt13move_iteratorIPPSt4pairIPN14raptor_physics7vg_metaEfEELb1EE7_S_baseES8_
FNDA:0,_ZNSt10_Iter_baseIN9__gnu_cxx17__normal_iteratorIPPSt4pairIPN14raptor_physics7vg_metaEfESt6vectorIS7_SaIS7_EEEELb1EE7_S_baseESC_
FNF:5
FNH:3
DA:201,576
DA:202,576
DA:212,1242
DA:213,1242
DA:220,828
DA:221,828
LF:6
LH:6
end_of_record
SF:/usr/include/c++/4.8/bits/stl_pair.h
FN:144,_ZNSt4pairIPN14raptor_physics7vg_metaEfEC1IKS2_RfvEEOT_OT0_
FNDA:648,_ZNSt4pairIPN14raptor_physics7vg_metaEfEC1IKS2_RfvEEOT_OT0_
FNF:1
FNH:1
DA:144,648
DA:145,648
LF:2
LH:2
end_of_record
SF:/usr/include/c++/4.8/bits/stl_uninitialized.h
FN:91,_ZNSt20__uninitialized_copyILb1EE13__uninit_copyISt13move_iteratorIPPSt4pairIPN14raptor_physics7vg_metaEfEES9_EET0_T_SC_SB_
FN:107,_ZSt18uninitialized_copyISt13move_iteratorIPPSt4pairIPN14raptor_physics7vg_metaEfEES7_ET0_T_SA_S9_
FN:256,_ZSt22__uninitialized_copy_aISt13move_iteratorIPPSt4pairIPN14raptor_physics7vg_metaEfEES7_S6_ET0_T_SA_S9_RSaIT1_E
FN:274,_ZSt34__uninitialized_move_if_noexcept_aIPPSt4pairIPN14raptor_physics7vg_metaEfES6_SaIS5_EET0_T_S9_S8_RT1_
FNDA:414,_ZNSt20__uninitialized_copyILb1EE13__uninit_copyISt13move_iteratorIPPSt4pairIPN14raptor_physics7vg_metaEfEES9_EET0_T_SC_SB_
FNDA:414,_ZSt18uninitialized_copyISt13move_iteratorIPPSt4pairIPN14raptor_physics7vg_metaEfEES7_ET0_T_SA_S9_
FNDA:414,_ZSt22__uninitialized_copy_aISt13move_iteratorIPPSt4pairIPN14raptor_physics7vg_metaEfEES7_S6_ET0_T_SA_S9_RSaIT1_E
FNDA:414,_ZSt34__uninitialized_move_if_noexcept_aIPPSt4pairIPN14raptor_physics7vg_metaEfES6_SaIS5_EET0_T_S9_S8_RT1_
FNF:4
FNH:4
DA:91,414
DA:93,414
DA:107,414
DA:117,414
DA:256,414
DA:258,414
DA:274,414
DA:281,414
LF:8
LH:8
end_of_record
SF:/usr/include/c++/4.8/bits/stl_vector.h
FN:79,_ZNSt12_Vector_baseIiSaIiEE12_Vector_implD2Ev
FN:79,_ZNSt12_Vector_baseIP10force_infoSaIS1_EE12_Vector_implD2Ev
FN:113,_ZNSt12_Vector_baseIPSt4pairIPN14raptor_physics7vg_metaEfESaIS5_EE19_M_get_Tp_allocatorEv
FN:113,_ZNSt12_Vector_baseIiSaIiEE19_M_get_Tp_allocatorEv
FN:113,_ZNSt12_Vector_baseIP10force_infoSaIS1_EE19_M_get_Tp_allocatorEv
FN:117,_ZNKSt12_Vector_baseIPSt4pairIPN14raptor_physics7vg_metaEfESaIS5_EE19_M_get_Tp_allocatorEv
FN:159,_ZNSt12_Vector_baseIP10force_infoSaIS1_EED2Ev
FN:159,_ZNSt12_Vector_baseIiSaIiEED2Ev
FN:167,_ZNSt12_Vector_baseIPSt4pairIPN14raptor_physics7vg_metaEfESaIS5_EE11_M_allocateEm
FN:171,_ZNSt12_Vector_baseIP10force_infoSaIS1_EE13_M_deallocateEPS1_m
FN:171,_ZNSt12_Vector_baseIiSaIiEE13_M_deallocateEPim
FN:171,_ZNSt12_Vector_baseIPSt4pairIPN14raptor_physics7vg_metaEfESaIS5_EE13_M_deallocateEPS5_m
FN:414,_ZNSt6vectorIiSaIiEED2Ev
FN:414,_ZNSt6vectorIP10force_infoSaIS1_EED2Ev
FN:538,_ZNSt6vectorIPSt4pairIPN14raptor_physics7vg_metaEfESaIS5_EE5beginEv
FN:538,_ZNSt6vectorIP10force_infoSaIS1_EE5beginEv
FN:556,_ZNSt6vectorIP10force_infoSaIS1_EE3endEv
FN:556,_ZNSt6vectorIPSt4pairIPN14raptor_physics7vg_metaEfESaIS5_EE3endEv
FN:645,_ZNKSt6vectorIPSt4pairIPN14raptor_physics7vg_metaEfESaIS5_EE4sizeEv
FN:650,_ZNKSt6vectorIPSt4pairIPN14raptor_physics7vg_metaEfESaIS5_EE8max_sizeEv
FN:855,_ZNSt6vectorIPSt4pairIPN14raptor_physics7vg_metaEfESaIS5_EE4backEv
FN:919,_ZNSt6vectorIPSt4pairIPN14raptor_physics7vg_metaEfESaIS5_EE9push_backEOS5_
FN:1336,_ZNKSt6vectorIPSt4pairIPN14raptor_physics7vg_metaEfESaIS5_EE12_M_check_lenEmPKc
FN:1350,_ZNSt6vectorIPSt4pairIPN14raptor_physics7vg_metaEfESaIS5_EE15_M_erase_at_endEPS5_
FNDA:96,_ZNSt12_Vector_baseIP10force_infoSaIS1_EE12_Vector_implD2Ev
FNDA:864,_ZNSt12_Vector_baseIiSaIiEE12_Vector_implD2Ev
FNDA:0,_ZNSt12_Vector_baseIP10force_infoSaIS1_EE19_M_get_Tp_allocatorEv
FNDA:1548,_ZNSt12_Vector_baseIPSt4pairIPN14raptor_physics7vg_metaEfESaIS5_EE19_M_get_Tp_allocatorEv
FNDA:11808,_ZNSt12_Vector_baseIiSaIiEE19_M_get_Tp_allocatorEv
FNDA:828,_ZNKSt12_Vector_baseIPSt4pairIPN14raptor_physics7vg_metaEfESaIS5_EE19_M_get_Tp_allocatorEv
FNDA:96,_ZNSt12_Vector_baseIP10force_infoSaIS1_EED2Ev
FNDA:864,_ZNSt12_Vector_baseIiSaIiEED2Ev
FNDA:414,_ZNSt12_Vector_baseIPSt4pairIPN14raptor_physics7vg_metaEfESaIS5_EE11_M_allocateEm
FNDA:558,_ZNSt12_Vector_baseIPSt4pairIPN14raptor_physics7vg_metaEfESaIS5_EE13_M_deallocateEPS5_m
FNDA:120,_ZNSt12_Vector_baseIP10force_infoSaIS1_EE13_M_deallocateEPS1_m
FNDA:6240,_ZNSt12_Vector_baseIiSaIiEE13_M_deallocateEPim
FNDA:96,_ZNSt6vectorIP10force_infoSaIS1_EED2Ev
FNDA:864,_ZNSt6vectorIiSaIiEED2Ev
FNDA:576,_ZNSt6vectorIPSt4pairIPN14raptor_physics7vg_metaEfESaIS5_EE5beginEv
FNDA:0,_ZNSt6vectorIP10force_infoSaIS1_EE5beginEv
FNDA:2952,_ZNSt6vectorIPSt4pairIPN14raptor_physics7vg_metaEfESaIS5_EE3endEv
FNDA:0,_ZNSt6vectorIP10force_infoSaIS1_EE3endEv
FNDA:2070,_ZNKSt6vectorIPSt4pairIPN14raptor_physics7vg_metaEfESaIS5_EE4sizeEv
FNDA:828,_ZNKSt6vectorIPSt4pairIPN14raptor_physics7vg_metaEfESaIS5_EE8max_sizeEv
FNDA:648,_ZNSt6vectorIPSt4pairIPN14raptor_physics7vg_metaEfESaIS5_EE4backEv
FNDA:648,_ZNSt6vectorIPSt4pairIPN14raptor_physics7vg_metaEfESaIS5_EE9push_backEOS5_
FNDA:414,_ZNKSt6vectorIPSt4pairIPN14raptor_physics7vg_metaEfESaIS5_EE12_M_check_lenEmPKc
FNDA:576,_ZNSt6vectorIPSt4pairIPN14raptor_physics7vg_metaEfESaIS5_EE15_M_erase_at_endEPS5_
FNF:24
FNH:21
DA:79,960
DA:113,13356
DA:114,13356
DA:117,828
DA:118,828
DA:159,960
DA:160,960
DA:161,1920
DA:167,414
DA:168,414
DA:171,6918
DA:173,6918
DA:174,5142
DA:175,6918
DA:414,960
DA:415,960
DA:416,1920
DA:538,576
DA:539,576
DA:556,2952
DA:557,2952
DA:645,2070
DA:646,2070
DA:650,828
DA:651,828
DA:855,648
DA:856,648
DA:919,648
DA:920,648
DA:1336,414
DA:1338,414
DA:1339,0
DA:1341,414
DA:1342,414
DA:1350,576
DA:1352,576
DA:1353,576
DA:1354,576
LF:38
LH:37
end_of_record
SF:/usr/include/c++/4.8/bits/vector.tcc
FN:91,_ZNSt6vectorIPSt4pairIPN14raptor_physics7vg_metaEfESaIS5_EE12emplace_backIIS5_EEEvDpOT_
FN:146,_ZNSt6vectorIPSt4pairIPN14raptor_physics7vg_metaEfESaIS5_EE5eraseEN9__gnu_cxx17__normal_iteratorIPS5_S7_EESB_
FN:399,_ZNSt6vectorIPSt4pairIPN14raptor_physics7vg_metaEfESaIS5_EE19_M_emplace_back_auxIIS5_EEEvDpOT_
FNDA:648,_ZNSt6vectorIPSt4pairIPN14raptor_physics7vg_metaEfESaIS5_EE12emplace_backIIS5_EEEvDpOT_
FNDA:576,_ZNSt6vectorIPSt4pairIPN14raptor_physics7vg_metaEfESaIS5_EE5eraseEN9__gnu_cxx17__normal_iteratorIPS5_S7_EESB_
FNDA:414,_ZNSt6vectorIPSt4pairIPN14raptor_physics7vg_metaEfESaIS5_EE19_M_emplace_back_auxIIS5_EEEvDpOT_
FNF:3
FNH:3
DA:91,648
DA:94,648
DA:96,234
DA:97,234
DA:98,234
DA:101,414
DA:102,648
DA:146,576
DA:149,576
DA:151,576
DA:152,0
DA:153,576
DA:155,576
DA:399,414
DA:403,414
DA:404,414
DA:405,414
DA:408,828
DA:409,828
DA:410,414
DA:412,414
DA:415,414
DA:417,414
DA:419,=====
DA:421,=====
DA:422,=====
DA:424,=====
DA:425,=====
DA:426,=====
DA:428,414
DA:429,414
DA:430,414
DA:432,414
DA:433,414
DA:434,414
DA:435,414
DA:436,414
LF:37
LH:30
end_of_record
SF:/usr/include/c++/4.8/ext/atomicity.h
FN:48,_ZN9__gnu_cxxL18__exchange_and_addEPVii
FN:65,_ZN9__gnu_cxxL25__exchange_and_add_singleEPii
FN:78,_ZN9__gnu_cxxL27__exchange_and_add_dispatchEPii
FNDA:0,_ZN9__gnu_cxxL18__exchange_and_addEPVii
FNDA:0,_ZN9__gnu_cxxL25__exchange_and_add_singleEPii
FNDA:0,_ZN9__gnu_cxxL27__exchange_and_add_dispatchEPii
FNF:3
FNH:0
DA:48,0
DA:49,0
DA:65,0
DA:67,0
DA:68,0
DA:69,0
DA:78,0
DA:81,0
DA:82,0
DA:84,0
LF:10
LH:0
end_of_record
SF:/usr/include/c++/4.8/ext/new_allocator.h
FN:79,_ZN9__gnu_cxx13new_allocatorIcEC2Ev
FN:81,_ZN9__gnu_cxx13new_allocatorIcEC2ERKS1_
FN:86,_ZN9__gnu_cxx13new_allocatorIcED2Ev
FN:86,_ZN9__gnu_cxx13new_allocatorIiED2Ev
FN:86,_ZN9__gnu_cxx13new_allocatorIP10force_infoED2Ev
FN:99,_ZN9__gnu_cxx13new_allocatorIPSt4pairIPN14raptor_physics7vg_metaEfEE8allocateEmPKv
FN:109,_ZN9__gnu_cxx13new_allocatorIP10force_infoE10deallocateEPS2_m
FN:109,_ZN9__gnu_cxx13new_allocatorIiE10deallocateEPim
FN:109,_ZN9__gnu_cxx13new_allocatorIPSt4pairIPN14raptor_physics7vg_metaEfEE10deallocateEPS6_m
FN:113,_ZNK9__gnu_cxx13new_allocatorIPSt4pairIPN14raptor_physics7vg_metaEfEE8max_sizeEv
FN:119,_ZN9__gnu_cxx13new_allocatorIPSt4pairIPN14raptor_physics7vg_metaEfEE9constructIS6_IS6_EEEvPT_DpOT0_
FN:124,_ZN9__gnu_cxx13new_allocatorIPSt4pairIPN14raptor_physics7vg_metaEfEE7destroyIS6_EEvPT_
FNDA:0,_ZN9__gnu_cxx13new_allocatorIcEC2Ev
FNDA:0,_ZN9__gnu_cxx13new_allocatorIcEC2ERKS1_
FNDA:96,_ZN9__gnu_cxx13new_allocatorIP10force_infoED2Ev
FNDA:1056,_ZN9__gnu_cxx13new_allocatorIiED2Ev
FNDA:0,_ZN9__gnu_cxx13new_allocatorIcED2Ev
FNDA:414,_ZN9__gnu_cxx13new_allocatorIPSt4pairIPN14raptor_physics7vg_metaEfEE8allocateEmPKv
FNDA:414,_ZN9__gnu_cxx13new_allocatorIPSt4pairIPN14raptor_physics7vg_metaEfEE10deallocateEPS6_m
FNDA:24,_ZN9__gnu_cxx13new_allocatorIP10force_infoE10deallocateEPS2_m
FNDA:4704,_ZN9__gnu_cxx13new_allocatorIiE10deallocateEPim
FNDA:1242,_ZNK9__gnu_cxx13new_allocatorIPSt4pairIPN14raptor_physics7vg_metaEfEE8max_sizeEv
FNDA:648,_ZN9__gnu_cxx13new_allocatorIPSt4pairIPN14raptor_physics7vg_metaEfEE9constructIS6_IS6_EEEvPT_DpOT0_
FNDA:0,_ZN9__gnu_cxx13new_allocatorIPSt4pairIPN14raptor_physics7vg_metaEfEE7destroyIS6_EEvPT_
FNF:12
FNH:8
DA:79,0
DA:81,0
DA:86,1152
DA:99,414
DA:101,414
DA:102,0
DA:104,414
DA:109,5142
DA:110,5142
DA:113,1242
DA:114,1242
DA:119,648
DA:120,648
DA:124,0
LF:14
LH:10
end_of_record
SF:/usr/include/c++/4.8/iostream
DA:74,6
LF:1
LH:1
end_of_record
SF:/usr/include/c++/4.8/new
FN:109,_ZnwmPv
FNDA:0,_ZnwmPv
FNF:1
FNH:0
DA:109,0
DA:110,0
LF:2
LH:0
end_of_record
SF:/usr/include/x86_64-linux-gnu/c++/4.8/bits/gthr-default.h
FN:247,_ZL18__gthread_active_pv
FNDA:0,_ZL18__gthread_active_pv
FNF:1
FNH:0
DA:247,0
DA:251,0
LF:2
LH:0
end_of_record
SF:/home/bruce/work/RAPTor/physics_engine/inertia_tensor.h
FN:223,_ZN14raptor_physics14inertia_tensorD2Ev
FNDA:96,_ZN14raptor_physics14inertia_tensorD2Ev
FNF:1
FNH:1
DA:223,96
DA:225,96
DA:226,96
DA:228,96
DA:231,96
DA:233,96
DA:234,96
DA:235,96
LF:8
LH:8
end_of_record
SF:/home/bruce/work/RAPTor/physics_engine/matrix_3d.h
FN:20,_ZN9matrix_3dD2Ev
FN:182,_ZNK9matrix_3d15get_extremitiesEP7point_tS1_
FNDA:96,_ZN9matrix_3dD2Ev
FNDA:0,_ZNK9matrix_3d15get_extremitiesEP7point_tS1_
FNF:2
FNH:1
DA:20,96
DA:22,96
DA:23,96
DA:182,0
DA:185,0
DA:186,0
DA:189,0
DA:191,0
DA:192,0
DA:195,0
LF:10
LH:3
end_of_record
SF:/home/bruce/work/RAPTor/physics_engine/vertex_group.h
FN:67,_ZN14raptor_physics12vertex_groupD2Ev
FN:137,_ZNK14raptor_physics12vertex_group10get_boundsEP7point_tS2_
FNDA:96,_ZN14raptor_physics12vertex_groupD2Ev
FNDA:0,_ZNK14raptor_physics12vertex_group10get_boundsEP7point_tS2_
FNF:2
FNH:1
DA:67,96
DA:69,96
DA:70,96
DA:71,96
DA:72,96
DA:73,96
DA:137,0
DA:139,0
DA:140,0
LF:9
LH:6
end_of_record
SF:/home/bruce/work/RAPTor/physics_engine/vg_meta.cc
FN:7,_ZN14raptor_physics7vg_metaD2Ev
FN:42,_ZN14raptor_physics7vg_meta12build_boundsEv
FN:64,_GLOBAL__sub_I_vg_meta.cc
FN:64,_Z41__static_initialization_and_destruction_0ii
FNDA:96,_ZN14raptor_physics7vg_metaD2Ev
FNDA:108,_ZN14raptor_physics7vg_meta12build_boundsEv
FNDA:6,_GLOBAL__sub_I_vg_meta.cc
FNDA:6,_Z41__static_initialization_and_destruction_0ii
FNF:4
FNH:4
DA:7,96
DA:10,96
DA:11,96
DA:12,96
DA:14,96
DA:15,96
DA:16,96
DA:18,96
DA:19,96
DA:20,96
DA:22,96
DA:23,96
DA:24,96
DA:25,96
DA:26,96
DA:27,96
DA:28,96
DA:31,108
DA:33,12
DA:35,96
DA:38,96
DA:39,96
DA:42,108
DA:44,108
DA:45,108
DA:46,108
DA:48,108
DA:49,108
DA:50,108
DA:51,108
DA:52,108
DA:53,108
DA:54,108
DA:55,108
DA:56,108
DA:57,108
DA:58,108
DA:59,108
DA:60,108
DA:62,108
DA:64,18
LF:41
LH:41
end_of_record
TN:
SF:/home/bruce/work/RAPTor/common/logging.h
FN:34,_ZN14raptor_physics13method_loggerC2ERKSs
FN:39,_ZN14raptor_physics13method_loggerD2Ev
FN:57,_ZN14raptor_physics15array_to_streamIN9__gnu_cxx17__normal_iteratorIP7point_tSt6vectorIS3_SaIS3_EEEEZNS_12clip_polygonEPS7_RKS7_RKS3_EUlPSt18basic_stringstreamIcSt11char_traitsIcESaIcEESD_E2_EESsT_SL_RKT0_
FN:57,_ZN14raptor_physics15array_to_streamIN9__gnu_cxx17__normal_iteratorIPK7point_tSt6vectorIS3_SaIS3_EEEEZNS_12clip_polygonEPS8_RKS8_RS4_EUlPSt18basic_stringstreamIcSt11char_traitsIcESaIcEESD_E0_EESsT_SL_RKT0_
FN:57,_ZN14raptor_physics15array_to_streamIN9__gnu_cxx17__normal_iteratorIP7point_tSt6vectorIS3_SaIS3_EEEEZNS_12clip_polygonEPS7_RKS7_RKS3_EUlPSt18basic_stringstreamIcSt11char_traitsIcESaIcEESD_E_EESsT_SL_RKT0_
FN:57,_ZN14raptor_physics15array_to_streamIPfZNS_29find_first_positive_real_rootES1_ffffEUlPSt18basic_stringstreamIcSt11char_traitsIcESaIcEEfE_EESsT_S9_RKT0_
FN:57,_ZN14raptor_physics15array_to_streamIP7point_tZNS_12clip_polygonEPSt6vectorIS1_SaIS1_EERKS5_RKS1_EUlPSt18basic_stringstreamIcSt11char_traitsIcESaIcEESA_E1_EESsT_SI_RKT0_
FN:62,_ZZN14raptor_physics15array_to_streamIPfZNS_29find_first_positive_real_rootES1_ffffEUlPSt18basic_stringstreamIcSt11char_traitsIcESaIcEEfE_EESsT_S9_RKT0_ENKUlS7_fE_clES7_f
FN:62,_ZZN14raptor_physics15array_to_streamIN9__gnu_cxx17__normal_iteratorIPK7point_tSt6vectorIS3_SaIS3_EEEEZNS_12clip_polygonEPS8_RKS8_RS4_EUlPSt18basic_stringstreamIcSt11char_traitsIcESaIcEESD_E0_EESsT_SL_RKT0_ENKUlSJ_S3_E_clESJ_S3_
FN:62,_ZZN14raptor_physics15array_to_streamIN9__gnu_cxx17__normal_iteratorIP7point_tSt6vectorIS3_SaIS3_EEEEZNS_12clip_polygonEPS7_RKS7_RKS3_EUlPSt18basic_stringstreamIcSt11char_traitsIcESaIcEESD_E_EESsT_SL_RKT0_ENKUlSJ_S3_E_clESJ_S3_
FN:62,_ZZN14raptor_physics15array_to_streamIN9__gnu_cxx17__normal_iteratorIP7point_tSt6vectorIS3_SaIS3_EEEEZNS_12clip_polygonEPS7_RKS7_RKS3_EUlPSt18basic_stringstreamIcSt11char_traitsIcESaIcEESD_E2_EESsT_SL_RKT0_ENKUlSJ_S3_E_clESJ_S3_
FN:62,_ZZN14raptor_physics15array_to_streamIP7point_tZNS_12clip_polygonEPSt6vectorIS1_SaIS1_EERKS5_RKS1_EUlPSt18basic_stringstreamIcSt11char_traitsIcESaIcEESA_E1_EESsT_SI_RKT0_ENKUlSG_S1_E_clESG_S1_
FNDA:0,_ZN14raptor_physics13method_loggerC2ERKSs
FNDA:0,_ZN14raptor_physics13method_loggerD2Ev
FNDA:0,_ZN14raptor_physics15array_to_streamIPfZNS_29find_first_positive_real_rootES1_ffffEUlPSt18basic_stringstreamIcSt11char_traitsIcESaIcEEfE_EESsT_S9_RKT0_
FNDA:0,_ZN14raptor_physics15array_to_streamIN9__gnu_cxx17__normal_iteratorIP7point_tSt6vectorIS3_SaIS3_EEEEZNS_12clip_polygonEPS7_RKS7_RKS3_EUlPSt18basic_stringstreamIcSt11char_traitsIcESaIcEESD_E2_EESsT_SL_RKT0_
FNDA:0,_ZN14raptor_physics15array_to_streamIP7point_tZNS_12clip_polygonEPSt6vectorIS1_SaIS1_EERKS5_RKS1_EUlPSt18basic_stringstreamIcSt11char_traitsIcESaIcEESA_E1_EESsT_SI_RKT0_
FNDA:0,_ZN14raptor_physics15array_to_streamIN9__gnu_cxx17__normal_iteratorIPK7point_tSt6vectorIS3_SaIS3_EEEEZNS_12clip_polygonEPS8_RKS8_RS4_EUlPSt18basic_stringstreamIcSt11char_traitsIcESaIcEESD_E0_EESsT_SL_RKT0_
FNDA:0,_ZN14raptor_physics15array_to_streamIN9__gnu_cxx17__normal_iteratorIP7point_tSt6vectorIS3_SaIS3_EEEEZNS_12clip_polygonEPS7_RKS7_RKS3_EUlPSt18basic_stringstreamIcSt11char_traitsIcESaIcEESD_E_EESsT_SL_RKT0_
FNDA:0,_ZZN14raptor_physics15array_to_streamIPfZNS_29find_first_positive_real_rootES1_ffffEUlPSt18basic_stringstreamIcSt11char_traitsIcESaIcEEfE_EESsT_S9_RKT0_ENKUlS7_fE_clES7_f
FNDA:0,_ZZN14raptor_physics15array_to_streamIN9__gnu_cxx17__normal_iteratorIP7point_tSt6vectorIS3_SaIS3_EEEEZNS_12clip_polygonEPS7_RKS7_RKS3_EUlPSt18basic_stringstreamIcSt11char_traitsIcESaIcEESD_E2_EESsT_SL_RKT0_ENKUlSJ_S3_E_clESJ_S3_
FNDA:0,_ZZN14raptor_physics15array_to_streamIP7point_tZNS_12clip_polygonEPSt6vectorIS1_SaIS1_EERKS5_RKS1_EUlPSt18basic_stringstreamIcSt11char_traitsIcESaIcEESA_E1_EESsT_SI_RKT0_ENKUlSG_S1_E_clESG_S1_
FNDA:0,_ZZN14raptor_physics15array_to_streamIN9__gnu_cxx17__normal_iteratorIPK7point_tSt6vectorIS3_SaIS3_EEEEZNS_12clip_polygonEPS8_RKS8_RS4_EUlPSt18basic_stringstreamIcSt11char_traitsIcESaIcEESD_E0_EESsT_SL_RKT0_ENKUlSJ_S3_E_clESJ_S3_
FNDA:0,_ZZN14raptor_physics15array_to_streamIN9__gnu_cxx17__normal_iteratorIP7point_tSt6vectorIS3_SaIS3_EEEEZNS_12clip_polygonEPS7_RKS7_RKS3_EUlPSt18basic_stringstreamIcSt11char_traitsIcESaIcEESD_E_EESsT_SL_RKT0_ENKUlSJ_S3_E_clESJ_S3_
FNF:12
FNH:0
DA:34,0
DA:36,0
DA:37,0
DA:39,0
DA:40,0
DA:41,0
DA:42,0
DA:57,0
DA:61,0
DA:62,0
DA:64,0
LF:11
LH:0
end_of_record
SF:/home/bruce/work/RAPTor/raytracer/point_t.h
FN:17,_ZN7point_tC2Efff
FN:59,_ZlsRSoRK7point_t
FN:75,_ZmlRK7point_tf
FN:80,_ZdvRK7point_tf
FN:85,_ZplRK7point_tS1_
FN:90,_ZmiRK7point_tS1_
FN:95,_ZmlRK7point_tS1_
FN:115,_ZmlfRK7point_t
FN:297,_Z9magnitudeRK7point_t
FN:445,_Z13cross_productRK7point_tS1_
FN:456,_Z11dot_productRK7point_tS1_
FNDA:0,_ZN7point_tC2Efff
FNDA:0,_ZlsRSoRK7point_t
FNDA:0,_ZmlRK7point_tf
FNDA:0,_ZdvRK7point_tf
FNDA:0,_ZplRK7point_tS1_
FNDA:0,_ZmiRK7point_tS1_
FNDA:0,_ZmlRK7point_tS1_
FNDA:0,_ZmlfRK7point_t
FNDA:0,_Z9magnitudeRK7point_t
FNDA:0,_Z13cross_productRK7point_tS1_
FNDA:0,_Z11dot_productRK7point_tS1_
FNF:11
FNH:0
DA:17,0
DA:59,0
DA:61,0
DA:75,0
DA:77,0
DA:80,0
DA:82,0
DA:85,0
DA:87,0
DA:90,0
DA:92,0
DA:95,0
DA:97,0
DA:115,0
DA:117,0
DA:297,0
DA:299,0
DA:445,0
DA:447,0
DA:456,0
DA:458,0
LF:21
LH:0
end_of_record
SF:/home/bruce/work/lib/boost_1_54_0/boost/log/core/core.hpp
DA:308,0
LF:1
LH:0
end_of_record
SF:/home/bruce/work/lib/boost_1_54_0/boost/log/core/record.hpp
FN:66,_ZN5boost3log11v2_mt_posix6recordC2Ev
FN:79,_ZN5boost3log11v2_mt_posix6recordD2Ev
FN:125,_ZNK5boost3log11v2_mt_posix6recordntEv
FN:149,_ZN5boost3log11v2_mt_posix6record5resetEv
FNDA:0,_ZN5boost3log11v2_mt_posix6recordC2Ev
FNDA:0,_ZN5boost3log11v2_mt_posix6recordD2Ev
FNDA:0,_ZNK5boost3log11v2_mt_posix6recordntEv
FNDA:0,_ZN5boost3log11v2_mt_posix6record5resetEv
FNF:4
FNH:0
DA:66,0
DA:79,0
DA:81,0
DA:82,0
DA:125,0
DA:127,0
DA:149,0
DA:151,0
DA:153,0
DA:154,0
DA:156,0
LF:11
LH:0
end_of_record
SF:/home/bruce/work/lib/boost_1_54_0/boost/log/detail/attachable_sstream_buf.hpp
FN:109,_ZNK5boost3log11v2_mt_posix3aux22basic_ostringstreambufIcSt11char_traitsIcESaIcEE7storageEv
FNDA:0,_ZNK5boost3log11v2_mt_posix3aux22basic_ostringstreambufIcSt11char_traitsIcESaIcEE7storageEv
FNF:1
FNH:0
DA:109,0
LF:1
LH:0
end_of_record
SF:/home/bruce/work/lib/boost_1_54_0/boost/log/detail/code_conversion.hpp
FN:59,_ZN5boost3log11v2_mt_posix3aux12code_convertIcSt11char_traitsIcESaIcEEEvPKT_mRSbIS7_T0_T1_ERKSt6locale
FNDA:0,_ZN5boost3log11v2_mt_posix3aux12code_convertIcSt11char_traitsIcESaIcEEEvPKT_mRSbIS7_T0_T1_ERKSt6locale
FNF:1
FNH:0
DA:59,0
DA:61,0
DA:62,0
LF:3
LH:0
end_of_record
SF:/home/bruce/work/lib/boost_1_54_0/boost/log/detail/light_rw_mutex.hpp
FN:142,_ZN5boost3log11v2_mt_posix3aux14light_rw_mutex11lock_sharedEv
FN:146,_ZN5boost3log11v2_mt_posix3aux14light_rw_mutex13unlock_sharedEv
FNDA:0,_ZN5boost3log11v2_mt_posix3aux14light_rw_mutex11lock_sharedEv
FNDA:0,_ZN5boost3log11v2_mt_posix3aux14light_rw_mutex13unlock_sharedEv
FNF:2
FNH:0
DA:142,0
DA:144,0
DA:145,0
DA:146,0
DA:148,0
DA:149,0
LF:6
LH:0
end_of_record
SF:/home/bruce/work/lib/boost_1_54_0/boost/log/detail/locks.hpp
FN:56,_ZN5boost3log11v2_mt_posix7no_lockINS1_7sources18multi_thread_modelINS1_3aux14light_rw_mutexEEEEC2ERS7_
FN:120,_ZN5boost3log11v2_mt_posix3aux17shared_lock_guardINS1_7sources18multi_thread_modelINS2_14light_rw_mutexEEEEC2ERS7_
FN:124,_ZN5boost3log11v2_mt_posix3aux17shared_lock_guardINS1_7sources18multi_thread_modelINS2_14light_rw_mutexEEEED2Ev
FNDA:0,_ZN5boost3log11v2_mt_posix7no_lockINS1_7sources18multi_thread_modelINS1_3aux14light_rw_mutexEEEEC2ERS7_
FNDA:0,_ZN5boost3log11v2_mt_posix3aux17shared_lock_guardINS1_7sources18multi_thread_modelINS2_14light_rw_mutexEEEEC2ERS7_
FNDA:0,_ZN5boost3log11v2_mt_posix3aux17shared_lock_guardINS1_7sources18multi_thread_modelINS2_14light_rw_mutexEEEED2Ev
FNF:3
FNH:0
DA:56,0
DA:120,0
DA:122,0
DA:123,0
DA:124,0
DA:126,0
DA:127,0
LF:7
LH:0
end_of_record
SF:/home/bruce/work/lib/boost_1_54_0/boost/log/sources/basic_logger.hpp
FN:180,_ZNK5boost3log11v2_mt_posix7sources12basic_loggerIcNS2_18severity_logger_mtINS1_7trivial14severity_levelEEENS2_18multi_thread_modelINS1_3aux14light_rw_mutexEEEE4coreEv
FN:192,_ZN5boost3log11v2_mt_posix7sources12basic_loggerIcNS2_18severity_logger_mtINS1_7trivial14severity_levelEEENS2_18multi_thread_modelINS1_3aux14light_rw_mutexEEEE19get_threading_modelEv
FN:258,_ZN5boost3log11v2_mt_posix7sources12basic_loggerIcNS2_18severity_logger_mtINS1_7trivial14severity_levelEEENS2_18multi_thread_modelINS1_3aux14light_rw_mutexEEEE20open_record_unlockedINS_9parameter3aux15tagged_argumentINS1_8keywords3tag8severityEKS6_EEEENS1_6recordERKT_
FN:266,_ZN5boost3log11v2_mt_posix7sources12basic_loggerIcNS2_18severity_logger_mtINS1_7trivial14severity_levelEEENS2_18multi_thread_modelINS1_3aux14light_rw_mutexEEEE20push_record_unlockedEONS1_6recordE
FN:454,_ZN5boost3log11v2_mt_posix7sources22basic_composite_loggerIcNS2_18severity_logger_mtINS1_7trivial14severity_levelEEENS2_18multi_thread_modelINS1_3aux14light_rw_mutexEEENS2_8featuresIINS2_8severityIS6_EEEEEE11open_recordINS_9parameter3aux15tagged_argumentINS1_8keywords3tag8severityEKS6_EEEENS1_6recordERKT_
FN:470,_ZN5boost3log11v2_mt_posix7sources22basic_composite_loggerIcNS2_18severity_logger_mtINS1_7trivial14severity_levelEEENS2_18multi_thread_modelINS1_3aux14light_rw_mutexEEENS2_8featuresIINS2_8severityIS6_EEEEEE11push_recordEONS1_6recordE
FNDA:0,_ZNK5boost3log11v2_mt_posix7sources12basic_loggerIcNS2_18severity_logger_mtINS1_7trivial14severity_levelEEENS2_18multi_thread_modelINS1_3aux14light_rw_mutexEEEE4coreEv
FNDA:0,_ZN5boost3log11v2_mt_posix7sources12basic_loggerIcNS2_18severity_logger_mtINS1_7trivial14severity_levelEEENS2_18multi_thread_modelINS1_3aux14light_rw_mutexEEEE19get_threading_modelEv
FNDA:0,_ZN5boost3log11v2_mt_posix7sources12basic_loggerIcNS2_18severity_logger_mtINS1_7trivial14severity_levelEEENS2_18multi_thread_modelINS1_3aux14light_rw_mutexEEEE20open_record_unlockedINS_9parameter3aux15tagged_argumentINS1_8keywords3tag8severityEKS6_EEEENS1_6recordERKT_
FNDA:0,_ZN5boost3log11v2_mt_posix7sources12basic_loggerIcNS2_18severity_logger_mtINS1_7trivial14severity_levelEEENS2_18multi_thread_modelINS1_3aux14light_rw_mutexEEEE20push_record_unlockedEONS1_6recordE
FNDA:0,_ZN5boost3log11v2_mt_posix7sources22basic_composite_loggerIcNS2_18severity_logger_mtINS1_7trivial14severity_levelEEENS2_18multi_thread_modelINS1_3aux14light_rw_mutexEEENS2_8featuresIINS2_8severityIS6_EEEEEE11open_recordINS_9parameter3aux15tagged_argumentINS1_8keywords3tag8severityEKS6_EEEENS1_6recordERKT_
FNDA:0,_ZN5boost3log11v2_mt_posix7sources22basic_composite_loggerIcNS2_18severity_logger_mtINS1_7trivial14severity_levelEEENS2_18multi_thread_modelINS1_3aux14light_rw_mutexEEENS2_8featuresIINS2_8severityIS6_EEEEEE11push_recordEONS1_6recordE
FNF:6
FNH:0
DA:180,0
DA:192,0
DA:258,0
DA:260,0
DA:266,0
DA:268,0
DA:269,0
DA:454,0
DA:457,0
DA:459,0
DA:460,0
DA:463,0
DA:470,0
DA:472,0
DA:473,0
DA:474,0
LF:16
LH:0
end_of_record
SF:/home/bruce/work/lib/boost_1_54_0/boost/log/sources/record_ostream.hpp
FN:124,_ZN5boost3log11v2_mt_posix20basic_record_ostreamIcE10get_recordEv
FN:242,_ZN5boost3log11v2_mt_posix3aux11record_pumpINS1_7sources18severity_logger_mtINS1_7trivial14severity_levelEEEE12auto_releaseC2EPNS2_15stream_providerIcE15stream_compoundE
FN:243,_ZN5boost3log11v2_mt_posix3aux11record_pumpINS1_7sources18severity_logger_mtINS1_7trivial14severity_levelEEEE12auto_releaseD2Ev
FN:256,_ZN5boost3log11v2_mt_posix3aux11record_pumpINS1_7sources18severity_logger_mtINS1_7trivial14severity_levelEEEEC2ERS8_RNS1_6recordE
FN:272,_ZN5boost3log11v2_mt_posix3aux11record_pumpINS1_7sources18severity_logger_mtINS1_7trivial14severity_levelEEEED2Ev
FN:284,_ZNK5boost3log11v2_mt_posix3aux11record_pumpINS1_7sources18severity_logger_mtINS1_7trivial14severity_levelEEEE6streamEv
FNDA:0,_ZN5boost3log11v2_mt_posix20basic_record_ostreamIcE10get_recordEv
FNDA:0,_ZN5boost3log11v2_mt_posix3aux11record_pumpINS1_7sources18severity_logger_mtINS1_7trivial14severity_levelEEEE12auto_releaseC2EPNS2_15stream_providerIcE15stream_compoundE
FNDA:0,_ZN5boost3log11v2_mt_posix3aux11record_pumpINS1_7sources18severity_logger_mtINS1_7trivial14severity_levelEEEE12auto_releaseD2Ev
FNDA:0,_ZN5boost3log11v2_mt_posix3aux11record_pumpINS1_7sources18severity_logger_mtINS1_7trivial14severity_levelEEEEC2ERS8_RNS1_6recordE
FNDA:0,_ZN5boost3log11v2_mt_posix3aux11record_pumpINS1_7sources18severity_logger_mtINS1_7trivial14severity_levelEEEED2Ev
FNDA:0,_ZNK5boost3log11v2_mt_posix3aux11record_pumpINS1_7sources18severity_logger_mtINS1_7trivial14severity_levelEEEE6streamEv
FNF:6
FNH:0
DA:124,0
DA:126,0
DA:127,0
DA:128,0
DA:242,0
DA:243,0
DA:256,0
DA:257,0
DA:258,0
DA:259,0
DA:261,0
DA:272,0
DA:274,0
DA:276,0
DA:278,0
DA:279,0
DA:281,0
DA:284,0
DA:286,0
DA:287,0
DA:294,0
LF:21
LH:0
end_of_record
SF:/home/bruce/work/lib/boost_1_54_0/boost/log/sources/severity_feature.hpp
FN:133,_ZN5boost3log11v2_mt_posix7sources3aux14severity_levelINS1_7trivial14severity_levelEE9set_valueES6_
FN:250,_ZN5boost3log11v2_mt_posix7sources21basic_severity_loggerINS2_12basic_loggerIcNS2_18severity_logger_mtINS1_7trivial14severity_levelEEENS2_18multi_thread_modelINS1_3aux14light_rw_mutexEEEEES7_E20open_record_unlockedINS_9parameter3aux15tagged_argumentINS1_8keywords3tag8severityEKS7_EEEENS1_6recordERKT_
FNDA:0,_ZN5boost3log11v2_mt_posix7sources3aux14severity_levelINS1_7trivial14severity_levelEE9set_valueES6_
FNDA:0,_ZN5boost3log11v2_mt_posix7sources21basic_severity_loggerINS2_12basic_loggerIcNS2_18severity_logger_mtINS1_7trivial14severity_levelEEENS2_18multi_thread_modelINS1_3aux14light_rw_mutexEEEEES7_E20open_record_unlockedINS_9parameter3aux15tagged_argumentINS1_8keywords3tag8severityEKS7_EEEENS1_6recordERKT_
FNF:2
FNH:0
DA:133,0
DA:135,0
DA:136,0
DA:250,0
DA:252,0
DA:253,0
LF:6
LH:0
end_of_record
SF:/home/bruce/work/lib/boost_1_54_0/boost/log/sources/threading_models.hpp
FN:74,_ZNK5boost3log11v2_mt_posix7sources18multi_thread_modelINS1_3aux14light_rw_mutexEE11lock_sharedEv
FN:78,_ZNK5boost3log11v2_mt_posix7sources18multi_thread_modelINS1_3aux14light_rw_mutexEE13unlock_sharedEv
FNDA:0,_ZNK5boost3log11v2_mt_posix7sources18multi_thread_modelINS1_3aux14light_rw_mutexEE11lock_sharedEv
FNDA:0,_ZNK5boost3log11v2_mt_posix7sources18multi_thread_modelINS1_3aux14light_rw_mutexEE13unlock_sharedEv
FNF:2
FNH:0
DA:74,0
DA:78,0
LF:2
LH:0
end_of_record
SF:/home/bruce/work/lib/boost_1_54_0/boost/log/utility/formatting_ostream.hpp
FN:114,_ZN5boost3log11v2_mt_posix24basic_formatting_ostreamIcSt11char_traitsIcESaIcEE6sentryD2Ev
FN:120,_ZN5boost3log11v2_mt_posix24basic_formatting_ostreamIcSt11char_traitsIcESaIcEE6sentryC2ERS6_
FN:247,_ZN5boost3log11v2_mt_posix24basic_formatting_ostreamIcSt11char_traitsIcESaIcEE6streamEv
FN:316,_ZN5boost3log11v2_mt_posix24basic_formatting_ostreamIcSt11char_traitsIcESaIcEE5flushEv
FN:390,_ZN5boost3log11v2_mt_posix24basic_formatting_ostreamIcSt11char_traitsIcESaIcEElsEPKc
FN:451,_ZN5boost3log11v2_mt_posix24basic_formatting_ostreamIcSt11char_traitsIcESaIcEElsEi
FN:484,_ZN5boost3log11v2_mt_posix24basic_formatting_ostreamIcSt11char_traitsIcESaIcEElsEf
FN:514,_ZN5boost3log11v2_mt_posixlsIcSt11char_traitsIcESaIcEEENS1_3aux19enable_if_char_typeIT_RNS1_24basic_formatting_ostreamIcS4_S5_EEE4typeESB_RKSbIS8_T0_T1_E
FN:549,_ZN5boost3log11v2_mt_posix24basic_formatting_ostreamIcSt11char_traitsIcESaIcEE15formatted_writeIcEERS6_PKT_l
FN:662,_ZN5boost3log11v2_mt_posixlsIcSt11char_traitsIcESaIcE7point_tEERNS1_24basic_formatting_ostreamIT_T0_T1_EESC_RKT2_
FNDA:0,_ZN5boost3log11v2_mt_posix24basic_formatting_ostreamIcSt11char_traitsIcESaIcEE6sentryD2Ev
FNDA:0,_ZN5boost3log11v2_mt_posix24basic_formatting_ostreamIcSt11char_traitsIcESaIcEE6sentryC2ERS6_
FNDA:0,_ZN5boost3log11v2_mt_posix24basic_formatting_ostreamIcSt11char_traitsIcESaIcEE6streamEv
FNDA:0,_ZN5boost3log11v2_mt_posix24basic_formatting_ostreamIcSt11char_traitsIcESaIcEE5flushEv
FNDA:0,_ZN5boost3log11v2_mt_posix24basic_formatting_ostreamIcSt11char_traitsIcESaIcEElsEPKc
FNDA:0,_ZN5boost3log11v2_mt_posix24basic_formatting_ostreamIcSt11char_traitsIcESaIcEElsEi
FNDA:0,_ZN5boost3log11v2_mt_posix24basic_formatting_ostreamIcSt11char_traitsIcESaIcEElsEf
FNDA:0,_ZN5boost3log11v2_mt_posixlsIcSt11char_traitsIcESaIcEEENS1_3aux19enable_if_char_typeIT_RNS1_24basic_formatting_ostreamIcS4_S5_EEE4typeESB_RKSbIS8_T0_T1_E
FNDA:0,_ZN5boost3log11v2_mt_posix24basic_formatting_ostreamIcSt11char_traitsIcESaIcEE15formatted_writeIcEERS6_PKT_l
FNDA:0,_ZN5boost3log11v2_mt_posixlsIcSt11char_traitsIcESaIcE7point_tEERNS1_24basic_formatting_ostreamIT_T0_T1_EESC_RKT2_
FNF:10
FNH:0
DA:114,0
DA:120,0
DA:122,0
DA:247,0
DA:316,0
DA:318,0
DA:319,0
DA:390,0
DA:392,0
DA:451,0
DA:453,0
DA:454,0
DA:484,0
DA:486,0
DA:487,0
DA:514,0
DA:516,0
DA:549,0
DA:551,0
DA:552,0
DA:554,0
DA:555,0
DA:557,0
DA:558,0
DA:560,0
DA:564,0
DA:566,0
DA:567,0
DA:568,0
DA:570,0
DA:572,0
DA:573,0
DA:576,0
DA:579,0
DA:662,0
DA:664,0
DA:665,0
LF:37
LH:0
end_of_record
SF:/home/bruce/work/lib/boost_1_54_0/boost/move/utility.hpp
FN:138,_ZN5boost4moveIRNS_3log11v2_mt_posix6recordEEEONS_16remove_referenceIT_E4typeEOS6_
FNDA:0,_ZN5boost4moveIRNS_3log11v2_mt_posix6recordEEEONS_16remove_referenceIT_E4typeEOS6_
FNF:1
FNH:0
DA:138,0
DA:139,0
LF:2
LH:0
end_of_record
SF:/home/bruce/work/lib/boost_1_54_0/boost/parameter/aux_/default.hpp
FN:18,_ZN5boost9parameter3aux8default_INS_3log11v2_mt_posix8keywords3tag8severityENS4_7trivial14severity_levelEEC2ERS9_
FNDA:0,_ZN5boost9parameter3aux8default_INS_3log11v2_mt_posix8keywords3tag8severityENS4_7trivial14severity_levelEEC2ERS9_
FNF:1
FNH:0
DA:18,0
DA:19,0
DA:20,0
LF:3
LH:0
end_of_record
SF:/home/bruce/work/lib/boost_1_54_0/boost/parameter/aux_/tagged_argument.hpp
FN:25,_ZN5boost9parameter3aux20tagged_argument_baseC2Ev
FN:37,_ZN5boost9parameter3aux15tagged_argumentINS_3log11v2_mt_posix8keywords3tag8severityEKNS4_7trivial14severity_levelEEC2ERSA_
FN:123,_ZNK5boost9parameter3aux15tagged_argumentINS_3log11v2_mt_posix8keywords3tag8severityEKNS4_7trivial14severity_levelEEixIS9_EERSA_RKNS1_8default_IS7_T_EE
FNDA:0,_ZN5boost9parameter3aux20tagged_argument_baseC2Ev
FNDA:0,_ZN5boost9parameter3aux15tagged_argumentINS_3log11v2_mt_posix8keywords3tag8severityEKNS4_7trivial14severity_levelEEC2ERSA_
FNDA:0,_ZNK5boost9parameter3aux15tagged_argumentINS_3log11v2_mt_posix8keywords3tag8severityEKNS4_7trivial14severity_levelEEixIS9_EERSA_RKNS1_8default_IS7_T_EE
FNF:3
FNH:0
DA:25,0
DA:37,0
DA:123,0
DA:125,0
LF:4
LH:0
end_of_record
SF:/home/bruce/work/lib/boost_1_54_0/boost/parameter/keyword.hpp
FN:43,_ZNK5boost9parameter7keywordINS_3log11v2_mt_posix8keywords3tag8severityEEorINS3_7trivial14severity_levelEEENS0_3aux8default_IS6_T_EERSD_
FN:58,_ZNK5boost9parameter7keywordINS_3log11v2_mt_posix8keywords3tag8severityEEaSINS3_7trivial14severity_levelEEEKNS0_3aux3tagIS6_KT_E4typeERSE_
FNDA:0,_ZNK5boost9parameter7keywordINS_3log11v2_mt_posix8keywords3tag8severityEEorINS3_7trivial14severity_levelEEENS0_3aux8default_IS6_T_EERSD_
FNDA:0,_ZNK5boost9parameter7keywordINS_3log11v2_mt_posix8keywords3tag8severityEEaSINS3_7trivial14severity_levelEEEKNS0_3aux3tagIS6_KT_E4typeERSE_
FNF:2
FNH:0
DA:43,0
DA:45,0
DA:58,0
DA:61,0
LF:4
LH:0
end_of_record
SF:/home/bruce/work/lib/boost_1_54_0/boost/smart_ptr/shared_ptr.hpp
FN:651,_ZNK5boost10shared_ptrINS_3log11v2_mt_posix4coreEEptEv
FNDA:0,_ZNK5boost10shared_ptrINS_3log11v2_mt_posix4coreEEptEv
FNF:1
FNH:0
DA:651,0
DA:653,0
DA:654,0
LF:3
LH:0
end_of_record
SF:/home/bruce/work/lib/boost_1_54_0/boost/utility/addressof.hpp
FN:28,_ZN5boost6detail13addr_impl_refINS_3log11v2_mt_posix7sources18severity_logger_mtINS3_7trivial14severity_levelEEEEC2ERS8_
FN:29,_ZNK5boost6detail13addr_impl_refINS_3log11v2_mt_posix7sources18severity_logger_mtINS3_7trivial14severity_levelEEEEcvRS8_Ev
FN:37,_ZN5boost6detail14addressof_implINS_3log11v2_mt_posix7sources18severity_logger_mtINS3_7trivial14severity_levelEEEE1fERS8_l
FN:51,_ZN5boost9addressofINS_3log11v2_mt_posix7sources18severity_logger_mtINS2_7trivial14severity_levelEEEEEPT_RS8_
FNDA:0,_ZN5boost6detail13addr_impl_refINS_3log11v2_mt_posix7sources18severity_logger_mtINS3_7trivial14severity_levelEEEEC2ERS8_
FNDA:0,_ZNK5boost6detail13addr_impl_refINS_3log11v2_mt_posix7sources18severity_logger_mtINS3_7trivial14severity_levelEEEEcvRS8_Ev
FNDA:0,_ZN5boost6detail14addressof_implINS_3log11v2_mt_posix7sources18severity_logger_mtINS3_7trivial14severity_levelEEEE1fERS8_l
FNDA:0,_ZN5boost9addressofINS_3log11v2_mt_posix7sources18severity_logger_mtINS2_7trivial14severity_levelEEEEEPT_RS8_
FNF:4
FNH:0
DA:28,0
DA:29,0
DA:37,0
DA:40,0
DA:51,0
DA:59,0
LF:6
LH:0
end_of_record
SF:/usr/include/c++/4.8/bits/alloc_traits.h
FN:305,_ZNSt16allocator_traitsISaI7point_tEE11_S_max_sizeIKS1_EENSt9enable_ifIXsrNS2_16__maxsize_helperIT_EE5valueEmE4typeERS7_
FN:415,_ZNSt16allocator_traitsISaI7point_tEE8max_sizeERKS1_
FNDA:576,_ZNSt16allocator_traitsISaI7point_tEE11_S_max_sizeIKS1_EENSt9enable_ifIXsrNS2_16__maxsize_helperIT_EE5valueEmE4typeERS7_
FNDA:576,_ZNSt16allocator_traitsISaI7point_tEE8max_sizeERKS1_
FNF:2
FNH:2
DA:305,576
DA:306,576
DA:415,576
DA:416,576
LF:4
LH:4
end_of_record
SF:/usr/include/c++/4.8/bits/allocator.h
FN:133,_ZSteqIcEbRKSaIT_ES3_
FNDA:0,_ZSteqIcEbRKSaIT_ES3_
FNF:1
FNH:0
DA:133,0
DA:134,0
LF:2
LH:0
end_of_record
SF:/usr/include/c++/4.8/bits/basic_ios.h
FN:46,_ZSt13__check_facetISt5ctypeIcEERKT_PS3_
FNDA:0,_ZSt13__check_facetISt5ctypeIcEERKT_PS3_
FNF:1
FNH:0
DA:46,0
DA:48,0
DA:49,0
DA:50,0
LF:4
LH:0
end_of_record
SF:/usr/include/c++/4.8/bits/basic_string.h
FN:272,_ZNSs12_Alloc_hiderD2Ev
FN:1721,_ZNSs16_S_construct_auxIPcEES0_T_S1_RKSaIcESt12__false_type
FN:1743,_ZNSs12_S_constructIPcEES0_T_S1_RKSaIcE
FNDA:0,_ZNSs12_Alloc_hiderD2Ev
FNDA:0,_ZNSs16_S_construct_auxIPcEES0_T_S1_RKSaIcESt12__false_type
FNDA:0,_ZNSs12_S_constructIPcEES0_T_S1_RKSaIcE
FNF:3
FNH:0
DA:272,0
DA:1721,0
DA:1725,0
DA:1743,0
DA:1746,0
LF:5
LH:0
end_of_record
SF:/usr/include/c++/4.8/bits/basic_string.tcc
FN:123,_ZNSs12_S_constructIPcEES0_T_S1_RKSaIcESt20forward_iterator_tag
FN:227,_ZNSsC2IPcEET_S1_RKSaIcE
FNDA:0,_ZNSs12_S_constructIPcEES0_T_S1_RKSaIcESt20forward_iterator_tag
FNDA:0,_ZNSsC2IPcEET_S1_RKSaIcE
FNF:2
FNH:0
DA:123,0
DA:128,0
DA:129,0
DA:132,0
DA:133,0
DA:136,0
DA:138,0
DA:140,0
DA:141,=====
DA:143,=====
DA:144,=====
DA:146,0
DA:147,0
DA:227,0
DA:229,0
DA:230,0
LF:16
LH:0
end_of_record
SF:/usr/include/c++/4.8/bits/char_traits.h
FN:242,_ZNSt11char_traitsIcE6assignERcRKc
FN:258,_ZNSt11char_traitsIcE6lengthEPKc
FN:270,_ZNSt11char_traitsIcE4copyEPcPKcm
FNDA:0,_ZNSt11char_traitsIcE6assignERcRKc
FNDA:0,_ZNSt11char_traitsIcE6lengthEPKc
FNDA:0,_ZNSt11char_traitsIcE4copyEPcPKcm
FNF:3
FNH:0
DA:242,0
DA:243,0
DA:258,0
DA:259,0
DA:270,0
DA:271,0
LF:6
LH:0
end_of_record
SF:/usr/include/c++/4.8/bits/ios_base.h
FN:75,_ZStanSt13_Ios_FmtflagsS_
FN:119,_ZStorSt13_Ios_OpenmodeS_
FN:157,_ZStorSt12_Ios_IostateS_
FN:551,_ZNKSt8ios_base5flagsEv
FN:644,_ZNKSt8ios_base5widthEv
FN:653,_ZNSt8ios_base5widthEl
FN:695,_ZNKSt8ios_base6getlocEv
FNDA:0,_ZStanSt13_Ios_FmtflagsS_
FNDA:0,_ZStorSt13_Ios_OpenmodeS_
FNDA:0,_ZStorSt12_Ios_IostateS_
FNDA:0,_ZNKSt8ios_base5flagsEv
FNDA:0,_ZNKSt8ios_base5widthEv
FNDA:0,_ZNSt8ios_base5widthEl
FNDA:0,_ZNKSt8ios_base6getlocEv
FNF:7
FNH:0
DA:75,0
DA:76,0
DA:119,0
DA:120,0
DA:157,0
DA:158,0
DA:551,0
DA:552,0
DA:644,0
DA:645,0
DA:653,0
DA:655,0
DA:656,0
DA:657,0
DA:695,0
DA:696,0
LF:16
LH:0
end_of_record
SF:/usr/include/c++/4.8/bits/locale_facets.h
FN:865,_ZNKSt5ctypeIcE5widenEc
FNDA:0,_ZNKSt5ctypeIcE5widenEc
FNF:1
FNH:0
DA:865,0
DA:867,0
DA:868,0
DA:869,0
DA:870,0
LF:5
LH:0
end_of_record
SF:/usr/include/c++/4.8/bits/move.h
FN:47,_ZSt11__addressofI7point_tEPT_RS1_
FN:76,_ZSt7forwardI7point_tEOT_RNSt16remove_referenceIS1_E4typeE
FN:101,_ZSt4moveIRP7point_tEONSt16remove_referenceIT_E4typeEOS4_
FN:101,_ZSt4moveIRfEONSt16remove_referenceIT_E4typeEOS2_
FN:101,_ZSt4moveIR7point_tEONSt16remove_referenceIT_E4typeEOS3_
FN:166,_ZSt4swapIfEvRT_S1_
FN:166,_ZSt4swapIP7point_tEvRT_S3_
FNDA:288,_ZSt11__addressofI7point_tEPT_RS1_
FNDA:288,_ZSt7forwardI7point_tEOT_RNSt16remove_referenceIS1_E4typeE
FNDA:288,_ZSt4moveIR7point_tEONSt16remove_referenceIT_E4typeEOS3_
FNDA:0,_ZSt4moveIRfEONSt16remove_referenceIT_E4typeEOS2_
FNDA:0,_ZSt4moveIRP7point_tEONSt16remove_referenceIT_E4typeEOS4_
FNDA:0,_ZSt4swapIfEvRT_S1_
FNDA:0,_ZSt4swapIP7point_tEvRT_S3_
FNF:7
FNH:3
DA:47,288
DA:50,288
DA:76,288
DA:77,288
DA:101,288
DA:102,288
DA:166,0
DA:175,0
DA:176,0
DA:177,0
DA:178,0
LF:11
LH:6
end_of_record
SF:/usr/include/c++/4.8/bits/stl_algo.h
FN:78,_ZSt22__move_median_to_firstIPfEvT_S1_S1_S1_
FN:1929,_ZSt13__heap_selectIPfEvT_S1_S1_
FN:2092,_ZSt25__unguarded_linear_insertIPfEvT_
FN:2129,_ZSt16__insertion_sortIPfEvT_S1_
FN:2174,_ZSt26__unguarded_insertion_sortIPfEvT_S1_
FN:2206,_ZSt22__final_insertion_sortIPfEvT_S1_
FN:2237,_ZSt21__unguarded_partitionIPffET_S1_S1_RKT0_
FN:2278,_ZSt27__unguarded_partition_pivotIPfET_S1_S1_
FN:2302,_ZSt16__introsort_loopIPflEvT_S1_T0_
FN:5285,_ZSt12partial_sortIPfEvT_S1_S1_
FN:5438,_ZSt4sortIPfEvT_S1_
FNDA:0,_ZSt22__move_median_to_firstIPfEvT_S1_S1_S1_
FNDA:0,_ZSt13__heap_selectIPfEvT_S1_S1_
FNDA:0,_ZSt25__unguarded_linear_insertIPfEvT_
FNDA:0,_ZSt16__insertion_sortIPfEvT_S1_
FNDA:0,_ZSt26__unguarded_insertion_sortIPfEvT_S1_
FNDA:0,_ZSt22__final_insertion_sortIPfEvT_S1_
FNDA:0,_ZSt21__unguarded_partitionIPffET_S1_S1_RKT0_
FNDA:0,_ZSt27__unguarded_partition_pivotIPfET_S1_S1_
FNDA:0,_ZSt16__introsort_loopIPflEvT_S1_T0_
FNDA:0,_ZSt12partial_sortIPfEvT_S1_S1_
FNDA:0,_ZSt4sortIPfEvT_S1_
FNF:11
FNH:0
DA:78,0
DA:85,0
DA:87,0
DA:88,0
DA:89,0
DA:90,0
DA:92,0
DA:94,0
DA:95,0
DA:96,0
DA:97,0
DA:99,0
DA:100,0
DA:1929,0
DA:1933,0
DA:1934,0
DA:1935,0
DA:1936,0
DA:1937,0
DA:2092,0
DA:2095,0
DA:2096,0
DA:2097,0
DA:2098,0
DA:2100,0
DA:2101,0
DA:2102,0
DA:2104,0
DA:2105,0
DA:2129,0
DA:2132,0
DA:2133,0
DA:2135,0
DA:2137,0
DA:2140,0
DA:2141,0
DA:2142,0
DA:2145,0
DA:2174,0
DA:2180,0
DA:2181,0
DA:2182,0
DA:2206,0
DA:2209,0
DA:2211,0
DA:2212,0
DA:2215,0
DA:2216,0
DA:2237,0
DA:2242,0
DA:2243,0
DA:2244,0
DA:2245,0
DA:2246,0
DA:2247,0
DA:2248,0
DA:2249,0
DA:2250,0
DA:2278,0
DA:2281,0
DA:2282,0
DA:2283,0
DA:2302,0
DA:2306,0
DA:2308,0
DA:2310,0
DA:2311,0
DA:2313,0
DA:2315,0
DA:2316,0
DA:2317,0
DA:5285,0
DA:5299,0
DA:5300,0
DA:5301,0
DA:5438,0
DA:5449,0
DA:5451,0
DA:5452,0
DA:5453,0
DA:5455,0
LF:81
LH:0
end_of_record
SF:/usr/include/c++/4.8/bits/stl_algobase.h
FN:119,_ZSt9iter_swapIPfS0_EvT_T0_
FN:216,_ZSt3maxImERKT_S2_S2_
FN:277,_ZSt12__niter_baseIPfENSt11_Niter_baseIT_E13iterator_typeES2_
FN:288,_ZSt12__miter_baseIPfENSt11_Miter_baseIT_E13iterator_typeES2_
FN:563,_ZNSt20__copy_move_backwardILb1ELb1ESt26random_access_iterator_tagE13__copy_move_bIfEEPT_PKS3_S6_S4_
FN:574,_ZSt22__copy_move_backward_aILb1EPfS0_ET1_T0_S2_S1_
FN:592,_ZSt23__copy_move_backward_a2ILb1EPfS0_ET1_T0_S2_S1_
FN:655,_ZSt13move_backwardIPfS0_ET0_T_S2_S1_
FN:988,_ZSt4__lgl
FNDA:0,_ZSt9iter_swapIPfS0_EvT_T0_
FNDA:0,_ZSt3maxImERKT_S2_S2_
FNDA:0,_ZSt12__niter_baseIPfENSt11_Niter_baseIT_E13iterator_typeES2_
FNDA:0,_ZSt12__miter_baseIPfENSt11_Miter_baseIT_E13iterator_typeES2_
FNDA:0,_ZNSt20__copy_move_backwardILb1ELb1ESt26random_access_iterator_tagE13__copy_move_bIfEEPT_PKS3_S6_S4_
FNDA:0,_ZSt22__copy_move_backward_aILb1EPfS0_ET1_T0_S2_S1_
FNDA:0,_ZSt23__copy_move_backward_a2ILb1EPfS0_ET1_T0_S2_S1_
FNDA:0,_ZSt13move_backwardIPfS0_ET0_T_S2_S1_
FNDA:0,_ZSt4__lgl
FNF:9
FNH:0
DA:119,0
DA:147,0
DA:149,0
DA:216,0
DA:221,0
DA:222,0
DA:223,0
DA:277,0
DA:278,0
DA:288,0
DA:289,0
DA:563,0
DA:565,0
DA:566,0
DA:567,0
DA:568,0
DA:574,0
DA:582,0
DA:587,0
DA:592,0
DA:596,0
DA:655,0
DA:667,0
DA:988,0
DA:989,0
LF:25
LH:0
end_of_record
SF:/usr/include/c++/4.8/bits/stl_construct.h
FN:74,_ZSt10_ConstructI7point_tIS0_EEvPT_DpOT0_
FN:74,_ZSt10_ConstructI7point_tIEEvPT_DpOT0_
FN:112,_ZNSt12_Destroy_auxILb1EE9__destroyIP7point_tEEvT_S4_
FN:122,_ZSt8_DestroyIP7point_tEvT_S2_
FN:148,_ZSt8_DestroyIP7point_tS0_EvT_S2_RSaIT0_E
FNDA:288,_ZSt10_ConstructI7point_tIS0_EEvPT_DpOT0_
FNDA:0,_ZSt10_ConstructI7point_tIEEvPT_DpOT0_
FNDA:384,_ZNSt12_Destroy_auxILb1EE9__destroyIP7point_tEEvT_S4_
FNDA:384,_ZSt8_DestroyIP7point_tEvT_S2_
FNDA:384,_ZSt8_DestroyIP7point_tS0_EvT_S2_RSaIT0_E
FNF:5
FNH:4
DA:74,288
DA:75,288
DA:112,384
DA:122,384
DA:126,384
DA:128,384
DA:148,384
DA:151,384
DA:152,384
LF:9
LH:9
end_of_record
SF:/usr/include/c++/4.8/bits/stl_heap.h
FN:131,_ZSt11__push_heapIPflfEvT_T0_S2_T1_
FN:227,_ZSt13__adjust_heapIPflfEvT_T0_S2_T1_
FN:253,_ZSt10__pop_heapIPfEvT_S1_S1_
FN:386,_ZSt9make_heapIPfEvT_S1_
FN:465,_ZSt9sort_heapIPfEvT_S1_
FNDA:0,_ZSt11__push_heapIPflfEvT_T0_S2_T1_
FNDA:0,_ZSt13__adjust_heapIPflfEvT_T0_S2_T1_
FNDA:0,_ZSt10__pop_heapIPfEvT_S1_S1_
FNDA:0,_ZSt9make_heapIPfEvT_S1_
FNDA:0,_ZSt9sort_heapIPfEvT_S1_
FNF:5
FNH:0
DA:131,0
DA:134,0
DA:135,0
DA:137,0
DA:138,0
DA:139,0
DA:141,0
DA:142,0
DA:227,0
DA:230,0
DA:231,0
DA:232,0
DA:234,0
DA:235,0
DA:236,0
DA:237,0
DA:238,0
DA:240,0
DA:242,0
DA:243,0
DA:245,0
DA:247,0
DA:248,0
DA:249,0
DA:253,0
DA:261,0
DA:262,0
DA:263,0
DA:265,0
DA:266,0
DA:386,0
DA:399,0
DA:400,0
DA:402,0
DA:403,0
DA:406,0
DA:407,0
DA:408,0
DA:409,0
DA:410,0
DA:411,0
DA:465,0
DA:475,0
DA:477,0
DA:478,0
DA:480,0
LF:46
LH:0
end_of_record
SF:/usr/include/c++/4.8/bits/stl_iterator.h
FN:726,_ZN9__gnu_cxx17__normal_iteratorIP7point_tSt6vectorIS1_SaIS1_EEEC2ERKS2_
FN:726,_ZN9__gnu_cxx17__normal_iteratorIPK7point_tSt6vectorIS1_SaIS1_EEEC2ERKS3_
FN:738,_ZNK9__gnu_cxx17__normal_iteratorIPK7point_tSt6vectorIS1_SaIS1_EEEdeEv
FN:738,_ZNK9__gnu_cxx17__normal_iteratorIP7point_tSt6vectorIS1_SaIS1_EEEdeEv
FN:746,_ZN9__gnu_cxx17__normal_iteratorIPK7point_tSt6vectorIS1_SaIS1_EEEppEv
FN:746,_ZN9__gnu_cxx17__normal_iteratorIP7point_tSt6vectorIS1_SaIS1_EEEppEv
FN:758,_ZN9__gnu_cxx17__normal_iteratorIPK7point_tSt6vectorIS1_SaIS1_EEEmmEv
FN:790,_ZNK9__gnu_cxx17__normal_iteratorIP7point_tSt6vectorIS1_SaIS1_EEE4baseEv
FN:790,_ZNK9__gnu_cxx17__normal_iteratorIPK7point_tSt6vectorIS1_SaIS1_EEE4baseEv
FN:823,_ZN9__gnu_cxxneIP7point_tSt6vectorIS1_SaIS1_EEEEbRKNS_17__normal_iteratorIT_T0_EESB_
FN:823,_ZN9__gnu_cxxneIPK7point_tSt6vectorIS1_SaIS1_EEEEbRKNS_17__normal_iteratorIT_T0_EESC_
FN:950,_ZNSt13move_iteratorIP7point_tEC2ES1_
FN:958,_ZNKSt13move_iteratorIP7point_tE4baseEv
FN:962,_ZNKSt13move_iteratorIP7point_tEdeEv
FN:970,_ZNSt13move_iteratorIP7point_tEppEv
FN:1037,_ZSteqIP7point_tEbRKSt13move_iteratorIT_ES6_
FN:1049,_ZStneIP7point_tEbRKSt13move_iteratorIT_ES6_
FN:1132,_ZSt32__make_move_if_noexcept_iteratorIP7point_tSt13move_iteratorIS1_EET0_T_
FNDA:192,_ZN9__gnu_cxx17__normal_iteratorIPK7point_tSt6vectorIS1_SaIS1_EEEC2ERKS3_
FNDA:480,_ZN9__gnu_cxx17__normal_iteratorIP7point_tSt6vectorIS1_SaIS1_EEEC2ERKS2_
FNDA:576,_ZNK9__gnu_cxx17__normal_iteratorIP7point_tSt6vectorIS1_SaIS1_EEEdeEv
FNDA:0,_ZNK9__gnu_cxx17__normal_iteratorIPK7point_tSt6vectorIS1_SaIS1_EEEdeEv
FNDA:384,_ZN9__gnu_cxx17__normal_iteratorIP7point_tSt6vectorIS1_SaIS1_EEEppEv
FNDA:0,_ZN9__gnu_cxx17__normal_iteratorIPK7point_tSt6vectorIS1_SaIS1_EEEppEv
FNDA:0,_ZN9__gnu_cxx17__normal_iteratorIPK7point_tSt6vectorIS1_SaIS1_EEEmmEv
FNDA:768,_ZNK9__gnu_cxx17__normal_iteratorIP7point_tSt6vectorIS1_SaIS1_EEE4baseEv
FNDA:192,_ZNK9__gnu_cxx17__normal_iteratorIPK7point_tSt6vectorIS1_SaIS1_EEE4baseEv
FNDA:384,_ZN9__gnu_cxxneIP7point_tSt6vectorIS1_SaIS1_EEEEbRKNS_17__normal_iteratorIT_T0_EESB_
FNDA:0,_ZN9__gnu_cxxneIPK7point_tSt6vectorIS1_SaIS1_EEEEbRKNS_17__normal_iteratorIT_T0_EESC_
FNDA:576,_ZNSt13move_iteratorIP7point_tEC2ES1_
FNDA:1152,_ZNKSt13move_iteratorIP7point_tE4baseEv
FNDA:288,_ZNKSt13move_iteratorIP7point_tEdeEv
FNDA:288,_ZNSt13move_iteratorIP7point_tEppEv
FNDA:576,_ZSteqIP7point_tEbRKSt13move_iteratorIT_ES6_
FNDA:576,_ZStneIP7point_tEbRKSt13move_iteratorIT_ES6_
FNDA:576,_ZSt32__make_move_if_noexcept_iteratorIP7point_tSt13move_iteratorIS1_EET0_T_
FNF:18
FNH:14
DA:726,672
DA:738,576
DA:739,576
DA:746,384
DA:748,384
DA:749,384
DA:758,0
DA:760,0
DA:761,0
DA:790,960
DA:791,960
DA:823,384
DA:825,384
DA:950,576
DA:951,576
DA:958,1152
DA:959,1152
DA:962,288
DA:963,288
DA:970,288
DA:972,288
DA:973,288
DA:1037,576
DA:1039,576
DA:1049,576
DA:1051,576
DA:1132,576
DA:1133,576
LF:28
LH:25
end_of_record
SF:/usr/include/c++/4.8/bits/stl_iterator_base_funcs.h
FN:90,_ZSt10__distanceIPcENSt15iterator_traitsIT_E15difference_typeES2_S2_St26random_access_iterator_tag
FN:114,_ZSt8distanceIPcENSt15iterator_traitsIT_E15difference_typeES2_S2_
FNDA:0,_ZSt10__distanceIPcENSt15iterator_traitsIT_E15difference_typeES2_S2_St26random_access_iterator_tag
FNDA:0,_ZSt8distanceIPcENSt15iterator_traitsIT_E15difference_typeES2_S2_
FNF:2
FNH:0
DA:90,0
DA:96,0
DA:114,0
DA:118,0
LF:4
LH:0
end_of_record
SF:/usr/include/c++/4.8/bits/stl_iterator_base_types.h
FN:201,_ZSt19__iterator_categoryIPcENSt15iterator_traitsIT_E17iterator_categoryERKS2_
FN:212,_ZNSt10_Iter_baseIPfLb0EE7_S_baseES0_
FNDA:0,_ZSt19__iterator_categoryIPcENSt15iterator_traitsIT_E17iterator_categoryERKS2_
FNDA:0,_ZNSt10_Iter_baseIPfLb0EE7_S_baseES0_
FNF:2
FNH:0
DA:201,0
DA:202,0
DA:212,0
DA:213,0
LF:4
LH:0
end_of_record
SF:/usr/include/c++/4.8/bits/stl_numeric.h
FN:146,_ZSt10accumulateIP7point_tPSt18basic_stringstreamIcSt11char_traitsIcESaIcEEZN14raptor_physics15array_to_streamIS1_ZNS8_12clip_polygonEPSt6vectorIS0_SaIS0_EERKSC_RKS0_EUlS7_SH_E1_EESsT_SJ_RKT0_EUlS7_S0_E_ESK_SJ_SJ_SK_T1_
FN:146,_ZSt10accumulateIN9__gnu_cxx17__normal_iteratorIP7point_tSt6vectorIS2_SaIS2_EEEEPSt18basic_stringstreamIcSt11char_traitsIcESaIcEEZN14raptor_physics15array_to_streamIS7_ZNSE_12clip_polygonEPS6_RKS6_RKS2_EUlSD_SK_E_EESsT_SM_RKT0_EUlSD_S2_E_ESN_SM_SM_SN_T1_
FN:146,_ZSt10accumulateIN9__gnu_cxx17__normal_iteratorIP7point_tSt6vectorIS2_SaIS2_EEEEPSt18basic_stringstreamIcSt11char_traitsIcESaIcEEZN14raptor_physics15array_to_streamIS7_ZNSE_12clip_polygonEPS6_RKS6_RKS2_EUlSD_SK_E2_EESsT_SM_RKT0_EUlSD_S2_E_ESN_SM_SM_SN_T1_
FN:146,_ZSt10accumulateIPfPSt18basic_stringstreamIcSt11char_traitsIcESaIcEEZN14raptor_physics15array_to_streamIS0_ZNS7_29find_first_positive_real_rootES0_ffffEUlS6_fE_EESsT_SA_RKT0_EUlS6_fE_ESB_SA_SA_SB_T1_
FN:146,_ZSt10accumulateIN9__gnu_cxx17__normal_iteratorIPK7point_tSt6vectorIS2_SaIS2_EEEEPSt18basic_stringstreamIcSt11char_traitsIcESaIcEEZN14raptor_physics15array_to_streamIS8_ZNSF_12clip_polygonEPS7_RKS7_RS3_EUlSE_SK_E0_EESsT_SM_RKT0_EUlSE_S2_E_ESN_SM_SM_SN_T1_
FNDA:0,_ZSt10accumulateIPfPSt18basic_stringstreamIcSt11char_traitsIcESaIcEEZN14raptor_physics15array_to_streamIS0_ZNS7_29find_first_positive_real_rootES0_ffffEUlS6_fE_EESsT_SA_RKT0_EUlS6_fE_ESB_SA_SA_SB_T1_
FNDA:0,_ZSt10accumulateIN9__gnu_cxx17__normal_iteratorIP7point_tSt6vectorIS2_SaIS2_EEEEPSt18basic_stringstreamIcSt11char_traitsIcESaIcEEZN14raptor_physics15array_to_streamIS7_ZNSE_12clip_polygonEPS6_RKS6_RKS2_EUlSD_SK_E2_EESsT_SM_RKT0_EUlSD_S2_E_ESN_SM_SM_SN_T1_
FNDA:0,_ZSt10accumulateIP7point_tPSt18basic_stringstreamIcSt11char_traitsIcESaIcEEZN14raptor_physics15array_to_streamIS1_ZNS8_12clip_polygonEPSt6vectorIS0_SaIS0_EERKSC_RKS0_EUlS7_SH_E1_EESsT_SJ_RKT0_EUlS7_S0_E_ESK_SJ_SJ_SK_T1_
FNDA:0,_ZSt10accumulateIN9__gnu_cxx17__normal_iteratorIPK7point_tSt6vectorIS2_SaIS2_EEEEPSt18basic_stringstreamIcSt11char_traitsIcESaIcEEZN14raptor_physics15array_to_streamIS8_ZNSF_12clip_polygonEPS7_RKS7_RS3_EUlSE_SK_E0_EESsT_SM_RKT0_EUlSE_S2_E_ESN_SM_SM_SN_T1_
FNDA:0,_ZSt10accumulateIN9__gnu_cxx17__normal_iteratorIP7point_tSt6vectorIS2_SaIS2_EEEEPSt18basic_stringstreamIcSt11char_traitsIcESaIcEEZN14raptor_physics15array_to_streamIS7_ZNSE_12clip_polygonEPS6_RKS6_RKS2_EUlSD_SK_E_EESsT_SM_RKT0_EUlSD_S2_E_ESN_SM_SM_SN_T1_
FNF:5
FNH:0
DA:146,0
DA:153,0
DA:154,0
DA:155,0
LF:4
LH:0
end_of_record
SF:/usr/include/c++/4.8/bits/stl_uninitialized.h
FN:68,_ZNSt20__uninitialized_copyILb0EE13__uninit_copyISt13move_iteratorIP7point_tES4_EET0_T_S7_S6_
FN:107,_ZSt18uninitialized_copyISt13move_iteratorIP7point_tES2_ET0_T_S5_S4_
FN:256,_ZSt22__uninitialized_copy_aISt13move_iteratorIP7point_tES2_S1_ET0_T_S5_S4_RSaIT1_E
FN:274,_ZSt34__uninitialized_move_if_noexcept_aIP7point_tS1_SaIS0_EET0_T_S4_S3_RT1_
FN:489,_ZNSt27__uninitialized_default_n_1ILb0EE18__uninit_default_nIP7point_tmEEvT_T0_
FN:538,_ZSt25__uninitialized_default_nIP7point_tmEvT_T0_
FN:603,_ZSt27__uninitialized_default_n_aIP7point_tmS0_EvT_T0_RSaIT1_E
FNDA:288,_ZNSt20__uninitialized_copyILb0EE13__uninit_copyISt13move_iteratorIP7point_tES4_EET0_T_S7_S6_
FNDA:288,_ZSt18uninitialized_copyISt13move_iteratorIP7point_tES2_ET0_T_S5_S4_
FNDA:288,_ZSt22__uninitialized_copy_aISt13move_iteratorIP7point_tES2_S1_ET0_T_S5_S4_RSaIT1_E
FNDA:288,_ZSt34__uninitialized_move_if_noexcept_aIP7point_tS1_SaIS0_EET0_T_S4_S3_RT1_
FNDA:0,_ZNSt27__uninitialized_default_n_1ILb0EE18__uninit_default_nIP7point_tmEEvT_T0_
FNDA:0,_ZSt25__uninitialized_default_nIP7point_tmEvT_T0_
FNDA:0,_ZSt27__uninitialized_default_n_aIP7point_tmS0_EvT_T0_RSaIT1_E
FNF:7
FNH:4
DA:68,288
DA:71,288
DA:74,576
DA:75,288
DA:76,288
DA:78,=====
DA:80,=====
DA:81,=====
DA:107,288
DA:117,288
DA:256,288
DA:258,288
DA:274,288
DA:281,288
DA:489,0
DA:491,0
DA:494,0
DA:495,0
DA:497,=====
DA:499,=====
DA:500,=====
DA:502,0
DA:538,0
DA:543,0
DA:545,0
DA:603,0
DA:605,0
LF:27
LH:11
end_of_record
SF:/usr/include/c++/4.8/bits/stl_vector.h
FN:113,_ZNSt12_Vector_baseI7point_tSaIS0_EE19_M_get_Tp_allocatorEv
FN:117,_ZNKSt12_Vector_baseI7point_tSaIS0_EE19_M_get_Tp_allocatorEv
FN:167,_ZNSt12_Vector_baseI7point_tSaIS0_EE11_M_allocateEm
FN:171,_ZNSt12_Vector_baseI7point_tSaIS0_EE13_M_deallocateEPS0_m
FN:538,_ZNSt6vectorI7point_tSaIS0_EE5beginEv
FN:547,_ZNKSt6vectorI7point_tSaIS0_EE5beginEv
FN:556,_ZNSt6vectorI7point_tSaIS0_EE3endEv
FN:565,_ZNKSt6vectorI7point_tSaIS0_EE3endEv
FN:611,_ZNKSt6vectorI7point_tSaIS0_EE6cbeginEv
FN:620,_ZNKSt6vectorI7point_tSaIS0_EE4cendEv
FN:645,_ZNKSt6vectorI7point_tSaIS0_EE4sizeEv
FN:650,_ZNKSt6vectorI7point_tSaIS0_EE8max_sizeEv
FN:664,_ZNSt6vectorI7point_tSaIS0_EE6resizeEm
FN:770,_ZNSt6vectorI7point_tSaIS0_EEixEm
FN:1336,_ZNKSt6vectorI7point_tSaIS0_EE12_M_check_lenEmPKc
FN:1350,_ZNSt6vectorI7point_tSaIS0_EE15_M_erase_at_endEPS0_
FNDA:672,_ZNSt12_Vector_baseI7point_tSaIS0_EE19_M_get_Tp_allocatorEv
FNDA:576,_ZNKSt12_Vector_baseI7point_tSaIS0_EE19_M_get_Tp_allocatorEv
FNDA:288,_ZNSt12_Vector_baseI7point_tSaIS0_EE11_M_allocateEm
FNDA:384,_ZNSt12_Vector_baseI7point_tSaIS0_EE13_M_deallocateEPS0_m
FNDA:384,_ZNSt6vectorI7point_tSaIS0_EE5beginEv
FNDA:96,_ZNKSt6vectorI7point_tSaIS0_EE5beginEv
FNDA:96,_ZNSt6vectorI7point_tSaIS0_EE3endEv
FNDA:96,_ZNKSt6vectorI7point_tSaIS0_EE3endEv
FNDA:0,_ZNKSt6vectorI7point_tSaIS0_EE6cbeginEv
FNDA:0,_ZNKSt6vectorI7point_tSaIS0_EE4cendEv
FNDA:2496,_ZNKSt6vectorI7point_tSaIS0_EE4sizeEv
FNDA:576,_ZNKSt6vectorI7point_tSaIS0_EE8max_sizeEv
FNDA:0,_ZNSt6vectorI7point_tSaIS0_EE6resizeEm
FNDA:576,_ZNSt6vectorI7point_tSaIS0_EEixEm
FNDA:288,_ZNKSt6vectorI7point_tSaIS0_EE12_M_check_lenEmPKc
FNDA:0,_ZNSt6vectorI7point_tSaIS0_EE15_M_erase_at_endEPS0_
FNF:16
FNH:12
DA:113,672
DA:114,672
DA:117,576
DA:118,576
DA:167,288
DA:168,288
DA:171,384
DA:173,384
DA:174,288
DA:175,384
DA:538,384
DA:539,384
DA:547,96
DA:548,96
DA:556,96
DA:557,96
DA:565,96
DA:566,96
DA:611,0
DA:612,0
DA:620,0
DA:621,0
DA:645,2496
DA:646,2496
DA:650,576
DA:651,576
DA:664,0
DA:666,0
DA:667,0
DA:668,0
DA:669,0
DA:670,0
DA:770,576
DA:771,576
DA:1336,288
DA:1338,288
DA:1339,0
DA:1341,288
DA:1342,288
DA:1350,0
DA:1352,0
DA:1353,0
DA:1354,0
LF:43
LH:28
end_of_record
SF:/usr/include/c++/4.8/bits/vector.tcc
FN:532,_ZNSt6vectorI7point_tSaIS0_EE17_M_default_appendEm
FNDA:0,_ZNSt6vectorI7point_tSaIS0_EE17_M_default_appendEm
FNF:1
FNH:0
DA:532,0
DA:535,0
DA:537,0
DA:540,0
DA:541,0
DA:542,0
DA:547,0
DA:548,0
DA:549,0
DA:550,0
DA:553,0
DA:556,0
DA:557,0
DA:558,0
DA:559,0
DA:561,=====
DA:563,=====
DA:564,=====
DA:565,=====
DA:566,=====
DA:568,0
DA:569,0
DA:570,0
DA:572,0
DA:573,0
DA:574,0
DA:575,0
DA:578,0
LF:28
LH:0
end_of_record
SF:/usr/include/c++/4.8/cmath
FN:106,_ZSt4acosf
FN:203,_ZSt3cosf
FN:260,_ZSt4fabsf
FN:407,_ZSt3powff
FN:482,_ZSt4sqrtf
FNDA:0,_ZSt4acosf
FNDA:0,_ZSt3cosf
FNDA:0,_ZSt4fabsf
FNDA:0,_ZSt3powff
FNDA:0,_ZSt4sqrtf
FNF:5
FNH:0
DA:106,0
DA:107,0
DA:203,0
DA:204,0
DA:260,0
DA:261,0
DA:407,0
DA:408,0
DA:482,0
DA:483,0
LF:10
LH:0
end_of_record
SF:/usr/include/c++/4.8/ext/atomicity.h
FN:48,_ZN9__gnu_cxxL18__exchange_and_addEPVii
FN:65,_ZN9__gnu_cxxL25__exchange_and_add_singleEPii
FN:78,_ZN9__gnu_cxxL27__exchange_and_add_dispatchEPii
FNDA:0,_ZN9__gnu_cxxL18__exchange_and_addEPVii
FNDA:0,_ZN9__gnu_cxxL25__exchange_and_add_singleEPii
FNDA:0,_ZN9__gnu_cxxL27__exchange_and_add_dispatchEPii
FNF:3
FNH:0
DA:48,0
DA:49,0
DA:65,0
DA:67,0
DA:68,0
DA:69,0
DA:78,0
DA:81,0
DA:82,0
DA:84,0
LF:10
LH:0
end_of_record
SF:/usr/include/c++/4.8/ext/new_allocator.h
FN:79,_ZN9__gnu_cxx13new_allocatorIcEC2Ev
FN:81,_ZN9__gnu_cxx13new_allocatorIcEC2ERKS1_
FN:86,_ZN9__gnu_cxx13new_allocatorIcED2Ev
FN:99,_ZN9__gnu_cxx13new_allocatorI7point_tE8allocateEmPKv
FN:109,_ZN9__gnu_cxx13new_allocatorI7point_tE10deallocateEPS1_m
FN:113,_ZNK9__gnu_cxx13new_allocatorI7point_tE8max_sizeEv
FNDA:0,_ZN9__gnu_cxx13new_allocatorIcEC2Ev
FNDA:0,_ZN9__gnu_cxx13new_allocatorIcEC2ERKS1_
FNDA:0,_ZN9__gnu_cxx13new_allocatorIcED2Ev
FNDA:288,_ZN9__gnu_cxx13new_allocatorI7point_tE8allocateEmPKv
FNDA:288,_ZN9__gnu_cxx13new_allocatorI7point_tE10deallocateEPS1_m
FNDA:864,_ZNK9__gnu_cxx13new_allocatorI7point_tE8max_sizeEv
FNF:6
FNH:3
DA:79,0
DA:81,0
DA:86,0
DA:99,288
DA:101,288
DA:102,0
DA:104,288
DA:109,288
DA:110,288
DA:113,864
DA:114,864
LF:11
LH:7
end_of_record
SF:/usr/include/c++/4.8/ext/type_traits.h
FN:150,_ZN9__gnu_cxx17__is_null_pointerIcEEbPT_
FNDA:0,_ZN9__gnu_cxx17__is_null_pointerIcEEbPT_
FNF:1
FNH:0
DA:150,0
DA:151,0
LF:2
LH:0
end_of_record
SF:/usr/include/c++/4.8/iostream
DA:74,6
LF:1
LH:1
end_of_record
SF:/usr/include/c++/4.8/limits
FN:1599,_ZNSt14numeric_limitsIfE8infinityEv
FNDA:0,_ZNSt14numeric_limitsIfE8infinityEv
FNF:1
FNH:0
DA:1599,0
LF:1
LH:0
end_of_record
SF:/usr/include/c++/4.8/new
FN:109,_ZnwmPv
FN:115,_ZdlPvS_
FNDA:0,_ZnwmPv
FNDA:0,_ZdlPvS_
FNF:2
FNH:0
DA:109,0
DA:110,0
DA:115,0
LF:3
LH:0
end_of_record
SF:/usr/include/c++/4.8/sstream
FN:64,_ZNSt15basic_stringbufIcSt11char_traitsIcESaIcEED0Ev
FN:64,_ZNSt15basic_stringbufIcSt11char_traitsIcESaIcEED2Ev
FNDA:0,_ZNSt15basic_stringbufIcSt11char_traitsIcESaIcEED0Ev
FNDA:0,_ZNSt15basic_stringbufIcSt11char_traitsIcESaIcEED2Ev
FNF:2
FNH:0
DA:64,0
LF:1
LH:0
end_of_record
SF:/usr/include/x86_64-linux-gnu/c++/4.8/bits/gthr-default.h
FN:247,_ZL18__gthread_active_pv
FNDA:0,_ZL18__gthread_active_pv
FNF:1
FNH:0
DA:247,0
DA:251,0
LF:2
LH:0
end_of_record
SF:/home/bruce/work/RAPTor/physics_engine/matrix_3d.h
FN:198,_ZNK9matrix_3d7get_rowEi
FN:203,_ZNK9matrix_3d4sizeEv
FNDA:0,_ZNK9matrix_3d7get_rowEi
FNDA:0,_ZNK9matrix_3d4sizeEv
FNF:2
FNH:0
DA:198,0
DA:200,0
DA:203,0
DA:205,0
LF:4
LH:0
end_of_record
SF:/home/bruce/work/RAPTor/physics_engine/physics_common.cc
FN:16,_ZN14raptor_physics14project_vectorERK7point_tS2_
FN:32,_ZN14raptor_physics19find_support_vertexERK9matrix_3dRK7point_t
FN:40,_ZN14raptor_physics19find_support_vertexERK9matrix_3dRK7point_tPf
FN:59,_ZN14raptor_physics19find_support_vertexERK9matrix_3dRK7point_tS5_S5_S5_Pf
FN:113,_ZN14raptor_physics14is_inside_edgeERK7point_tS2_S2_
FN:121,_ZN14raptor_physics13is_coincidentERK7point_tS2_
FN:129,_ZN14raptor_physics12clip_polygonEPSt6vectorI7point_tSaIS1_EERKS3_RKS1_
FN:134,_ZZN14raptor_physics12clip_polygonEPSt6vectorI7point_tSaIS1_EERKS3_RKS1_ENKUlPSt18basic_stringstreamIcSt11char_traitsIcESaIcEES8_E_clESE_S8_
FN:140,_ZZN14raptor_physics12clip_polygonEPSt6vectorI7point_tSaIS1_EERKS3_RKS1_ENKUlPSt18basic_stringstreamIcSt11char_traitsIcESaIcEES8_E0_clESE_S8_
FN:205,_ZZN14raptor_physics12clip_polygonEPSt6vectorI7point_tSaIS1_EERKS3_RKS1_ENKUlPSt18basic_stringstreamIcSt11char_traitsIcESaIcEES8_E1_clESE_S8_
FN:243,_ZZN14raptor_physics12clip_polygonEPSt6vectorI7point_tSaIS1_EERKS3_RKS1_ENKUlPSt18basic_stringstreamIcSt11char_traitsIcESaIcEES8_E2_clESE_S8_
FN:251,_ZN14raptor_physics29find_first_positive_real_rootEPfffff
FN:353,_ZZN14raptor_physics29find_first_positive_real_rootEPfffffENKUlPSt18basic_stringstreamIcSt11char_traitsIcESaIcEEfE_clES6_f
FN:370,_ZN14raptor_physics42find_exact_none_translating_collision_timeERK7point_tS2_S2_S2_S2_S2_ff
FN:416,_ZN14raptor_physics25find_exact_collision_timeERK7point_tS2_S2_S2_S2_S2_S2_ff
FN:462,_ZN14raptor_physics30interpolated_quaternion_rotateERK7point_tS2_S2_fff
FN:479,_ZN14raptor_physics25find_exact_collision_timeERK7point_tS2_S2_S2_S2_S2_S2_S2_ff
FN:574,_ZN14raptor_physics42find_exact_none_translating_collision_timeERK7point_tS2_S2_S2_S2_S2_S2_ff
FN:656,_Z41__static_initialization_and_destruction_0ii
FN:656,_GLOBAL__sub_I_physics_common.cc
FNDA:0,_ZN14raptor_physics14project_vectorERK7point_tS2_
FNDA:1440,_ZN14raptor_physics19find_support_vertexERK9matrix_3dRK7point_t
FNDA:1440,_ZN14raptor_physics19find_support_vertexERK9matrix_3dRK7point_tPf
FNDA:24,_ZN14raptor_physics19find_support_vertexERK9matrix_3dRK7point_tS5_S5_S5_Pf
FNDA:0,_ZN14raptor_physics14is_inside_edgeERK7point_tS2_S2_
FNDA:0,_ZN14raptor_physics13is_coincidentERK7point_tS2_
FNDA:0,_ZN14raptor_physics12clip_polygonEPSt6vectorI7point_tSaIS1_EERKS3_RKS1_
FNDA:0,_ZZN14raptor_physics12clip_polygonEPSt6vectorI7point_tSaIS1_EERKS3_RKS1_ENKUlPSt18basic_stringstreamIcSt11char_traitsIcESaIcEES8_E_clESE_S8_
FNDA:0,_ZZN14raptor_physics12clip_polygonEPSt6vectorI7point_tSaIS1_EERKS3_RKS1_ENKUlPSt18basic_stringstreamIcSt11char_traitsIcESaIcEES8_E0_clESE_S8_
FNDA:0,_ZZN14raptor_physics12clip_polygonEPSt6vectorI7point_tSaIS1_EERKS3_RKS1_ENKUlPSt18basic_stringstreamIcSt11char_traitsIcESaIcEES8_E1_clESE_S8_
FNDA:0,_ZZN14raptor_physics12clip_polygonEPSt6vectorI7point_tSaIS1_EERKS3_RKS1_ENKUlPSt18basic_stringstreamIcSt11char_traitsIcESaIcEES8_E2_clESE_S8_
FNDA:0,_ZN14raptor_physics29find_first_positive_real_rootEPfffff
FNDA:0,_ZZN14raptor_physics29find_first_positive_real_rootEPfffffENKUlPSt18basic_stringstreamIcSt11char_traitsIcESaIcEEfE_clES6_f
FNDA:0,_ZN14raptor_physics42find_exact_none_translating_collision_timeERK7point_tS2_S2_S2_S2_S2_ff
FNDA:0,_ZN14raptor_physics25find_exact_collision_timeERK7point_tS2_S2_S2_S2_S2_S2_ff
FNDA:0,_ZN14raptor_physics30interpolated_quaternion_rotateERK7point_tS2_S2_fff
FNDA:0,_ZN14raptor_physics25find_exact_collision_timeERK7point_tS2_S2_S2_S2_S2_S2_S2_ff
FNDA:0,_ZN14raptor_physics42find_exact_none_translating_collision_timeERK7point_tS2_S2_S2_S2_S2_S2_ff
FNDA:6,_GLOBAL__sub_I_physics_common.cc
FNDA:6,_Z41__static_initialization_and_destruction_0ii
FNF:20
FNH:5
DA:16,0
DA:19,0
DA:20,0
DA:22,0
DA:26,0
DA:27,0
DA:32,1440
DA:35,1440
DA:40,1440
DA:43,1440
DA:44,1440
DA:45,11520
DA:47,10080
DA:48,10080
DA:50,1128
DA:51,1128
DA:55,1440
DA:59,24
DA:63,24
DA:64,24
DA:66,12
DA:67,12
DA:71,12
DA:72,12
DA:76,12
DA:77,12
DA:78,96
DA:80,84
DA:81,84
DA:83,24
DA:84,24
DA:88,12
DA:113,0
DA:115,0
DA:116,0
DA:121,0
DA:123,0
DA:124,0
DA:129,0
DA:131,0
DA:133,0
DA:134,0
DA:136,0
DA:137,0
DA:138,0
DA:139,0
DA:140,0
DA:142,0
DA:143,0
DA:144,0
DA:150,0
DA:151,0
DA:152,0
DA:153,0
DA:154,0
DA:155,0
DA:158,0
DA:159,0
DA:162,0
DA:163,0
DA:164,0
DA:166,0
DA:167,0
DA:168,0
DA:169,0
DA:171,0
DA:172,0
DA:174,0
DA:175,0
DA:176,0
DA:178,0
DA:179,0
DA:181,0
DA:183,0
DA:184,0
DA:185,0
DA:186,0
DA:188,0
DA:189,0
DA:191,0
DA:193,0
DA:194,0
DA:195,0
DA:196,0
DA:199,0
DA:200,0
DA:204,0
DA:205,0
DA:207,0
DA:208,0
DA:209,0
DA:212,0
DA:213,0
DA:214,0
DA:215,0
DA:221,0
DA:222,0
DA:224,0
DA:225,0
DA:227,0
DA:228,0
DA:233,0
DA:234,0
DA:236,0
DA:237,0
DA:239,0
DA:242,0
DA:243,0
DA:245,0
DA:246,0
DA:247,0
DA:248,0
DA:251,0
DA:254,0
DA:256,0
DA:259,0
DA:260,0
DA:261,0
DA:264,0
DA:265,0
DA:266,0
DA:269,0
DA:270,0
DA:273,0
DA:274,0
DA:275,0
DA:277,0
DA:278,0
DA:279,0
DA:280,0
DA:281,0
DA:283,0
DA:284,0
DA:287,0
DA:289,0
DA:290,0
DA:291,0
DA:293,0
DA:294,0
DA:295,0
DA:300,0
DA:301,0
DA:302,0
DA:303,0
DA:304,0
DA:305,0
DA:306,0
DA:308,0
DA:309,0
DA:310,0
DA:311,0
DA:314,0
DA:317,0
DA:318,0
DA:319,0
DA:321,0
DA:322,0
DA:323,0
DA:327,0
DA:328,0
DA:329,0
DA:330,0
DA:332,0
DA:333,0
DA:334,0
DA:336,0
DA:338,0
DA:339,0
DA:341,0
DA:342,0
DA:346,0
DA:348,0
DA:349,0
DA:352,0
DA:353,0
DA:355,0
DA:356,0
DA:357,0
DA:359,0
DA:370,0
DA:373,0
DA:374,0
DA:375,0
DA:376,0
DA:377,0
DA:378,0
DA:379,0
DA:382,0
DA:383,0
DA:386,0
DA:387,0
DA:388,0
DA:390,0
DA:391,0
DA:392,0
DA:393,0
DA:394,0
DA:397,0
DA:398,0
DA:399,0
DA:400,0
DA:403,0
DA:404,0
DA:416,0
DA:419,0
DA:420,0
DA:421,0
DA:422,0
DA:423,0
DA:424,0
DA:425,0
DA:426,0
DA:429,0
DA:430,0
DA:431,0
DA:434,0
DA:435,0
DA:436,0
DA:437,0
DA:438,0
DA:439,0
DA:440,0
DA:441,0
DA:442,0
DA:445,0
DA:446,0
DA:447,0
DA:448,0
DA:451,0
DA:452,0
DA:462,0
DA:464,0
DA:465,0
DA:466,0
DA:479,0
DA:482,0
DA:485,0
DA:486,0
DA:487,0
DA:488,0
DA:491,0
DA:492,0
DA:493,0
DA:496,0
DA:498,0
DA:499,0
DA:500,0
DA:501,0
DA:502,0
DA:503,0
DA:506,0
DA:507,0
DA:508,0
DA:509,0
DA:511,0
DA:512,0
DA:515,0
DA:517,0
DA:518,0
DA:519,0
DA:520,0
DA:521,0
DA:522,0
DA:524,0
DA:525,0
DA:526,0
DA:527,0
DA:529,0
DA:530,0
DA:531,0
DA:532,0
DA:533,0
DA:536,0
DA:537,0
DA:538,0
DA:539,0
DA:540,0
DA:543,0
DA:546,0
DA:548,0
DA:549,0
DA:550,0
DA:552,0
DA:554,0
DA:556,0
DA:558,0
DA:562,0
DA:574,0
DA:577,0
DA:580,0
DA:581,0
DA:582,0
DA:585,0
DA:586,0
DA:587,0
DA:590,0
DA:592,0
DA:593,0
DA:594,0
DA:595,0
DA:596,0
DA:597,0
DA:600,0
DA:601,0
DA:602,0
DA:603,0
DA:605,0
DA:606,0
DA:609,0
DA:611,0
DA:612,0
DA:613,0
DA:614,0
DA:615,0
DA:616,0
DA:618,0
DA:619,0
DA:620,0
DA:621,0
DA:623,0
DA:624,0
DA:625,0
DA:626,0
DA:629,0
DA:630,0
DA:631,0
DA:632,0
DA:635,0
DA:638,0
DA:640,0
DA:641,0
DA:642,0
DA:644,0
DA:646,0
DA:648,0
DA:650,0
DA:654,0
DA:656,18
LF:338
LH:27
end_of_record
TN:
SF:/home/bruce/work/RAPTor/common/logging.h
FN:20,_ZN14raptor_physics11init_loggerC2Ev
FN:34,_ZN14raptor_physics13method_loggerC2ERKSs
FN:39,_ZN14raptor_physics13method_loggerD2Ev
FNDA:4,_ZN14raptor_physics11init_loggerC2Ev
FNDA:0,_ZN14raptor_physics13method_loggerC2ERKSs
FNDA:0,_ZN14raptor_physics13method_loggerD2Ev
FNF:3
FNH:1
DA:20,4
DA:24,8
DA:25,4
DA:26,4
DA:34,0
DA:36,0
DA:37,0
DA:39,0
DA:40,0
DA:41,0
DA:42,0
LF:11
LH:4
end_of_record
SF:/home/bruce/work/RAPTor/common/quaternion_t.h
FN:24,_ZN12quaternion_tC2Effff
FN:145,_ZNK12quaternion_t15rotation_matrixEPf
FN:195,_ZlsRSoRK12quaternion_t
FNDA:128,_ZN12quaternion_tC2Effff
FNDA:0,_ZNK12quaternion_t15rotation_matrixEPf
FNDA:0,_ZlsRSoRK12quaternion_t
FNF:3
FNH:1
DA:24,128
DA:25,128
DA:145,0
DA:147,0
DA:148,0
DA:149,0
DA:150,0
DA:152,0
DA:153,0
DA:154,0
DA:156,0
DA:157,0
DA:159,0
DA:160,0
DA:161,0
DA:163,0
DA:164,0
DA:165,0
DA:167,0
DA:168,0
DA:169,0
DA:171,0
DA:195,0
DA:197,0
LF:24
LH:2
end_of_record
SF:/home/bruce/work/RAPTor/raytracer/ext_colour_t.h
FN:16,_ZN12ext_colour_tC2Efff
FN:54,_ZmlRK12ext_colour_tf
FNDA:128,_ZN12ext_colour_tC2Efff
FNDA:64,_ZmlRK12ext_colour_tf
FNF:2
FNH:2
DA:16,128
DA:54,64
DA:56,64
LF:3
LH:3
end_of_record
SF:/home/bruce/work/RAPTor/raytracer/materials/material.h
FN:47,_ZN8materialC2Eb
FN:48,_ZN8materialD0Ev
FN:48,_ZN8materialD2Ev
FNDA:32,_ZN8materialC2Eb
FNDA:0,_ZN8materialD0Ev
FNDA:0,_ZN8materialD2Ev
FNF:3
FNH:1
DA:47,32
DA:48,0
LF:2
LH:1
end_of_record
SF:/home/bruce/work/RAPTor/raytracer/materials/phong_shader.h
FN:16,_ZN12phong_shaderC2ERK12ext_colour_tffffffff
FN:52,_ZN12phong_shaderD2Ev
FN:52,_ZN12phong_shaderD0Ev
FNDA:32,_ZN12phong_shaderC2ERK12ext_colour_tffffffff
FNDA:0,_ZN12phong_shaderD0Ev
FNDA:0,_ZN12phong_shaderD2Ev
FNF:3
FNH:1
DA:16,32
DA:17,32
DA:21,32
DA:22,32
DA:23,32
DA:24,32
DA:25,32
DA:26,32
DA:27,32
DA:28,32
DA:29,32
DA:52,0
LF:12
LH:11
end_of_record
SF:/home/bruce/work/RAPTor/raytracer/point_t.h
FN:17,_ZN7point_tC2Efff
FN:24,_ZNK7point_tngEv
FN:27,_ZNK7point_teqERKS_
FN:28,_ZNK7point_tneERKS_
FN:32,_ZN7point_tpLERKS_
FN:39,_ZN7point_tneEf
FN:44,_ZN7point_tdVEf
FN:59,_ZlsRSoRK7point_t
FN:75,_ZmlRK7point_tf
FN:85,_ZplRK7point_tS1_
FN:90,_ZmiRK7point_tS1_
FN:297,_Z9magnitudeRK7point_t
FN:432,_Z13cross_productRK7point_tS1_PS_
FN:445,_Z13cross_productRK7point_tS1_
FN:456,_Z11dot_productRK7point_tS1_
FN:467,_Z9normaliseP7point_t
FNDA:0,_ZN7point_tC2Efff
FNDA:0,_ZNK7point_tngEv
FNDA:368,_ZNK7point_teqERKS_
FNDA:288,_ZNK7point_tneERKS_
FNDA:0,_ZN7point_tpLERKS_
FNDA:96,_ZN7point_tneEf
FNDA:0,_ZN7point_tdVEf
FNDA:0,_ZlsRSoRK7point_t
FNDA:0,_ZmlRK7point_tf
FNDA:0,_ZplRK7point_tS1_
FNDA:0,_ZmiRK7point_tS1_
FNDA:0,_Z9magnitudeRK7point_t
FNDA:0,_Z13cross_productRK7point_tS1_PS_
FNDA:0,_Z13cross_productRK7point_tS1_
FNDA:0,_Z11dot_productRK7point_tS1_
FNDA:0,_Z9normaliseP7point_t
FNF:16
FNH:3
DA:17,0
DA:24,0
DA:27,368
DA:28,288
DA:32,0
DA:39,96
DA:44,0
DA:59,0
DA:61,0
DA:75,0
DA:77,0
DA:85,0
DA:87,0
DA:90,0
DA:92,0
DA:297,0
DA:299,0
DA:432,0
DA:434,0
DA:435,0
DA:436,0
DA:437,0
DA:445,0
DA:447,0
DA:456,0
DA:458,0
DA:467,0
DA:469,0
DA:470,0
DA:471,0
DA:472,0
DA:473,0
LF:32
LH:3
end_of_record
SF:/home/bruce/work/RAPTor/raytracer/triangle.h
FN:53,_ZNK8triangle12get_vertex_aEv
FN:54,_ZNK8triangle12get_vertex_bEv
FN:55,_ZNK8triangle12get_vertex_cEv
FN:152,_ZN8triangle22calculate_pre_computesEv
FN:290,_ZN8triangleC2EP8materialRK7point_tS4_S4_bPS3_S5_
FNDA:96,_ZNK8triangle12get_vertex_aEv
FNDA:96,_ZNK8triangle12get_vertex_bEv
FNDA:96,_ZNK8triangle12get_vertex_cEv
FNDA:96,_ZN8triangle22calculate_pre_computesEv
FNDA:96,_ZN8triangleC2EP8materialRK7point_tS4_S4_bPS3_S5_
FNF:5
FNH:5
DA:53,96
DA:54,96
DA:55,96
DA:152,96
DA:155,96
DA:156,96
DA:157,96
DA:161,96
DA:162,96
DA:163,96
DA:164,96
DA:165,96
DA:166,96
DA:169,96
DA:171,32
DA:173,96
DA:175,32
DA:177,96
DA:179,32
DA:181,96
DA:182,96
DA:185,96
DA:186,96
DA:187,96
DA:188,96
DA:189,96
DA:190,96
DA:193,96
DA:194,96
DA:195,96
DA:196,96
DA:200,96
DA:202,32
DA:204,32
DA:205,32
DA:206,32
DA:207,32
DA:208,32
DA:209,32
DA:210,32
DA:211,32
DA:215,0
DA:216,0
DA:217,0
DA:218,0
DA:219,0
DA:220,0
DA:221,0
DA:222,0
DA:223,0
DA:224,0
DA:225,0
DA:230,64
DA:232,32
DA:233,32
DA:234,32
DA:235,32
DA:236,32
DA:237,32
DA:238,32
DA:239,32
DA:240,32
DA:241,32
DA:242,32
DA:246,32
DA:247,32
DA:248,32
DA:249,32
DA:250,32
DA:251,32
DA:252,32
DA:253,32
DA:254,32
DA:255,32
DA:256,32
DA:261,96
DA:262,96
DA:263,96
DA:264,96
DA:266,96
DA:267,96
DA:268,96
DA:269,96
DA:270,96
DA:273,96
DA:274,96
DA:290,96
DA:291,96
DA:294,96
DA:296,0
DA:297,0
DA:298,0
DA:299,0
DA:303,96
DA:307,96
DA:309,0
DA:310,0
DA:311,0
DA:312,0
DA:316,96
DA:319,96
DA:320,96
LF:102
LH:83
end_of_record
SF:/home/bruce/work/lib/boost_1_54_0/boost/checked_delete.hpp
FN:29,_ZN5boost14checked_deleteINS_9unit_test9ut_detail16callback0_impl_tINS2_6unusedEPFvvEEEEEvPT_
FNDA:32,_ZN5boost14checked_deleteINS_9unit_test9ut_detail16callback0_impl_tINS2_6unusedEPFvvEEEEEvPT_
FNF:1
FNH:1
DA:29,32
DA:34,32
DA:35,32
LF:3
LH:3
end_of_record
SF:/home/bruce/work/lib/boost_1_54_0/boost/fusion/sequence/intrinsic/at.hpp
FN:86,_ZN5boost6fusion2atIN4mpl_4int_ILi0EEENS_7phoenix7vector2IRNS6_IPKNS5_5actorINS_5proto7exprns_4exprINS8_6tagns_3tag13greater_equalENS8_7argsns_5list2INS_3log11v2_mt_posix11expressions15attribute_actorINSH_7trivial14severity_levelENSH_16fallback_to_noneENSK_3tag8severityES7_EENS7_INSA_INSC_8terminalENSE_4termISL_EELl0EEEEEEELl2EEEEERKNSH_19attribute_value_setEEERKNS5_15default_actionsEEEEENS0_9result_of2atIKT0_T_E4typeERS1C_
FN:86,_ZN5boost6fusion2atIN4mpl_4int_ILi0EEENS_7phoenix7vector1IRKNS_3log11v2_mt_posix19attribute_value_setEEEEENS0_9result_of2atIKT0_T_E4typeERSG_
FN:86,_ZN5boost6fusion2atIN4mpl_4int_ILi1EEENS_7phoenix7vector2IRNS6_IPKNS5_5actorINS_5proto7exprns_4exprINS8_6tagns_3tag13greater_equalENS8_7argsns_5list2INS_3log11v2_mt_posix11expressions15attribute_actorINSH_7trivial14severity_levelENSH_16fallback_to_noneENSK_3tag8severityES7_EENS7_INSA_INSC_8terminalENSE_4termISL_EELl0EEEEEEELl2EEEEERKNSH_19attribute_value_setEEERKNS5_15default_actionsEEEEENS0_9result_of2atIKT0_T_E4typeERS1C_
FN:104,_ZN5boost6fusion4at_cILi1ENS_7phoenix7vector2IRNS3_IPKNS2_5actorINS_5proto7exprns_4exprINS5_6tagns_3tag13greater_equalENS5_7argsns_5list2INS_3log11v2_mt_posix11expressions15attribute_actorINSE_7trivial14severity_levelENSE_16fallback_to_noneENSH_3tag8severityES4_EENS4_INS7_INS9_8terminalENSB_4termISI_EELl0EEEEEEELl2EEEEERKNSE_19attribute_value_setEEERKNS2_15default_actionsEEEEENS0_9result_of4at_cIKT0_XT_EE4typeERS19_
FN:104,_ZN5boost6fusion4at_cILi0ENS_7phoenix7vector1IRKNS_3log11v2_mt_posix19attribute_value_setEEEEENS0_9result_of4at_cIKT0_XT_EE4typeERSD_
FN:104,_ZN5boost6fusion4at_cILi0ENS_7phoenix7vector2IRNS3_IPKNS2_5actorINS_5proto7exprns_4exprINS5_6tagns_3tag13greater_equalENS5_7argsns_5list2INS_3log11v2_mt_posix11expressions15attribute_actorINSE_7trivial14severity_levelENSE_16fallback_to_noneENSH_3tag8severityES4_EENS4_INS7_INS9_8terminalENSB_4termISI_EELl0EEEEEEELl2EEEEERKNSE_19attribute_value_setEEERKNS2_15default_actionsEEEEENS0_9result_of4at_cIKT0_XT_EE4typeERS19_
FNDA:6688,_ZN5boost6fusion2atIN4mpl_4int_ILi0EEENS_7phoenix7vector1IRKNS_3log11v2_mt_posix19attribute_value_setEEEEENS0_9result_of2atIKT0_T_E4typeERSG_
FNDA:6688,_ZN5boost6fusion2atIN4mpl_4int_ILi1EEENS_7phoenix7vector2IRNS6_IPKNS5_5actorINS_5proto7exprns_4exprINS8_6tagns_3tag13greater_equalENS8_7argsns_5list2INS_3log11v2_mt_posix11expressions15attribute_actorINSH_7trivial14severity_levelENSH_16fallback_to_noneENSK_3tag8severityES7_EENS7_INSA_INSC_8terminalENSE_4termISL_EELl0EEEEEEELl2EEEEERKNSH_19attribute_value_setEEERKNS5_15default_actionsEEEEENS0_9result_of2atIKT0_T_E4typeERS1C_
FNDA:13376,_ZN5boost6fusion2atIN4mpl_4int_ILi0EEENS_7phoenix7vector2IRNS6_IPKNS5_5actorINS_5proto7exprns_4exprINS8_6tagns_3tag13greater_equalENS8_7argsns_5list2INS_3log11v2_mt_posix11expressions15attribute_actorINSH_7trivial14severity_levelENSH_16fallback_to_noneENSK_3tag8severityES7_EENS7_INSA_INSC_8terminalENSE_4termISL_EELl0EEEEEEELl2EEEEERKNSH_19attribute_value_setEEERKNS5_15default_actionsEEEEENS0_9result_of2atIKT0_T_E4typeERS1C_
FNDA:6688,_ZN5boost6fusion4at_cILi0ENS_7phoenix7vector1IRKNS_3log11v2_mt_posix19attribute_value_setEEEEENS0_9result_of4at_cIKT0_XT_EE4typeERSD_
FNDA:6688,_ZN5boost6fusion4at_cILi1ENS_7phoenix7vector2IRNS3_IPKNS2_5actorINS_5proto7exprns_4exprINS5_6tagns_3tag13greater_equalENS5_7argsns_5list2INS_3log11v2_mt_posix11expressions15attribute_actorINSE_7trivial14severity_levelENSE_16fallback_to_noneENSH_3tag8severityES4_EENS4_INS7_INS9_8terminalENSB_4termISI_EELl0EEEEEEELl2EEEEERKNSE_19attribute_value_setEEERKNS2_15default_actionsEEEEENS0_9result_of4at_cIKT0_XT_EE4typeERS19_
FNDA:13376,_ZN5boost6fusion4at_cILi0ENS_7phoenix7vector2IRNS3_IPKNS2_5actorINS_5proto7exprns_4exprINS5_6tagns_3tag13greater_equalENS5_7argsns_5list2INS_3log11v2_mt_posix11expressions15attribute_actorINSE_7trivial14severity_levelENSE_16fallback_to_noneENSH_3tag8severityES4_EENS4_INS7_INS9_8terminalENSB_4termISI_EELl0EEEEEEELl2EEEEERKNSE_19attribute_value_setEEERKNS2_15default_actionsEEEEENS0_9result_of4at_cIKT0_XT_EE4typeERS19_
FNF:6
FNH:6
DA:86,26752
DA:88,26752
DA:104,26752
DA:106,26752
LF:4
LH:4
end_of_record
SF:/home/bruce/work/lib/boost_1_54_0/boost/log/attributes/attribute_name.hpp
FN:79,_ZN5boost3log11v2_mt_posix14attribute_nameC2EPKc
FNDA:4,_ZN5boost3log11v2_mt_posix14attribute_nameC2EPKc
FNF:1
FNH:1
DA:79,4
DA:80,4
DA:82,4
LF:3
LH:3
end_of_record
SF:/home/bruce/work/lib/boost_1_54_0/boost/log/attributes/attribute_value.hpp
FN:64,_ZN5boost3log11v2_mt_posix15attribute_valueD2Ev
FN:118,_ZN5boost3log11v2_mt_posix15attribute_valueC2Ev
FN:162,_ZNK5boost3log11v2_mt_posix15attribute_valuentEv
FN:170,_ZNK5boost3log11v2_mt_posix15attribute_value8get_typeEv
FN:198,_ZNK5boost3log11v2_mt_posix15attribute_value8dispatchERNS1_15type_dispatcherE
FNDA:0,_ZN5boost3log11v2_mt_posix15attribute_valueD2Ev
FNDA:0,_ZN5boost3log11v2_mt_posix15attribute_valueC2Ev
FNDA:6688,_ZNK5boost3log11v2_mt_posix15attribute_valuentEv
FNDA:0,_ZNK5boost3log11v2_mt_posix15attribute_value8get_typeEv
FNDA:6688,_ZNK5boost3log11v2_mt_posix15attribute_value8dispatchERNS1_15type_dispatcherE
FNF:5
FNH:2
DA:64,0
DA:118,0
DA:162,6688
DA:170,0
DA:172,0
DA:173,0
DA:175,0
DA:198,6688
DA:200,6688
DA:201,6688
DA:203,0
LF:11
LH:4
end_of_record
SF:/home/bruce/work/lib/boost_1_54_0/boost/log/attributes/attribute_value_set.hpp
FN:150,_ZNK5boost3log11v2_mt_posix19attribute_value_set14const_iteratorneERKS3_
FN:184,_ZNK5boost3log11v2_mt_posix19attribute_value_set14const_iteratorptEv
FNDA:6688,_ZNK5boost3log11v2_mt_posix19attribute_value_set14const_iteratorneERKS3_
FNDA:6688,_ZNK5boost3log11v2_mt_posix19attribute_value_set14const_iteratorptEv
FNF:2
FNH:2
DA:150,6688
DA:152,6688
DA:184,6688
LF:3
LH:3
end_of_record
SF:/home/bruce/work/lib/boost_1_54_0/boost/log/attributes/fallback_policy.hpp
FN:45,_ZN5boost3log11v2_mt_posix16fallback_to_none13apply_defaultINS1_3aux21value_ref_initializerINS1_9value_refINS1_7trivial14severity_levelENS7_3tag8severityEEEEEEEbRT_
FN:62,_ZN5boost3log11v2_mt_posix16fallback_to_none15on_invalid_typeERKNS1_17type_info_wrapperE
FN:69,_ZN5boost3log11v2_mt_posix16fallback_to_none16on_missing_valueEv
FNDA:0,_ZN5boost3log11v2_mt_posix16fallback_to_none13apply_defaultINS1_3aux21value_ref_initializerINS1_9value_refINS1_7trivial14severity_levelENS7_3tag8severityEEEEEEEbRT_
FNDA:0,_ZN5boost3log11v2_mt_posix16fallback_to_none15on_invalid_typeERKNS1_17type_info_wrapperE
FNDA:0,_ZN5boost3log11v2_mt_posix16fallback_to_none16on_missing_valueEv
FNF:3
FNH:0
DA:45,0
DA:47,0
DA:62,0
DA:64,0
DA:69,0
DA:71,0
LF:6
LH:0
end_of_record
SF:/home/bruce/work/lib/boost_1_54_0/boost/log/attributes/value_extraction.hpp
FN:124,_ZN5boost3log11v2_mt_posix3aux21value_ref_initializerINS1_9value_refINS1_7trivial14severity_levelENS5_3tag8severityEEEEC2ERS9_
FN:129,_ZNK5boost3log11v2_mt_posix3aux21value_ref_initializerINS1_9value_refINS1_7trivial14severity_levelENS5_3tag8severityEEEEclIS6_EEvRKT_
FN:183,_ZN5boost3log11v2_mt_posix15value_extractorINS1_7trivial14severity_levelENS1_16fallback_to_noneENS3_3tag8severityEEC2ERKS8_
FN:202,_ZNK5boost3log11v2_mt_posix15value_extractorINS1_7trivial14severity_levelENS1_16fallback_to_noneENS3_3tag8severityEEclERKNS1_15attribute_valueE
FN:228,_ZNK5boost3log11v2_mt_posix15value_extractorINS1_7trivial14severity_levelENS1_16fallback_to_noneENS3_3tag8severityEEclERKNS1_14attribute_nameERKNS1_19attribute_value_setE
FNDA:6688,_ZN5boost3log11v2_mt_posix3aux21value_ref_initializerINS1_9value_refINS1_7trivial14severity_levelENS5_3tag8severityEEEEC2ERS9_
FNDA:6688,_ZNK5boost3log11v2_mt_posix3aux21value_ref_initializerINS1_9value_refINS1_7trivial14severity_levelENS5_3tag8severityEEEEclIS6_EEvRKT_
FNDA:16,_ZN5boost3log11v2_mt_posix15value_extractorINS1_7trivial14severity_levelENS1_16fallback_to_noneENS3_3tag8severityEEC2ERKS8_
FNDA:6688,_ZNK5boost3log11v2_mt_posix15value_extractorINS1_7trivial14severity_levelENS1_16fallback_to_noneENS3_3tag8severityEEclERKNS1_15attribute_valueE
FNDA:6688,_ZNK5boost3log11v2_mt_posix15value_extractorINS1_7trivial14severity_levelENS1_16fallback_to_noneENS3_3tag8severityEEclERKNS1_14attribute_nameERKNS1_19attribute_value_setE
FNF:5
FNH:5
DA:124,6688
DA:126,6688
DA:129,6688
DA:131,6688
DA:132,6688
DA:183,16
DA:185,16
DA:202,6688
DA:204,6688
DA:205,6688
DA:206,6688
DA:208,6688
DA:209,6688
DA:210,0
DA:212,0
DA:214,0
DA:216,6688
DA:228,6688
DA:232,6688
DA:233,6688
DA:234,6688
DA:236,0
DA:238,=====
DA:241,=====
DA:242,=====
LF:25
LH:18
end_of_record
SF:/home/bruce/work/lib/boost_1_54_0/boost/log/core/core.hpp
DA:308,0
LF:1
LH:0
end_of_record
SF:/home/bruce/work/lib/boost_1_54_0/boost/log/core/record.hpp
FN:66,_ZN5boost3log11v2_mt_posix6recordC2Ev
FN:79,_ZN5boost3log11v2_mt_posix6recordD2Ev
FN:125,_ZNK5boost3log11v2_mt_posix6recordntEv
FN:149,_ZN5boost3log11v2_mt_posix6record5resetEv
FNDA:0,_ZN5boost3log11v2_mt_posix6recordC2Ev
FNDA:0,_ZN5boost3log11v2_mt_posix6recordD2Ev
FNDA:0,_ZNK5boost3log11v2_mt_posix6recordntEv
FNDA:0,_ZN5boost3log11v2_mt_posix6record5resetEv
FNF:4
FNH:0
DA:66,0
DA:79,0
DA:81,0
DA:82,0
DA:125,0
DA:127,0
DA:149,0
DA:151,0
DA:153,0
DA:154,0
DA:156,0
LF:11
LH:0
end_of_record
SF:/home/bruce/work/lib/boost_1_54_0/boost/log/detail/attachable_sstream_buf.hpp
FN:109,_ZNK5boost3log11v2_mt_posix3aux22basic_ostringstreambufIcSt11char_traitsIcESaIcEE7storageEv
FNDA:0,_ZNK5boost3log11v2_mt_posix3aux22basic_ostringstreambufIcSt11char_traitsIcESaIcEE7storageEv
FNF:1
FNH:0
DA:109,0
LF:1
LH:0
end_of_record
SF:/home/bruce/work/lib/boost_1_54_0/boost/log/detail/code_conversion.hpp
FN:59,_ZN5boost3log11v2_mt_posix3aux12code_convertIcSt11char_traitsIcESaIcEEEvPKT_mRSbIS7_T0_T1_ERKSt6locale
FNDA:0,_ZN5boost3log11v2_mt_posix3aux12code_convertIcSt11char_traitsIcESaIcEEEvPKT_mRSbIS7_T0_T1_ERKSt6locale
FNF:1
FNH:0
DA:59,0
DA:61,0
DA:62,0
LF:3
LH:0
end_of_record
SF:/home/bruce/work/lib/boost_1_54_0/boost/log/detail/custom_terminal_spec.hpp
FN:58,_ZNK5boost7phoenix15custom_terminalINS_3log11v2_mt_posix11expressions18attribute_terminalINS3_7trivial14severity_levelENS3_16fallback_to_noneENS6_3tag8severityEEEvEclIKNS0_7vector2IRNSE_IPKNS0_5actorINS_5proto7exprns_4exprINSG_6tagns_3tag13greater_equalENSG_7argsns_5list2INS4_15attribute_actorIS7_S8_SA_SF_EENSF_INSI_INSK_8terminalENSM_4termIS7_EELl0EEEEEEELl2EEEEERKNS3_19attribute_value_setEEERKNS0_15default_actionsEEEEENSC_6resultIFKSC_RKSB_RT_EE4typeES1D_S1F_
FNDA:6688,_ZNK5boost7phoenix15custom_terminalINS_3log11v2_mt_posix11expressions18attribute_terminalINS3_7trivial14severity_levelENS3_16fallback_to_noneENS6_3tag8severityEEEvEclIKNS0_7vector2IRNSE_IPKNS0_5actorINS_5proto7exprns_4exprINSG_6tagns_3tag13greater_equalENSG_7argsns_5list2INS4_15attribute_actorIS7_S8_SA_SF_EENSF_INSI_INSK_8terminalENSM_4termIS7_EELl0EEEEEEELl2EEEEERKNS3_19attribute_value_setEEERKNS0_15default_actionsEEEEENSC_6resultIFKSC_RKSB_RT_EE4typeES1D_S1F_
FNF:1
FNH:1
DA:58,6688
DA:60,6688
LF:2
LH:2
end_of_record
SF:/home/bruce/work/lib/boost_1_54_0/boost/log/detail/light_function.hpp
FN:87,_ZN5boost3log11v2_mt_posix3aux14light_functionIFbRKNS1_19attribute_value_setEEE9impl_baseC2EPFbPS9_S6_EPFSA_PKS9_EPFvSA_E
FN:108,_ZN5boost3log11v2_mt_posix3aux14light_functionIFbRKNS1_19attribute_value_setEEE4implINS_7phoenix5actorINS_5proto7exprns_4exprINSC_6tagns_3tag13greater_equalENSC_7argsns_5list2INS1_11expressions15attribute_actorINS1_7trivial14severity_levelENS1_16fallback_to_noneENSM_3tag8severityESB_EENSB_INSE_INSG_8terminalENSI_4termISN_EELl0EEEEEEELl2EEEEEEC2ERKSZ_
FN:122,_ZN5boost3log11v2_mt_posix3aux14light_functionIFbRKNS1_19attribute_value_setEEE4implINS_7phoenix5actorINS_5proto7exprns_4exprINSC_6tagns_3tag13greater_equalENSC_7argsns_5list2INS1_11expressions15attribute_actorINS1_7trivial14severity_levelENS1_16fallback_to_noneENSM_3tag8severityESB_EENSB_INSE_INSG_8terminalENSI_4termISN_EELl0EEEEEEELl2EEEEEE12destroy_implEPNS8_9impl_baseE
FN:126,_ZN5boost3log11v2_mt_posix3aux14light_functionIFbRKNS1_19attribute_value_setEEE4implINS_7phoenix5actorINS_5proto7exprns_4exprINSC_6tagns_3tag13greater_equalENSC_7argsns_5list2INS1_11expressions15attribute_actorINS1_7trivial14severity_levelENS1_16fallback_to_noneENSM_3tag8severityESB_EENSB_INSE_INSG_8terminalENSI_4termISN_EELl0EEEEEEELl2EEEEEE10clone_implEPKNS8_9impl_baseE
FN:130,_ZN5boost3log11v2_mt_posix3aux14light_functionIFbRKNS1_19attribute_value_setEEE4implINS_7phoenix5actorINS_5proto7exprns_4exprINSC_6tagns_3tag13greater_equalENSC_7argsns_5list2INS1_11expressions15attribute_actorINS1_7trivial14severity_levelENS1_16fallback_to_noneENSM_3tag8severityESB_EENSB_INSE_INSG_8terminalENSI_4termISN_EELl0EEEEEEELl2EEEEEE11invoke_implEPNS8_9impl_baseES6_
FN:165,_ZN5boost3log11v2_mt_posix3aux14light_functionIFbRKNS1_19attribute_value_setEEEC2IRKNS_7phoenix5actorINS_5proto7exprns_4exprINSC_6tagns_3tag13greater_equalENSC_7argsns_5list2INS1_11expressions15attribute_actorINS1_7trivial14severity_levelENS1_16fallback_to_noneENSM_3tag8severityESB_EENSB_INSE_INSG_8terminalENSI_4termISN_EELl0EEEEEEELl2EEEEEEEOT_
FN:194,_ZN5boost3log11v2_mt_posix3aux14light_functionIFbRKNS1_19attribute_value_setEEED2Ev
FN:250,_ZN5boost3log11v2_mt_posix3aux14light_functionIFbRKNS1_19attribute_value_setEEE5clearEv
FNDA:8,_ZN5boost3log11v2_mt_posix3aux14light_functionIFbRKNS1_19attribute_value_setEEE9impl_baseC2EPFbPS9_S6_EPFSA_PKS9_EPFvSA_E
FNDA:8,_ZN5boost3log11v2_mt_posix3aux14light_functionIFbRKNS1_19attribute_value_setEEE4implINS_7phoenix5actorINS_5proto7exprns_4exprINSC_6tagns_3tag13greater_equalENSC_7argsns_5list2INS1_11expressions15attribute_actorINS1_7trivial14severity_levelENS1_16fallback_to_noneENSM_3tag8severityESB_EENSB_INSE_INSG_8terminalENSI_4termISN_EELl0EEEEEEELl2EEEEEEC2ERKSZ_
FNDA:8,_ZN5boost3log11v2_mt_posix3aux14light_functionIFbRKNS1_19attribute_value_setEEE4implINS_7phoenix5actorINS_5proto7exprns_4exprINSC_6tagns_3tag13greater_equalENSC_7argsns_5list2INS1_11expressions15attribute_actorINS1_7trivial14severity_levelENS1_16fallback_to_noneENSM_3tag8severityESB_EENSB_INSE_INSG_8terminalENSI_4termISN_EELl0EEEEEEELl2EEEEEE12destroy_implEPNS8_9impl_baseE
FNDA:4,_ZN5boost3log11v2_mt_posix3aux14light_functionIFbRKNS1_19attribute_value_setEEE4implINS_7phoenix5actorINS_5proto7exprns_4exprINSC_6tagns_3tag13greater_equalENSC_7argsns_5list2INS1_11expressions15attribute_actorINS1_7trivial14severity_levelENS1_16fallback_to_noneENSM_3tag8severityESB_EENSB_INSE_INSG_8terminalENSI_4termISN_EELl0EEEEEEELl2EEEEEE10clone_implEPKNS8_9impl_baseE
FNDA:6688,_ZN5boost3log11v2_mt_posix3aux14light_functionIFbRKNS1_19attribute_value_setEEE4implINS_7phoenix5actorINS_5proto7exprns_4exprINSC_6tagns_3tag13greater_equalENSC_7argsns_5list2INS1_11expressions15attribute_actorINS1_7trivial14severity_levelENS1_16fallback_to_noneENSM_3tag8severityESB_EENSB_INSE_INSG_8terminalENSI_4termISN_EELl0EEEEEEELl2EEEEEE11invoke_implEPNS8_9impl_baseES6_
FNDA:4,_ZN5boost3log11v2_mt_posix3aux14light_functionIFbRKNS1_19attribute_value_setEEEC2IRKNS_7phoenix5actorINS_5proto7exprns_4exprINSC_6tagns_3tag13greater_equalENSC_7argsns_5list2INS1_11expressions15attribute_actorINS1_7trivial14severity_levelENS1_16fallback_to_noneENSM_3tag8severityESB_EENSB_INSE_INSG_8terminalENSI_4termISN_EELl0EEEEEEELl2EEEEEEEOT_
FNDA:4,_ZN5boost3log11v2_mt_posix3aux14light_functionIFbRKNS1_19attribute_value_setEEED2Ev
FNDA:4,_ZN5boost3log11v2_mt_posix3aux14light_functionIFbRKNS1_19attribute_value_setEEE5clearEv
FNF:8
FNH:8
DA:87,8
DA:89,8
DA:108,8
DA:110,8
DA:112,8
DA:122,8
DA:124,8
DA:125,8
DA:126,4
DA:128,4
DA:130,6688
DA:132,6688
DA:165,4
DA:166,4
DA:168,4
DA:194,4
DA:196,4
DA:197,4
DA:250,4
DA:252,4
DA:254,4
DA:255,4
DA:257,4
LF:23
LH:23
end_of_record
SF:/home/bruce/work/lib/boost_1_54_0/boost/log/detail/light_rw_mutex.hpp
FN:142,_ZN5boost3log11v2_mt_posix3aux14light_rw_mutex11lock_sharedEv
FN:146,_ZN5boost3log11v2_mt_posix3aux14light_rw_mutex13unlock_sharedEv
FNDA:0,_ZN5boost3log11v2_mt_posix3aux14light_rw_mutex11lock_sharedEv
FNDA:0,_ZN5boost3log11v2_mt_posix3aux14light_rw_mutex13unlock_sharedEv
FNF:2
FNH:0
DA:142,0
DA:144,0
DA:145,0
DA:146,0
DA:148,0
DA:149,0
LF:6
LH:0
end_of_record
SF:/home/bruce/work/lib/boost_1_54_0/boost/log/detail/locks.hpp
FN:56,_ZN5boost3log11v2_mt_posix7no_lockINS1_7sources18multi_thread_modelINS1_3aux14light_rw_mutexEEEEC2ERS7_
FN:120,_ZN5boost3log11v2_mt_posix3aux17shared_lock_guardINS1_7sources18multi_thread_modelINS2_14light_rw_mutexEEEEC2ERS7_
FN:124,_ZN5boost3log11v2_mt_posix3aux17shared_lock_guardINS1_7sources18multi_thread_modelINS2_14light_rw_mutexEEEED2Ev
FNDA:0,_ZN5boost3log11v2_mt_posix7no_lockINS1_7sources18multi_thread_modelINS1_3aux14light_rw_mutexEEEEC2ERS7_
FNDA:0,_ZN5boost3log11v2_mt_posix3aux17shared_lock_guardINS1_7sources18multi_thread_modelINS2_14light_rw_mutexEEEEC2ERS7_
FNDA:0,_ZN5boost3log11v2_mt_posix3aux17shared_lock_guardINS1_7sources18multi_thread_modelINS2_14light_rw_mutexEEEED2Ev
FNF:3
FNH:0
DA:56,0
DA:120,0
DA:122,0
DA:123,0
DA:124,0
DA:126,0
DA:127,0
LF:7
LH:0
end_of_record
SF:/home/bruce/work/lib/boost_1_54_0/boost/log/detail/trivial_keyword.hpp
FN:33,_ZN5boost3log11v2_mt_posix7trivial3tag8severity8get_nameEv
FNDA:4,_ZN5boost3log11v2_mt_posix7trivial3tag8severity8get_nameEv
FNF:1
FNH:1
DA:33,4
LF:1
LH:1
end_of_record
SF:/home/bruce/work/lib/boost_1_54_0/boost/log/expressions/attr.hpp
FN:49,_ZN5boost3log11v2_mt_posix11expressions18attribute_terminalINS1_7trivial14severity_levelENS1_16fallback_to_noneENS4_3tag8severityEEC2ERKS9_
FN:104,_ZN5boost3log11v2_mt_posix11expressions18attribute_terminalINS1_7trivial14severity_levelENS1_16fallback_to_noneENS4_3tag8severityEEC2ERKNS1_14attribute_nameE
FN:147,_ZNK5boost3log11v2_mt_posix11expressions18attribute_terminalINS1_7trivial14severity_levelENS1_16fallback_to_noneENS4_3tag8severityEEclINS_7phoenix7vector2IRNSC_IPKNSB_5actorINS_5proto7exprns_4exprINSE_6tagns_3tag13greater_equalENSE_7argsns_5list2INS2_15attribute_actorIS5_S6_S8_SD_EENSD_INSG_INSI_8terminalENSK_4termIS5_EELl0EEEEEEELl2EEEEERKNS1_19attribute_value_setEEERKNSB_15default_actionsEEEEENS9_6resultIFKS9_RKT_EE4typeES1B_
FN:159,_ZN5boost3log11v2_mt_posix11expressions15attribute_actorINS1_7trivial14severity_levelENS1_16fallback_to_noneENS4_3tag8severityENS_7phoenix5actorEEC2ERKSB_
FN:177,_ZN5boost3log11v2_mt_posix11expressions15attribute_actorINS1_7trivial14severity_levelENS1_16fallback_to_noneENS4_3tag8severityENS_7phoenix5actorEEC2ERKNSA_INS2_18attribute_terminalIS5_S6_S8_EEEE
FNDA:16,_ZN5boost3log11v2_mt_posix11expressions18attribute_terminalINS1_7trivial14severity_levelENS1_16fallback_to_noneENS4_3tag8severityEEC2ERKS9_
FNDA:4,_ZN5boost3log11v2_mt_posix11expressions18attribute_terminalINS1_7trivial14severity_levelENS1_16fallback_to_noneENS4_3tag8severityEEC2ERKNS1_14attribute_nameE
FNDA:6688,_ZNK5boost3log11v2_mt_posix11expressions18attribute_terminalINS1_7trivial14severity_levelENS1_16fallback_to_noneENS4_3tag8severityEEclINS_7phoenix7vector2IRNSC_IPKNSB_5actorINS_5proto7exprns_4exprINSE_6tagns_3tag13greater_equalENSE_7argsns_5list2INS2_15attribute_actorIS5_S6_S8_SD_EENSD_INSG_INSI_8terminalENSK_4termIS5_EELl0EEEEEEELl2EEEEERKNS1_19attribute_value_setEEERKNSB_15default_actionsEEEEENS9_6resultIFKS9_RKT_EE4typeES1B_
FNDA:12,_ZN5boost3log11v2_mt_posix11expressions15attribute_actorINS1_7trivial14severity_levelENS1_16fallback_to_noneENS4_3tag8severityENS_7phoenix5actorEEC2ERKSB_
FNDA:4,_ZN5boost3log11v2_mt_posix11expressions15attribute_actorINS1_7trivial14severity_levelENS1_16fallback_to_noneENS4_3tag8severityENS_7phoenix5actorEEC2ERKNSA_INS2_18attribute_terminalIS5_S6_S8_EEEE
FNF:5
FNH:5
DA:49,16
DA:104,4
DA:106,4
DA:147,6688
DA:149,6688
DA:159,12
DA:177,4
DA:179,4
LF:8
LH:8
end_of_record
SF:/home/bruce/work/lib/boost_1_54_0/boost/log/expressions/filter.hpp
FN:37,_ZN5boost3log11v2_mt_posix6filterD2Ev
FN:85,_ZN5boost3log11v2_mt_posix6filterC2INS_7phoenix5actorINS_5proto7exprns_4exprINS6_6tagns_3tag13greater_equalENS6_7argsns_5list2INS1_11expressions15attribute_actorINS1_7trivial14severity_levelENS1_16fallback_to_noneENSG_3tag8severityES5_EENS5_INS8_INSA_8terminalENSC_4termISH_EELl0EEEEEEELl2EEEEEEERKT_
FNDA:4,_ZN5boost3log11v2_mt_posix6filterD2Ev
FNDA:4,_ZN5boost3log11v2_mt_posix6filterC2INS_7phoenix5actorINS_5proto7exprns_4exprINS6_6tagns_3tag13greater_equalENS6_7argsns_5list2INS1_11expressions15attribute_actorINS1_7trivial14severity_levelENS1_16fallback_to_noneENSG_3tag8severityES5_EENS5_INS8_INSA_8terminalENSC_4termISH_EELl0EEEEEEELl2EEEEEEERKT_
FNF:2
FNH:2
DA:37,4
DA:85,4
DA:90,4
DA:92,4
LF:4
LH:4
end_of_record
SF:/home/bruce/work/lib/boost_1_54_0/boost/log/expressions/keyword.hpp
FN:63,_ZN5boost3log11v2_mt_posix11expressions17attribute_keywordINS1_7trivial3tag8severityENS_7phoenix5actorEE8get_nameEv
FN:74,_ZN5boost3log11v2_mt_posix11expressions17attribute_keywordINS1_7trivial3tag8severityENS_7phoenix5actorEE7or_noneEv
FN:137,_ZNK5boost5proto6detail8protoifyINS_3log11v2_mt_posix11expressions17attribute_keywordINS4_7trivial3tag8severityENS_7phoenix5actorEEENSA_14phoenix_domainEEclERKSC_
FNDA:4,_ZN5boost3log11v2_mt_posix11expressions17attribute_keywordINS1_7trivial3tag8severityENS_7phoenix5actorEE8get_nameEv
FNDA:4,_ZN5boost3log11v2_mt_posix11expressions17attribute_keywordINS1_7trivial3tag8severityENS_7phoenix5actorEE7or_noneEv
FNDA:4,_ZNK5boost5proto6detail8protoifyINS_3log11v2_mt_posix11expressions17attribute_keywordINS4_7trivial3tag8severityENS_7phoenix5actorEEENSA_14phoenix_domainEEclERKSC_
FNF:3
FNH:3
DA:63,4
DA:74,4
DA:77,4
DA:78,4
DA:137,4
DA:139,4
LF:6
LH:6
end_of_record
SF:/home/bruce/work/lib/boost_1_54_0/boost/log/sources/basic_logger.hpp
FN:180,_ZNK5boost3log11v2_mt_posix7sources12basic_loggerIcNS2_18severity_logger_mtINS1_7trivial14severity_levelEEENS2_18multi_thread_modelINS1_3aux14light_rw_mutexEEEE4coreEv
FN:192,_ZN5boost3log11v2_mt_posix7sources12basic_loggerIcNS2_18severity_logger_mtINS1_7trivial14severity_levelEEENS2_18multi_thread_modelINS1_3aux14light_rw_mutexEEEE19get_threading_modelEv
FN:258,_ZN5boost3log11v2_mt_posix7sources12basic_loggerIcNS2_18severity_logger_mtINS1_7trivial14severity_levelEEENS2_18multi_thread_modelINS1_3aux14light_rw_mutexEEEE20open_record_unlockedINS_9parameter3aux15tagged_argumentINS1_8keywords3tag8severityEKS6_EEEENS1_6recordERKT_
FN:266,_ZN5boost3log11v2_mt_posix7sources12basic_loggerIcNS2_18severity_logger_mtINS1_7trivial14severity_levelEEENS2_18multi_thread_modelINS1_3aux14light_rw_mutexEEEE20push_record_unlockedEONS1_6recordE
FN:454,_ZN5boost3log11v2_mt_posix7sources22basic_composite_loggerIcNS2_18severity_logger_mtINS1_7trivial14severity_levelEEENS2_18multi_thread_modelINS1_3aux14light_rw_mutexEEENS2_8featuresIINS2_8severityIS6_EEEEEE11open_recordINS_9parameter3aux15tagged_argumentINS1_8keywords3tag8severityEKS6_EEEENS1_6recordERKT_
FN:470,_ZN5boost3log11v2_mt_posix7sources22basic_composite_loggerIcNS2_18severity_logger_mtINS1_7trivial14severity_levelEEENS2_18multi_thread_modelINS1_3aux14light_rw_mutexEEENS2_8featuresIINS2_8severityIS6_EEEEEE11push_recordEONS1_6recordE
FNDA:0,_ZNK5boost3log11v2_mt_posix7sources12basic_loggerIcNS2_18severity_logger_mtINS1_7trivial14severity_levelEEENS2_18multi_thread_modelINS1_3aux14light_rw_mutexEEEE4coreEv
FNDA:0,_ZN5boost3log11v2_mt_posix7sources12basic_loggerIcNS2_18severity_logger_mtINS1_7trivial14severity_levelEEENS2_18multi_thread_modelINS1_3aux14light_rw_mutexEEEE19get_threading_modelEv
FNDA:0,_ZN5boost3log11v2_mt_posix7sources12basic_loggerIcNS2_18severity_logger_mtINS1_7trivial14severity_levelEEENS2_18multi_thread_modelINS1_3aux14light_rw_mutexEEEE20open_record_unlockedINS_9parameter3aux15tagged_argumentINS1_8keywords3tag8severityEKS6_EEEENS1_6recordERKT_
FNDA:0,_ZN5boost3log11v2_mt_posix7sources12basic_loggerIcNS2_18severity_logger_mtINS1_7trivial14severity_levelEEENS2_18multi_thread_modelINS1_3aux14light_rw_mutexEEEE20push_record_unlockedEONS1_6recordE
FNDA:0,_ZN5boost3log11v2_mt_posix7sources22basic_composite_loggerIcNS2_18severity_logger_mtINS1_7trivial14severity_levelEEENS2_18multi_thread_modelINS1_3aux14light_rw_mutexEEENS2_8featuresIINS2_8severityIS6_EEEEEE11open_recordINS_9parameter3aux15tagged_argumentINS1_8keywords3tag8severityEKS6_EEEENS1_6recordERKT_
FNDA:0,_ZN5boost3log11v2_mt_posix7sources22basic_composite_loggerIcNS2_18severity_logger_mtINS1_7trivial14severity_levelEEENS2_18multi_thread_modelINS1_3aux14light_rw_mutexEEENS2_8featuresIINS2_8severityIS6_EEEEEE11push_recordEONS1_6recordE
FNF:6
FNH:0
DA:180,0
DA:192,0
DA:258,0
DA:260,0
DA:266,0
DA:268,0
DA:269,0
DA:454,0
DA:457,0
DA:459,0
DA:460,0
DA:463,0
DA:470,0
DA:472,0
DA:473,0
DA:474,0
LF:16
LH:0
end_of_record
SF:/home/bruce/work/lib/boost_1_54_0/boost/log/sources/record_ostream.hpp
FN:124,_ZN5boost3log11v2_mt_posix20basic_record_ostreamIcE10get_recordEv
FN:242,_ZN5boost3log11v2_mt_posix3aux11record_pumpINS1_7sources18severity_logger_mtINS1_7trivial14severity_levelEEEE12auto_releaseC2EPNS2_15stream_providerIcE15stream_compoundE
FN:243,_ZN5boost3log11v2_mt_posix3aux11record_pumpINS1_7sources18severity_logger_mtINS1_7trivial14severity_levelEEEE12auto_releaseD2Ev
FN:256,_ZN5boost3log11v2_mt_posix3aux11record_pumpINS1_7sources18severity_logger_mtINS1_7trivial14severity_levelEEEEC2ERS8_RNS1_6recordE
FN:272,_ZN5boost3log11v2_mt_posix3aux11record_pumpINS1_7sources18severity_logger_mtINS1_7trivial14severity_levelEEEED2Ev
FN:284,_ZNK5boost3log11v2_mt_posix3aux11record_pumpINS1_7sources18severity_logger_mtINS1_7trivial14severity_levelEEEE6streamEv
FNDA:0,_ZN5boost3log11v2_mt_posix20basic_record_ostreamIcE10get_recordEv
FNDA:0,_ZN5boost3log11v2_mt_posix3aux11record_pumpINS1_7sources18severity_logger_mtINS1_7trivial14severity_levelEEEE12auto_releaseC2EPNS2_15stream_providerIcE15stream_compoundE
FNDA:0,_ZN5boost3log11v2_mt_posix3aux11record_pumpINS1_7sources18severity_logger_mtINS1_7trivial14severity_levelEEEE12auto_releaseD2Ev
FNDA:0,_ZN5boost3log11v2_mt_posix3aux11record_pumpINS1_7sources18severity_logger_mtINS1_7trivial14severity_levelEEEEC2ERS8_RNS1_6recordE
FNDA:0,_ZN5boost3log11v2_mt_posix3aux11record_pumpINS1_7sources18severity_logger_mtINS1_7trivial14severity_levelEEEED2Ev
FNDA:0,_ZNK5boost3log11v2_mt_posix3aux11record_pumpINS1_7sources18severity_logger_mtINS1_7trivial14severity_levelEEEE6streamEv
FNF:6
FNH:0
DA:124,0
DA:126,0
DA:127,0
DA:128,0
DA:242,0
DA:243,0
DA:256,0
DA:257,0
DA:258,0
DA:259,0
DA:261,0
DA:272,0
DA:274,0
DA:276,0
DA:278,0
DA:279,0
DA:281,0
DA:284,0
DA:286,0
DA:287,0
DA:294,768
LF:21
LH:1
end_of_record
SF:/home/bruce/work/lib/boost_1_54_0/boost/log/sources/severity_feature.hpp
FN:133,_ZN5boost3log11v2_mt_posix7sources3aux14severity_levelINS1_7trivial14severity_levelEE9set_valueES6_
FN:250,_ZN5boost3log11v2_mt_posix7sources21basic_severity_loggerINS2_12basic_loggerIcNS2_18severity_logger_mtINS1_7trivial14severity_levelEEENS2_18multi_thread_modelINS1_3aux14light_rw_mutexEEEEES7_E20open_record_unlockedINS_9parameter3aux15tagged_argumentINS1_8keywords3tag8severityEKS7_EEEENS1_6recordERKT_
FNDA:0,_ZN5boost3log11v2_mt_posix7sources3aux14severity_levelINS1_7trivial14severity_levelEE9set_valueES6_
FNDA:0,_ZN5boost3log11v2_mt_posix7sources21basic_severity_loggerINS2_12basic_loggerIcNS2_18severity_logger_mtINS1_7trivial14severity_levelEEENS2_18multi_thread_modelINS1_3aux14light_rw_mutexEEEEES7_E20open_record_unlockedINS_9parameter3aux15tagged_argumentINS1_8keywords3tag8severityEKS7_EEEENS1_6recordERKT_
FNF:2
FNH:0
DA:133,0
DA:135,0
DA:136,0
DA:250,0
DA:252,0
DA:253,0
LF:6
LH:0
end_of_record
SF:/home/bruce/work/lib/boost_1_54_0/boost/log/sources/threading_models.hpp
FN:74,_ZNK5boost3log11v2_mt_posix7sources18multi_thread_modelINS1_3aux14light_rw_mutexEE11lock_sharedEv
FN:78,_ZNK5boost3log11v2_mt_posix7sources18multi_thread_modelINS1_3aux14light_rw_mutexEE13unlock_sharedEv
FNDA:0,_ZNK5boost3log11v2_mt_posix7sources18multi_thread_modelINS1_3aux14light_rw_mutexEE11lock_sharedEv
FNDA:0,_ZNK5boost3log11v2_mt_posix7sources18multi_thread_modelINS1_3aux14light_rw_mutexEE13unlock_sharedEv
FNF:2
FNH:0
DA:74,0
DA:78,0
LF:2
LH:0
end_of_record
SF:/home/bruce/work/lib/boost_1_54_0/boost/log/utility/formatting_ostream.hpp
FN:114,_ZN5boost3log11v2_mt_posix24basic_formatting_ostreamIcSt11char_traitsIcESaIcEE6sentryD2Ev
FN:120,_ZN5boost3log11v2_mt_posix24basic_formatting_ostreamIcSt11char_traitsIcESaIcEE6sentryC2ERS6_
FN:247,_ZN5boost3log11v2_mt_posix24basic_formatting_ostreamIcSt11char_traitsIcESaIcEE6streamEv
FN:316,_ZN5boost3log11v2_mt_posix24basic_formatting_ostreamIcSt11char_traitsIcESaIcEE5flushEv
FN:390,_ZN5boost3log11v2_mt_posix24basic_formatting_ostreamIcSt11char_traitsIcESaIcEElsEPKc
FN:484,_ZN5boost3log11v2_mt_posix24basic_formatting_ostreamIcSt11char_traitsIcESaIcEElsEf
FN:514,_ZN5boost3log11v2_mt_posixlsIcSt11char_traitsIcESaIcEEENS1_3aux19enable_if_char_typeIT_RNS1_24basic_formatting_ostreamIcS4_S5_EEE4typeESB_RKSbIS8_T0_T1_E
FN:549,_ZN5boost3log11v2_mt_posix24basic_formatting_ostreamIcSt11char_traitsIcESaIcEE15formatted_writeIcEERS6_PKT_l
FN:662,_ZN5boost3log11v2_mt_posixlsIcSt11char_traitsIcESaIcE12quaternion_tEERNS1_24basic_formatting_ostreamIT_T0_T1_EESC_RKT2_
FN:662,_ZN5boost3log11v2_mt_posixlsIcSt11char_traitsIcESaIcE7point_tEERNS1_24basic_formatting_ostreamIT_T0_T1_EESC_RKT2_
FNDA:0,_ZN5boost3log11v2_mt_posix24basic_formatting_ostreamIcSt11char_traitsIcESaIcEE6sentryD2Ev
FNDA:0,_ZN5boost3log11v2_mt_posix24basic_formatting_ostreamIcSt11char_traitsIcESaIcEE6sentryC2ERS6_
FNDA:0,_ZN5boost3log11v2_mt_posix24basic_formatting_ostreamIcSt11char_traitsIcESaIcEE6streamEv
FNDA:0,_ZN5boost3log11v2_mt_posix24basic_formatting_ostreamIcSt11char_traitsIcESaIcEE5flushEv
FNDA:0,_ZN5boost3log11v2_mt_posix24basic_formatting_ostreamIcSt11char_traitsIcESaIcEElsEPKc
FNDA:0,_ZN5boost3log11v2_mt_posix24basic_formatting_ostreamIcSt11char_traitsIcESaIcEElsEf
FNDA:0,_ZN5boost3log11v2_mt_posixlsIcSt11char_traitsIcESaIcEEENS1_3aux19enable_if_char_typeIT_RNS1_24basic_formatting_ostreamIcS4_S5_EEE4typeESB_RKSbIS8_T0_T1_E
FNDA:0,_ZN5boost3log11v2_mt_posix24basic_formatting_ostreamIcSt11char_traitsIcESaIcEE15formatted_writeIcEERS6_PKT_l
FNDA:0,_ZN5boost3log11v2_mt_posixlsIcSt11char_traitsIcESaIcE12quaternion_tEERNS1_24basic_formatting_ostreamIT_T0_T1_EESC_RKT2_
FNDA:0,_ZN5boost3log11v2_mt_posixlsIcSt11char_traitsIcESaIcE7point_tEERNS1_24basic_formatting_ostreamIT_T0_T1_EESC_RKT2_
FNF:10
FNH:0
DA:114,0
DA:120,0
DA:122,0
DA:247,0
DA:316,0
DA:318,0
DA:319,0
DA:390,0
DA:392,0
DA:484,0
DA:486,0
DA:487,0
DA:514,0
DA:516,0
DA:549,0
DA:551,0
DA:552,0
DA:554,0
DA:555,0
DA:557,0
DA:558,0
DA:560,0
DA:564,0
DA:566,0
DA:567,0
DA:568,0
DA:570,0
DA:572,0
DA:573,0
DA:576,0
DA:579,0
DA:662,0
DA:664,0
DA:665,0
LF:34
LH:0
end_of_record
SF:/home/bruce/work/lib/boost_1_54_0/boost/log/utility/functional/bind.hpp
FN:126,_ZN5boost3log11v2_mt_posix9binder2ndINS1_13greater_equalERKNS1_7trivial14severity_levelEEC2ERKS3_S7_
FN:129,_ZNK5boost3log11v2_mt_posix9binder2ndINS1_13greater_equalERKNS1_7trivial14severity_levelEEclIS5_EEbRKT_
FNDA:6688,_ZN5boost3log11v2_mt_posix9binder2ndINS1_13greater_equalERKNS1_7trivial14severity_levelEEC2ERKS3_S7_
FNDA:6688,_ZNK5boost3log11v2_mt_posix9binder2ndINS1_13greater_equalERKNS1_7trivial14severity_levelEEclIS5_EEbRKT_
FNF:2
FNH:2
DA:126,6688
DA:129,6688
DA:131,6688
LF:3
LH:3
end_of_record
SF:/home/bruce/work/lib/boost_1_54_0/boost/log/utility/functional/logical.hpp
FN:200,_ZNK5boost3log11v2_mt_posix13greater_equalclINS1_7trivial14severity_levelES5_EEbRKT_RKT0_
FN:207,_ZN5boost3log11v2_mt_posix13greater_equal2opINS1_7trivial14severity_levelES5_EEbRKT_RKT0_RKN4mpl_5bool_ILb0EEE
FNDA:6688,_ZNK5boost3log11v2_mt_posix13greater_equalclINS1_7trivial14severity_levelES5_EEbRKT_RKT0_
FNDA:6688,_ZN5boost3log11v2_mt_posix13greater_equal2opINS1_7trivial14severity_levelES5_EEbRKT_RKT0_RKN4mpl_5bool_ILb0EEE
FNF:2
FNH:2
DA:200,6688
DA:202,6688
DA:207,6688
DA:209,6688
LF:4
LH:4
end_of_record
SF:/home/bruce/work/lib/boost_1_54_0/boost/log/utility/intrusive_ref_counter.hpp
FN:109,_ZN5boost3log11v2_mt_posix21intrusive_ptr_releaseEPKNS1_21intrusive_ref_counterE
FNDA:0,_ZN5boost3log11v2_mt_posix21intrusive_ptr_releaseEPKNS1_21intrusive_ref_counterE
FNF:1
FNH:0
DA:109,0
DA:111,0
DA:112,0
DA:113,0
LF:4
LH:0
end_of_record
SF:/home/bruce/work/lib/boost_1_54_0/boost/log/utility/type_dispatch/static_type_dispatcher.hpp
FN:195,_ZN5boost3log11v2_mt_posix3aux22single_type_dispatcherINS1_7trivial14severity_levelEEC2INS2_21value_ref_initializerINS1_9value_refIS5_NS4_3tag8severityEEEEEEERT_
FN:204,_ZN5boost3log11v2_mt_posix3aux22single_type_dispatcherINS1_7trivial14severity_levelEE12get_callbackEPNS1_15type_dispatcherERKSt9type_info
FN:256,_ZN5boost3log11v2_mt_posix22static_type_dispatcherINS1_7trivial14severity_levelEEC2INS1_3aux21value_ref_initializerINS1_9value_refIS4_NS3_3tag8severityEEEEEEERT_
FNDA:6688,_ZN5boost3log11v2_mt_posix3aux22single_type_dispatcherINS1_7trivial14severity_levelEEC2INS2_21value_ref_initializerINS1_9value_refIS5_NS4_3tag8severityEEEEEEERT_
FNDA:13376,_ZN5boost3log11v2_mt_posix3aux22single_type_dispatcherINS1_7trivial14severity_levelEE12get_callbackEPNS1_15type_dispatcherERKSt9type_info
FNDA:6688,_ZN5boost3log11v2_mt_posix22static_type_dispatcherINS1_7trivial14severity_levelEEC2INS1_3aux21value_ref_initializerINS1_9value_refIS4_NS3_3tag8severityEEEEEEERT_
FNF:3
FNH:3
DA:195,6688
DA:198,6688
DA:200,13376
DA:202,6688
DA:204,13376
DA:206,13376
DA:208,13376
DA:209,13376
DA:212,0
DA:256,6688
DA:257,6688
DA:259,6688
LF:12
LH:11
end_of_record
SF:/home/bruce/work/lib/boost_1_54_0/boost/log/utility/type_dispatch/type_dispatcher.hpp
FN:53,_ZN5boost3log11v2_mt_posix15type_dispatcher13callback_baseC2EPvS4_
FN:59,_ZN5boost3log11v2_mt_posix15type_dispatcher13callback_baseC2INS1_7trivial14severity_levelEEEPvPFvS7_RKT_E
FN:75,_ZN5boost3log11v2_mt_posix15type_dispatcher13callback_base10trampolineINS1_3aux21value_ref_initializerINS1_9value_refINS1_7trivial14severity_levelENS8_3tag8severityEEEEES9_EEvPvRKT0_
FN:161,_ZN5boost3log11v2_mt_posix15type_dispatcherC2EPFNS2_13callback_baseEPS2_RKSt9type_infoE
FNDA:0,_ZN5boost3log11v2_mt_posix15type_dispatcher13callback_baseC2EPvS4_
FNDA:6688,_ZN5boost3log11v2_mt_posix15type_dispatcher13callback_baseC2INS1_7trivial14severity_levelEEEPvPFvS7_RKT_E
FNDA:6688,_ZN5boost3log11v2_mt_posix15type_dispatcher13callback_base10trampolineINS1_3aux21value_ref_initializerINS1_9value_refINS1_7trivial14severity_levelENS8_3tag8severityEEEEES9_EEvPvRKT0_
FNDA:6688,_ZN5boost3log11v2_mt_posix15type_dispatcherC2EPFNS2_13callback_baseEPS2_RKSt9type_infoE
FNF:4
FNH:3
DA:53,0
DA:55,0
DA:57,0
DA:59,6688
DA:60,6688
DA:70,6688
DA:71,6688
DA:72,6688
DA:75,6688
DA:77,6688
DA:78,6688
DA:161,6688
DA:163,6688
LF:13
LH:10
end_of_record
SF:/home/bruce/work/lib/boost_1_54_0/boost/log/utility/type_info_wrapper.hpp
FN:76,_ZN5boost3log11v2_mt_posix17type_info_wrapperC2Ev
FNDA:0,_ZN5boost3log11v2_mt_posix17type_info_wrapperC2Ev
FNF:1
FNH:0
DA:76,0
LF:1
LH:0
end_of_record
SF:/home/bruce/work/lib/boost_1_54_0/boost/log/utility/value_ref.hpp
FN:110,_ZN5boost3log11v2_mt_posix3aux12singular_refINS1_7trivial14severity_levelENS4_3tag8severityEEC2Ev
FN:115,_ZN5boost3log11v2_mt_posix3aux12singular_refINS1_7trivial14severity_levelENS4_3tag8severityEEC2EPKS5_
FN:227,_ZNK5boost3log11v2_mt_posix3aux12singular_refINS1_7trivial14severity_levelENS4_3tag8severityEE24apply_visitor_or_defaultINS1_9binder2ndINS1_13greater_equalERKS5_EEbEENT_11result_typeESF_RKT0_
FN:431,_ZN5boost3log11v2_mt_posix9value_refINS1_7trivial14severity_levelENS3_3tag8severityEEC2Ev
FN:442,_ZN5boost3log11v2_mt_posix9value_refINS1_7trivial14severity_levelENS3_3tag8severityEEC2IS4_EERKT_NS_9enable_ifINS_7is_sameIS9_S4_EEiE4typeE
FN:605,_ZN5boost3log11v2_mt_posixgeINS1_7trivial14severity_levelENS3_3tag8severityES4_EEbRKNS1_9value_refIT_T0_EERKT1_
FNDA:6688,_ZN5boost3log11v2_mt_posix3aux12singular_refINS1_7trivial14severity_levelENS4_3tag8severityEEC2Ev
FNDA:6688,_ZN5boost3log11v2_mt_posix3aux12singular_refINS1_7trivial14severity_levelENS4_3tag8severityEEC2EPKS5_
FNDA:6688,_ZNK5boost3log11v2_mt_posix3aux12singular_refINS1_7trivial14severity_levelENS4_3tag8severityEE24apply_visitor_or_defaultINS1_9binder2ndINS1_13greater_equalERKS5_EEbEENT_11result_typeESF_RKT0_
FNDA:6688,_ZN5boost3log11v2_mt_posix9value_refINS1_7trivial14severity_levelENS3_3tag8severityEEC2Ev
FNDA:6688,_ZN5boost3log11v2_mt_posix9value_refINS1_7trivial14severity_levelENS3_3tag8severityEEC2IS4_EERKT_NS_9enable_ifINS_7is_sameIS9_S4_EEiE4typeE
FNDA:6688,_ZN5boost3log11v2_mt_posixgeINS1_7trivial14severity_levelENS3_3tag8severityES4_EEbRKNS1_9value_refIT_T0_EERKT1_
FNF:6
FNH:6
DA:110,6688
DA:112,6688
DA:115,6688
DA:117,6688
DA:227,6688
DA:229,6688
DA:230,6688
DA:232,0
DA:431,6688
DA:442,6688
DA:443,6688
DA:445,6688
DA:605,6688
DA:607,6688
LF:14
LH:13
end_of_record
SF:/home/bruce/work/lib/boost_1_54_0/boost/move/utility.hpp
FN:138,_ZN5boost4moveIRNS_3log11v2_mt_posix6recordEEEONS_16remove_referenceIT_E4typeEOS6_
FN:176,_ZN5boost7forwardIRKNS_7phoenix5actorINS_5proto7exprns_4exprINS3_6tagns_3tag13greater_equalENS3_7argsns_5list2INS_3log11v2_mt_posix11expressions15attribute_actorINSC_7trivial14severity_levelENSC_16fallback_to_noneENSF_3tag8severityES2_EENS2_INS5_INS7_8terminalENS9_4termISG_EELl0EEEEEEELl2EEEEESU_EEOT_OT0_PNS_11move_detail11enable_if_cIXqusrNSZ_19is_lvalue_referenceISV_EE5valuesrNS11_ISX_EE5valueLb1EEvE4typeE
FNDA:0,_ZN5boost4moveIRNS_3log11v2_mt_posix6recordEEEONS_16remove_referenceIT_E4typeEOS6_
FNDA:4,_ZN5boost7forwardIRKNS_7phoenix5actorINS_5proto7exprns_4exprINS3_6tagns_3tag13greater_equalENS3_7argsns_5list2INS_3log11v2_mt_posix11expressions15attribute_actorINSC_7trivial14severity_levelENSC_16fallback_to_noneENSF_3tag8severityES2_EENS2_INS5_INS7_8terminalENS9_4termISG_EELl0EEEEEEELl2EEEEESU_EEOT_OT0_PNS_11move_detail11enable_if_cIXqusrNSZ_19is_lvalue_referenceISV_EE5valuesrNS11_ISX_EE5valueLb1EEvE4typeE
FNF:2
FNH:1
DA:138,0
DA:139,0
DA:176,4
DA:182,4
LF:4
LH:2
end_of_record
SF:/home/bruce/work/lib/boost_1_54_0/boost/noncopyable.hpp
FN:27,_ZN5boost12noncopyable_11noncopyableC2Ev
FNDA:0,_ZN5boost12noncopyable_11noncopyableC2Ev
FNF:1
FNH:0
DA:27,0
LF:1
LH:0
end_of_record
SF:/home/bruce/work/lib/boost_1_54_0/boost/parameter/aux_/default.hpp
FN:18,_ZN5boost9parameter3aux8default_INS_3log11v2_mt_posix8keywords3tag8severityENS4_7trivial14severity_levelEEC2ERS9_
FNDA:0,_ZN5boost9parameter3aux8default_INS_3log11v2_mt_posix8keywords3tag8severityENS4_7trivial14severity_levelEEC2ERS9_
FNF:1
FNH:0
DA:18,0
DA:19,0
DA:20,0
LF:3
LH:0
end_of_record
SF:/home/bruce/work/lib/boost_1_54_0/boost/parameter/aux_/tagged_argument.hpp
FN:25,_ZN5boost9parameter3aux20tagged_argument_baseC2Ev
FN:37,_ZN5boost9parameter3aux15tagged_argumentINS_3log11v2_mt_posix8keywords3tag8severityEKNS4_7trivial14severity_levelEEC2ERSA_
FN:123,_ZNK5boost9parameter3aux15tagged_argumentINS_3log11v2_mt_posix8keywords3tag8severityEKNS4_7trivial14severity_levelEEixIS9_EERSA_RKNS1_8default_IS7_T_EE
FNDA:0,_ZN5boost9parameter3aux20tagged_argument_baseC2Ev
FNDA:0,_ZN5boost9parameter3aux15tagged_argumentINS_3log11v2_mt_posix8keywords3tag8severityEKNS4_7trivial14severity_levelEEC2ERSA_
FNDA:0,_ZNK5boost9parameter3aux15tagged_argumentINS_3log11v2_mt_posix8keywords3tag8severityEKNS4_7trivial14severity_levelEEixIS9_EERSA_RKNS1_8default_IS7_T_EE
FNF:3
FNH:0
DA:25,0
DA:37,0
DA:123,0
DA:125,0
LF:4
LH:0
end_of_record
SF:/home/bruce/work/lib/boost_1_54_0/boost/parameter/keyword.hpp
FN:43,_ZNK5boost9parameter7keywordINS_3log11v2_mt_posix8keywords3tag8severityEEorINS3_7trivial14severity_levelEEENS0_3aux8default_IS6_T_EERSD_
FN:58,_ZNK5boost9parameter7keywordINS_3log11v2_mt_posix8keywords3tag8severityEEaSINS3_7trivial14severity_levelEEEKNS0_3aux3tagIS6_KT_E4typeERSE_
FNDA:0,_ZNK5boost9parameter7keywordINS_3log11v2_mt_posix8keywords3tag8severityEEorINS3_7trivial14severity_levelEEENS0_3aux8default_IS6_T_EERSD_
FNDA:0,_ZNK5boost9parameter7keywordINS_3log11v2_mt_posix8keywords3tag8severityEEaSINS3_7trivial14severity_levelEEEKNS0_3aux3tagIS6_KT_E4typeERSE_
FNF:2
FNH:0
DA:43,0
DA:45,0
DA:58,0
DA:61,0
LF:4
LH:0
end_of_record
SF:/home/bruce/work/lib/boost_1_54_0/boost/phoenix/core/actor.hpp
FN:161,_ZN5boost7phoenix5actorINS_5proto7exprns_4exprINS2_6tagns_3tag13greater_equalENS2_7argsns_5list2INS_3log11v2_mt_posix11expressions15attribute_actorINSB_7trivial14severity_levelENSB_16fallback_to_noneENSE_3tag8severityES1_EENS1_INS4_INS6_8terminalENS8_4termISF_EELl0EEEEEEELl2EEEEC2ERKSR_
FN:161,_ZN5boost7phoenix5actorINS_3log11v2_mt_posix11expressions18attribute_terminalINS3_7trivial14severity_levelENS3_16fallback_to_noneENS6_3tag8severityEEEEC2ERKSC_
FNDA:8,_ZN5boost7phoenix5actorINS_5proto7exprns_4exprINS2_6tagns_3tag13greater_equalENS2_7argsns_5list2INS_3log11v2_mt_posix11expressions15attribute_actorINSB_7trivial14severity_levelENSB_16fallback_to_noneENSE_3tag8severityES1_EENS1_INS4_INS6_8terminalENS8_4termISF_EELl0EEEEEEELl2EEEEC2ERKSR_
FNDA:16,_ZN5boost7phoenix5actorINS_3log11v2_mt_posix11expressions18attribute_terminalINS3_7trivial14severity_levelENS3_16fallback_to_noneENS6_3tag8severityEEEEC2ERKSC_
FNF:2
FNH:2
DA:161,24
DA:174,53504
LF:2
LH:2
end_of_record
SF:/home/bruce/work/lib/boost_1_54_0/boost/phoenix/core/detail/preprocessed/actor_operator_10.hpp
FN:19,_ZN5boost7phoenix5actorINS_5proto7exprns_4exprINS2_6tagns_3tag13greater_equalENS2_7argsns_5list2INS_3log11v2_mt_posix11expressions15attribute_actorINSB_7trivial14severity_levelENSB_16fallback_to_noneENSE_3tag8severityES1_EENS1_INS4_INS6_8terminalENS8_4termISF_EELl0EEEEEEELl2EEEEclINSB_19attribute_value_setEEENS0_9result_of5actorISQ_RKT_vvvvvvvvvvE4typeESY_
FNDA:6688,_ZN5boost7phoenix5actorINS_5proto7exprns_4exprINS2_6tagns_3tag13greater_equalENS2_7argsns_5list2INS_3log11v2_mt_posix11expressions15attribute_actorINSB_7trivial14severity_levelENSB_16fallback_to_noneENSE_3tag8severityES1_EENS1_INS4_INS6_8terminalENS8_4termISF_EELl0EEEEEEELl2EEEEclINSB_19attribute_value_setEEENS0_9result_of5actorISQ_RKT_vvvvvvvvvvE4typeESY_
FNF:1
FNH:1
DA:19,6688
LF:1
LH:1
end_of_record
SF:/home/bruce/work/lib/boost_1_54_0/boost/phoenix/core/environment.hpp
FN:202,_ZNK5boost7phoenix8_context4implIRNS_3log11v2_mt_posix11expressions15attribute_actorINS4_7trivial14severity_levelENS4_16fallback_to_noneENS7_3tag8severityENS0_5actorEEERNS0_7vector2IPKNSC_INS_5proto7exprns_4exprINSG_6tagns_3tag13greater_equalENSG_7argsns_5list2ISD_NSC_INSI_INSK_8terminalENSM_4termIS8_EELl0EEEEEEELl2EEEEERKNS4_19attribute_value_setEEERKNS0_15default_actionsEEclESE_S12_S15_
FN:231,_ZN5boost7phoenix7contextINS0_7vector2IPKNS0_5actorINS_5proto7exprns_4exprINS4_6tagns_3tag13greater_equalENS4_7argsns_5list2INS_3log11v2_mt_posix11expressions15attribute_actorINSD_7trivial14severity_levelENSD_16fallback_to_noneENSG_3tag8severityES3_EENS3_INS6_INS8_8terminalENSA_4termISH_EELl0EEEEEEELl2EEEEERKNSD_19attribute_value_setEEENS0_15default_actionsEEEKNS0_9result_of7contextIRT_RKT0_E4typeES14_S17_
FN:329,_ZN5boost7phoenix3envINS0_7vector2IRNS2_IPKNS0_5actorINS_5proto7exprns_4exprINS4_6tagns_3tag13greater_equalENS4_7argsns_5list2INS_3log11v2_mt_posix11expressions15attribute_actorINSD_7trivial14severity_levelENSD_16fallback_to_noneENSG_3tag8severityES3_EENS3_INS6_INS8_8terminalENSA_4termISH_EELl0EEEEEEELl2EEEEERKNSD_19attribute_value_setEEERKNS0_15default_actionsEEEEENS_6fusion9result_of4at_cIKT_Li0EE4typeERS19_
FN:389,_ZN5boost7phoenix7actionsINS0_7vector2IRNS2_IPKNS0_5actorINS_5proto7exprns_4exprINS4_6tagns_3tag13greater_equalENS4_7argsns_5list2INS_3log11v2_mt_posix11expressions15attribute_actorINSD_7trivial14severity_levelENSD_16fallback_to_noneENSG_3tag8severityES3_EENS3_INS6_INS8_8terminalENSA_4termISH_EELl0EEEEEEELl2EEEEERKNSD_19attribute_value_setEEERKNS0_15default_actionsEEEEENS_6fusion9result_of4at_cIKT_Li1EE4typeERS19_
FNDA:6688,_ZNK5boost7phoenix8_context4implIRNS_3log11v2_mt_posix11expressions15attribute_actorINS4_7trivial14severity_levelENS4_16fallback_to_noneENS7_3tag8severityENS0_5actorEEERNS0_7vector2IPKNSC_INS_5proto7exprns_4exprINSG_6tagns_3tag13greater_equalENSG_7argsns_5list2ISD_NSC_INSI_INSK_8terminalENSM_4termIS8_EELl0EEEEEEELl2EEEEERKNS4_19attribute_value_setEEERKNS0_15default_actionsEEclESE_S12_S15_
FNDA:6688,_ZN5boost7phoenix7contextINS0_7vector2IPKNS0_5actorINS_5proto7exprns_4exprINS4_6tagns_3tag13greater_equalENS4_7argsns_5list2INS_3log11v2_mt_posix11expressions15attribute_actorINSD_7trivial14severity_levelENSD_16fallback_to_noneENSG_3tag8severityES3_EENS3_INS6_INS8_8terminalENSA_4termISH_EELl0EEEEEEELl2EEEEERKNSD_19attribute_value_setEEENS0_15default_actionsEEEKNS0_9result_of7contextIRT_RKT0_E4typeES14_S17_
FNDA:13376,_ZN5boost7phoenix3envINS0_7vector2IRNS2_IPKNS0_5actorINS_5proto7exprns_4exprINS4_6tagns_3tag13greater_equalENS4_7argsns_5list2INS_3log11v2_mt_posix11expressions15attribute_actorINSD_7trivial14severity_levelENSD_16fallback_to_noneENSG_3tag8severityES3_EENS3_INS6_INS8_8terminalENSA_4termISH_EELl0EEEEEEELl2EEEEERKNSD_19attribute_value_setEEERKNS0_15default_actionsEEEEENS_6fusion9result_of4at_cIKT_Li0EE4typeERS19_
FNDA:6688,_ZN5boost7phoenix7actionsINS0_7vector2IRNS2_IPKNS0_5actorINS_5proto7exprns_4exprINS4_6tagns_3tag13greater_equalENS4_7argsns_5list2INS_3log11v2_mt_posix11expressions15attribute_actorINSD_7trivial14severity_levelENSD_16fallback_to_noneENSG_3tag8severityES3_EENS3_INS6_INS8_8terminalENSA_4termISH_EELl0EEEEEEELl2EEEEERKNSD_19attribute_value_setEEERKNS0_15default_actionsEEEEENS_6fusion9result_of4at_cIKT_Li1EE4typeERS19_
FNF:4
FNH:4
DA:202,6688
DA:208,6688
DA:209,6688
DA:231,6688
DA:233,6688
DA:234,6688
DA:329,13376
DA:331,13376
DA:389,6688
DA:391,6688
LF:10
LH:10
end_of_record
SF:/home/bruce/work/lib/boost_1_54_0/boost/phoenix/core/meta_grammar.hpp
FN:34,_ZN5boost7phoenix4evalINS0_5actorINS_5proto7exprns_4exprINS3_6tagns_3tag13greater_equalENS3_7argsns_5list2INS_3log11v2_mt_posix11expressions15attribute_actorINSC_7trivial14severity_levelENSC_16fallback_to_noneENSF_3tag8severityES2_EENS2_INS5_INS7_8terminalENS9_4termISG_EELl0EEEEEEELl2EEEEENS0_7vector2IRNST_IPKSS_RKNSC_19attribute_value_setEEERKNS0_15default_actionsEEEEENS3_7switch_INS0_12meta_grammarEFNS3_6tag_ofINS3_1_EEEvEE4implIRT_NS0_9result_of3envIRKT0_E4typeENS1F_7actionsIS1J_E4typeEE11result_typeES1E_S1J_
FN:68,_ZNK5boost7phoenix9evaluator4implIRNS0_5actorINS_5proto7exprns_4exprINS4_6tagns_3tag13greater_equalENS4_7argsns_5list2INS_3log11v2_mt_posix11expressions15attribute_actorINSD_7trivial14severity_levelENSD_16fallback_to_noneENSG_3tag8severityES3_EENS3_INS6_INS8_8terminalENSA_4termISH_EELl0EEEEEEELl2EEEEERKNS0_7vector2IRNSV_IPKST_RKNSD_19attribute_value_setEEERKNS0_15default_actionsEEENS4_6envns_9empty_envEEclESU_S18_RKS1A_
FNDA:6688,_ZNK5boost7phoenix9evaluator4implIRNS0_5actorINS_5proto7exprns_4exprINS4_6tagns_3tag13greater_equalENS4_7argsns_5list2INS_3log11v2_mt_posix11expressions15attribute_actorINSD_7trivial14severity_levelENSD_16fallback_to_noneENSG_3tag8severityES3_EENS3_INS6_INS8_8terminalENSA_4termISH_EELl0EEEEEEELl2EEEEERKNS0_7vector2IRNSV_IPKST_RKNSD_19attribute_value_setEEERKNS0_15default_actionsEEENS4_6envns_9empty_envEEclESU_S18_RKS1A_
FNDA:6688,_ZN5boost7phoenix4evalINS0_5actorINS_5proto7exprns_4exprINS3_6tagns_3tag13greater_equalENS3_7argsns_5list2INS_3log11v2_mt_posix11expressions15attribute_actorINSC_7trivial14severity_levelENSC_16fallback_to_noneENSF_3tag8severityES2_EENS2_INS5_INS7_8terminalENS9_4termISG_EELl0EEEEEEELl2EEEEENS0_7vector2IRNST_IPKSS_RKNSC_19attribute_value_setEEERKNS0_15default_actionsEEEEENS3_7switch_INS0_12meta_grammarEFNS3_6tag_ofINS3_1_EEEvEE4implIRT_NS0_9result_of3envIRKT0_E4typeENS1F_7actionsIS1J_E4typeEE11result_typeES1E_S1J_
FNF:2
FNH:2
DA:34,6688
DA:68,6688
DA:74,6688
DA:149,6688
DA:152,13376
LF:5
LH:5
end_of_record
SF:/home/bruce/work/lib/boost_1_54_0/boost/phoenix/support/preprocessed/vector_10.hpp
FN:43,_ZN5boost6fusion9extension6access13struct_memberINS_7phoenix7vector1IRKNS_3log11v2_mt_posix19attribute_value_setEEELi0EE5applyIKSB_E4callERSE_
FN:67,_ZNK5boost7phoenix7vector2IPKNS0_5actorINS_5proto7exprns_4exprINS3_6tagns_3tag13greater_equalENS3_7argsns_5list2INS_3log11v2_mt_posix11expressions15attribute_actorINSC_7trivial14severity_levelENSC_16fallback_to_noneENSF_3tag8severityES2_EENS2_INS5_INS7_8terminalENS9_4termISG_EELl0EEEEEEELl2EEEEERKNSC_19attribute_value_setEE4argsEv
FN:74,_ZN5boost6fusion9extension6access13struct_memberINS_7phoenix7vector2IRNS5_IPKNS4_5actorINS_5proto7exprns_4exprINS7_6tagns_3tag13greater_equalENS7_7argsns_5list2INS_3log11v2_mt_posix11expressions15attribute_actorINSG_7trivial14severity_levelENSG_16fallback_to_noneENSJ_3tag8severityES6_EENS6_INS9_INSB_8terminalENSD_4termISK_EELl0EEEEEEELl2EEEEERKNSG_19attribute_value_setEEERKNS4_15default_actionsEEELi1EE5applyIKS17_E4callERS1A_
FN:74,_ZN5boost6fusion9extension6access13struct_memberINS_7phoenix7vector2IRNS5_IPKNS4_5actorINS_5proto7exprns_4exprINS7_6tagns_3tag13greater_equalENS7_7argsns_5list2INS_3log11v2_mt_posix11expressions15attribute_actorINSG_7trivial14severity_levelENSG_16fallback_to_noneENSJ_3tag8severityES6_EENS6_INS9_INSB_8terminalENSD_4termISK_EELl0EEEEEEELl2EEEEERKNSG_19attribute_value_setEEERKNS4_15default_actionsEEELi0EE5applyIKS17_E4callERS1A_
FNDA:6688,_ZN5boost6fusion9extension6access13struct_memberINS_7phoenix7vector1IRKNS_3log11v2_mt_posix19attribute_value_setEEELi0EE5applyIKSB_E4callERSE_
FNDA:6688,_ZNK5boost7phoenix7vector2IPKNS0_5actorINS_5proto7exprns_4exprINS3_6tagns_3tag13greater_equalENS3_7argsns_5list2INS_3log11v2_mt_posix11expressions15attribute_actorINSC_7trivial14severity_levelENSC_16fallback_to_noneENSF_3tag8severityES2_EENS2_INS5_INS7_8terminalENS9_4termISG_EELl0EEEEEEELl2EEEEERKNSC_19attribute_value_setEE4argsEv
FNDA:6688,_ZN5boost6fusion9extension6access13struct_memberINS_7phoenix7vector2IRNS5_IPKNS4_5actorINS_5proto7exprns_4exprINS7_6tagns_3tag13greater_equalENS7_7argsns_5list2INS_3log11v2_mt_posix11expressions15attribute_actorINSG_7trivial14severity_levelENSG_16fallback_to_noneENSJ_3tag8severityES6_EENS6_INS9_INSB_8terminalENSD_4termISK_EELl0EEEEEEELl2EEEEERKNSG_19attribute_value_setEEERKNS4_15default_actionsEEELi1EE5applyIKS17_E4callERS1A_
FNDA:13376,_ZN5boost6fusion9extension6access13struct_memberINS_7phoenix7vector2IRNS5_IPKNS4_5actorINS_5proto7exprns_4exprINS7_6tagns_3tag13greater_equalENS7_7argsns_5list2INS_3log11v2_mt_posix11expressions15attribute_actorINSG_7trivial14severity_levelENSG_16fallback_to_noneENSJ_3tag8severityES6_EENS6_INS9_INSB_8terminalENSD_4termISK_EELl0EEEEEEELl2EEEEERKNSG_19attribute_value_setEEERKNS4_15default_actionsEEELi0EE5applyIKS17_E4callERS1A_
FNF:4
FNH:4
DA:43,6688
DA:67,6688
DA:69,6688
DA:70,6688
DA:74,20064
LF:5
LH:5
end_of_record
SF:/home/bruce/work/lib/boost_1_54_0/boost/proto/detail/as_expr.hpp
DA:56,8
LF:1
LH:1
end_of_record
SF:/home/bruce/work/lib/boost_1_54_0/boost/proto/detail/as_lvalue.hpp
DA:27,6688
DA:34,6696
LF:2
LH:2
end_of_record
SF:/home/bruce/work/lib/boost_1_54_0/boost/proto/detail/preprocessed/expr_variadic.hpp
FN:37,_ZN5boost5proto7exprns_4exprINS0_6tagns_3tag8terminalENS0_7argsns_4termINS_3log11v2_mt_posix11expressions18attribute_terminalINS9_7trivial14severity_levelENS9_16fallback_to_noneENSC_3tag8severityEEEEELl0EEC2ERKSJ_
FN:526,_ZN5boost5proto7exprns_4exprINS0_6tagns_3tag13greater_equalENS0_7argsns_5list2INS_3log11v2_mt_posix11expressions15attribute_actorINS9_7trivial14severity_levelENS9_16fallback_to_noneENSC_3tag8severityENS_7phoenix5actorEEENSI_INS2_INS4_8terminalENS6_4termISD_EELl0EEEEEEELl2EEC2ERKSQ_
FNDA:16,_ZN5boost5proto7exprns_4exprINS0_6tagns_3tag8terminalENS0_7argsns_4termINS_3log11v2_mt_posix11expressions18attribute_terminalINS9_7trivial14severity_levelENS9_16fallback_to_noneENSC_3tag8severityEEEEELl0EEC2ERKSJ_
FNDA:12,_ZN5boost5proto7exprns_4exprINS0_6tagns_3tag13greater_equalENS0_7argsns_5list2INS_3log11v2_mt_posix11expressions15attribute_actorINS9_7trivial14severity_levelENS9_16fallback_to_noneENSC_3tag8severityENS_7phoenix5actorEEENSI_INS2_INS4_8terminalENS6_4termISD_EELl0EEEEEEELl2EEC2ERKSQ_
FNF:2
FNH:2
DA:37,16
DA:64,13376
DA:526,12
DA:553,13376
LF:4
LH:4
end_of_record
SF:/home/bruce/work/lib/boost_1_54_0/boost/proto/detail/preprocessed/make_expr_.hpp
DA:78,4
DA:79,8
DA:80,4
LF:3
LH:3
end_of_record
SF:/home/bruce/work/lib/boost_1_54_0/boost/proto/detail/preprocessed/traits.hpp
DA:50,6688
DA:192,6688
LF:2
LH:2
end_of_record
SF:/home/bruce/work/lib/boost_1_54_0/boost/proto/expr.hpp
DA:65,4
DA:66,4
LF:2
LH:2
end_of_record
SF:/home/bruce/work/lib/boost_1_54_0/boost/proto/generate.hpp
DA:227,8
DA:228,4
LF:2
LH:2
end_of_record
SF:/home/bruce/work/lib/boost_1_54_0/boost/proto/matches.hpp
FN:575,_ZNK5boost5proto1_4implIRKNS0_7exprns_4exprINS0_6tagns_3tag8terminalENS0_7argsns_4termINS_3log11v2_mt_posix7trivial14severity_levelEEELl0EEEiNS0_6envns_9empty_envEEclESH_RKiRKSJ_
FN:575,_ZNK5boost5proto1_4implIRKNS0_7exprns_4exprINS0_6tagns_3tag13greater_equalENS0_7argsns_5list2INS_3log11v2_mt_posix11expressions15attribute_actorINSB_7trivial14severity_levelENSB_16fallback_to_noneENSE_3tag8severityENS_7phoenix5actorEEENSK_INS4_INS6_8terminalENS8_4termISF_EELl0EEEEEEELl2EEEiNS0_6envns_9empty_envEEclESU_RKiRKSW_
FNDA:4,_ZNK5boost5proto1_4implIRKNS0_7exprns_4exprINS0_6tagns_3tag8terminalENS0_7argsns_4termINS_3log11v2_mt_posix7trivial14severity_levelEEELl0EEEiNS0_6envns_9empty_envEEclESH_RKiRKSJ_
FNDA:4,_ZNK5boost5proto1_4implIRKNS0_7exprns_4exprINS0_6tagns_3tag13greater_equalENS0_7argsns_5list2INS_3log11v2_mt_posix11expressions15attribute_actorINSB_7trivial14severity_levelENSB_16fallback_to_noneENSE_3tag8severityENS_7phoenix5actorEEENSK_INS4_INS6_8terminalENS8_4termISF_EELl0EEEEEEELl2EEEiNS0_6envns_9empty_envEEclESU_RKiRKSW_
FNF:2
FNH:2
DA:575,8
DA:581,8
LF:2
LH:2
end_of_record
SF:/home/bruce/work/lib/boost_1_54_0/boost/proto/operators.hpp
DA:295,4
LF:1
LH:1
end_of_record
SF:/home/bruce/work/lib/boost_1_54_0/boost/proto/traits.hpp
DA:1124,13376
DA:1153,20064
LF:2
LH:2
end_of_record
SF:/home/bruce/work/lib/boost_1_54_0/boost/proto/transform/arg.hpp
FN:181,_ZNK5boost5proto6_value4implIRNS_3log11v2_mt_posix11expressions15attribute_actorINS4_7trivial14severity_levelENS4_16fallback_to_noneENS7_3tag8severityENS_7phoenix5actorEEERNSC_7vector2IPKNSD_INS0_7exprns_4exprINS0_6tagns_3tag13greater_equalENS0_7argsns_5list2ISE_NSD_INSI_INSK_8terminalENSM_4termIS8_EELl0EEEEEEELl2EEEEERKNS4_19attribute_value_setEEERKNSC_15default_actionsEEclESF_S12_S15_
FN:181,_ZNK5boost5proto6_value4implIRNS_7phoenix5actorINS0_7exprns_4exprINS0_6tagns_3tag8terminalENS0_7argsns_4termINS_3log11v2_mt_posix7trivial14severity_levelEEELl0EEEEERNS3_7vector2IPKNS4_INS6_INS8_13greater_equalENSA_5list2INSD_11expressions15attribute_actorISF_NSD_16fallback_to_noneENSE_3tag8severityES4_EESI_EELl2EEEEERKNSD_19attribute_value_setEEERKNS3_15default_actionsEEclESJ_S12_S15_
FNDA:6688,_ZNK5boost5proto6_value4implIRNS_3log11v2_mt_posix11expressions15attribute_actorINS4_7trivial14severity_levelENS4_16fallback_to_noneENS7_3tag8severityENS_7phoenix5actorEEERNSC_7vector2IPKNSD_INS0_7exprns_4exprINS0_6tagns_3tag13greater_equalENS0_7argsns_5list2ISE_NSD_INSI_INSK_8terminalENSM_4termIS8_EELl0EEEEEEELl2EEEEERKNS4_19attribute_value_setEEERKNSC_15default_actionsEEclESF_S12_S15_
FNDA:6688,_ZNK5boost5proto6_value4implIRNS_7phoenix5actorINS0_7exprns_4exprINS0_6tagns_3tag8terminalENS0_7argsns_4termINS_3log11v2_mt_posix7trivial14severity_levelEEELl0EEEEERNS3_7vector2IPKNS4_INS6_INS8_13greater_equalENSA_5list2INSD_11expressions15attribute_actorISF_NSD_16fallback_to_noneENSE_3tag8severityES4_EESI_EELl2EEEEERKNSD_19attribute_value_setEEERKNS3_15default_actionsEEclESJ_S12_S15_
FNF:2
FNH:2
DA:181,13376
DA:187,13376
LF:2
LH:2
end_of_record
SF:/home/bruce/work/lib/boost_1_54_0/boost/proto/transform/call.hpp
DA:182,28
DA:183,8
DA:256,20064
DA:257,20064
DA:258,6688
LF:5
LH:5
end_of_record
SF:/home/bruce/work/lib/boost_1_54_0/boost/proto/transform/default.hpp
FN:145,_ZNK5boost5proto6detail21default_greater_equalINS_7phoenix12meta_grammarEE4implIRNS3_5actorINS0_7exprns_4exprINS0_6tagns_3tag13greater_equalENS0_7argsns_5list2INS_3log11v2_mt_posix11expressions15attribute_actorINSG_7trivial14severity_levelENSG_16fallback_to_noneENSJ_3tag8severityES7_EENS7_INS9_INSB_8terminalENSD_4termISK_EELl0EEEEEEELl2EEEEERNS3_7vector2IPKSW_RKNSG_19attribute_value_setEEERKNS3_15default_actionsEEclESX_S15_S18_
FNDA:6688,_ZNK5boost5proto6detail21default_greater_equalINS_7phoenix12meta_grammarEE4implIRNS3_5actorINS0_7exprns_4exprINS0_6tagns_3tag13greater_equalENS0_7argsns_5list2INS_3log11v2_mt_posix11expressions15attribute_actorINSG_7trivial14severity_levelENSG_16fallback_to_noneENSJ_3tag8severityES7_EENS7_INS9_INSB_8terminalENSD_4termISK_EELl0EEEEEEELl2EEEEERNS3_7vector2IPKSW_RKNSG_19attribute_value_setEEERKNS3_15default_actionsEEclESX_S15_S18_
FNF:1
FNH:1
DA:145,33440
LF:1
LH:1
end_of_record
SF:/home/bruce/work/lib/boost_1_54_0/boost/proto/transform/impl.hpp
DA:255,16
LF:1
LH:1
end_of_record
SF:/home/bruce/work/lib/boost_1_54_0/boost/smart_ptr/detail/atomic_count_gcc_x86.hpp
FN:33,_ZN5boost6detail12atomic_countmmEv
FN:52,_ZN5boost6detail12atomic_count23atomic_exchange_and_addEPii
FNDA:0,_ZN5boost6detail12atomic_countmmEv
FNDA:0,_ZN5boost6detail12atomic_count23atomic_exchange_and_addEPii
FNF:2
FNH:0
DA:33,0
DA:35,0
DA:52,0
DA:67,0
DA:69,0
LF:5
LH:0
end_of_record
SF:/home/bruce/work/lib/boost_1_54_0/boost/smart_ptr/detail/operator_bool.hpp
FN:60,_ZNK5boost13intrusive_ptrINS_3log11v2_mt_posix15attribute_value4implEEntEv
FNDA:6688,_ZNK5boost13intrusive_ptrINS_3log11v2_mt_posix15attribute_value4implEEntEv
FNF:1
FNH:1
DA:60,6688
DA:62,6688
LF:2
LH:2
end_of_record
SF:/home/bruce/work/lib/boost_1_54_0/boost/smart_ptr/detail/shared_count.hpp
FN:114,_ZN5boost6detail12shared_countC2Ev
FN:121,_ZN5boost6detail12shared_countC2INS_9unit_test9ut_detail16callback0_impl_tINS4_6unusedEPFvvEEEEEPT_
FN:369,_ZN5boost6detail12shared_countD2Ev
FN:414,_ZN5boost6detail12shared_count4swapERS1_
FNDA:972,_ZN5boost6detail12shared_countC2Ev
FNDA:32,_ZN5boost6detail12shared_countC2INS_9unit_test9ut_detail16callback0_impl_tINS4_6unusedEPFvvEEEEEPT_
FNDA:1028,_ZN5boost6detail12shared_countD2Ev
FNDA:32,_ZN5boost6detail12shared_count4swapERS1_
FNF:4
FNH:4
DA:114,972
DA:119,972
DA:121,32
DA:130,32
DA:132,=====
DA:134,=====
DA:135,=====
DA:149,32
DA:369,1028
DA:371,1028
DA:375,1028
DA:414,32
DA:416,32
DA:417,32
DA:418,32
DA:419,32
LF:16
LH:13
end_of_record
SF:/home/bruce/work/lib/boost_1_54_0/boost/smart_ptr/detail/sp_counted_base_gcc_x86.hpp
FN:35,_ZN5boost6detail23atomic_exchange_and_addEPii
FN:109,_ZN5boost6detail15sp_counted_baseC2Ev
FN:113,_ZN5boost6detail15sp_counted_baseD2Ev
FN:113,_ZN5boost6detail15sp_counted_baseD0Ev
FN:124,_ZN5boost6detail15sp_counted_base7destroyEv
FN:142,_ZN5boost6detail15sp_counted_base7releaseEv
FN:156,_ZN5boost6detail15sp_counted_base12weak_releaseEv
FNDA:172,_ZN5boost6detail23atomic_exchange_and_addEPii
FNDA:32,_ZN5boost6detail15sp_counted_baseC2Ev
FNDA:0,_ZN5boost6detail15sp_counted_baseD0Ev
FNDA:32,_ZN5boost6detail15sp_counted_baseD2Ev
FNDA:104,_ZN5boost6detail15sp_counted_base7destroyEv
FNDA:168,_ZN5boost6detail15sp_counted_base7releaseEv
FNDA:4,_ZN5boost6detail15sp_counted_base12weak_releaseEv
FNF:7
FNH:6
DA:35,172
DA:50,172
DA:52,172
DA:109,32
DA:111,32
DA:113,32
DA:114,32
DA:115,32
DA:124,104
DA:126,104
DA:127,104
DA:142,168
DA:144,168
DA:146,4
DA:147,4
DA:149,168
DA:156,4
DA:158,4
DA:160,4
DA:162,4
LF:20
LH:20
end_of_record
SF:/home/bruce/work/lib/boost_1_54_0/boost/smart_ptr/detail/sp_counted_impl.hpp
FN:53,_ZN5boost6detail17sp_counted_impl_pINS_9unit_test9ut_detail16callback0_impl_tINS3_6unusedEPFvvEEEED0Ev
FN:53,_ZN5boost6detail17sp_counted_impl_pINS_9unit_test9ut_detail16callback0_impl_tINS3_6unusedEPFvvEEEED2Ev
FN:66,_ZN5boost6detail17sp_counted_impl_pINS_9unit_test9ut_detail16callback0_impl_tINS3_6unusedEPFvvEEEEC2EPS8_
FN:73,_ZN5boost6detail17sp_counted_impl_pINS_9unit_test9ut_detail16callback0_impl_tINS3_6unusedEPFvvEEEE7disposeEv
FN:81,_ZN5boost6detail17sp_counted_impl_pINS_9unit_test9ut_detail16callback0_impl_tINS3_6unusedEPFvvEEEE11get_deleterERKSt9type_info
FN:86,_ZN5boost6detail17sp_counted_impl_pINS_9unit_test9ut_detail16callback0_impl_tINS3_6unusedEPFvvEEEE19get_untyped_deleterEv
FNDA:32,_ZN5boost6detail17sp_counted_impl_pINS_9unit_test9ut_detail16callback0_impl_tINS3_6unusedEPFvvEEEED0Ev
FNDA:32,_ZN5boost6detail17sp_counted_impl_pINS_9unit_test9ut_detail16callback0_impl_tINS3_6unusedEPFvvEEEED2Ev
FNDA:32,_ZN5boost6detail17sp_counted_impl_pINS_9unit_test9ut_detail16callback0_impl_tINS3_6unusedEPFvvEEEEC2EPS8_
FNDA:32,_ZN5boost6detail17sp_counted_impl_pINS_9unit_test9ut_detail16callback0_impl_tINS3_6unusedEPFvvEEEE7disposeEv
FNDA:0,_ZN5boost6detail17sp_counted_impl_pINS_9unit_test9ut_detail16callback0_impl_tINS3_6unusedEPFvvEEEE11get_deleterERKSt9type_info
FNDA:0,_ZN5boost6detail17sp_counted_impl_pINS_9unit_test9ut_detail16callback0_impl_tINS3_6unusedEPFvvEEEE19get_untyped_deleterEv
FNF:6
FNH:4
DA:53,64
DA:66,32
DA:71,32
DA:73,32
DA:78,32
DA:79,32
DA:81,0
DA:83,0
DA:86,0
DA:88,0
LF:10
LH:6
end_of_record
SF:/home/bruce/work/lib/boost_1_54_0/boost/smart_ptr/intrusive_ptr.hpp
FN:62,_ZN5boost13intrusive_ptrINS_3log11v2_mt_posix15attribute_value4implEEC2Ev
FN:95,_ZN5boost13intrusive_ptrINS_3log11v2_mt_posix15attribute_value4implEED2Ev
FN:149,_ZNK5boost13intrusive_ptrINS_3log11v2_mt_posix15attribute_value4implEE3getEv
FN:160,_ZNK5boost13intrusive_ptrINS_3log11v2_mt_posix15attribute_value4implEEptEv
FNDA:0,_ZN5boost13intrusive_ptrINS_3log11v2_mt_posix15attribute_value4implEEC2Ev
FNDA:0,_ZN5boost13intrusive_ptrINS_3log11v2_mt_posix15attribute_value4implEED2Ev
FNDA:6688,_ZNK5boost13intrusive_ptrINS_3log11v2_mt_posix15attribute_value4implEE3getEv
FNDA:6688,_ZNK5boost13intrusive_ptrINS_3log11v2_mt_posix15attribute_value4implEEptEv
FNF:4
FNH:2
DA:62,0
DA:64,0
DA:95,0
DA:97,0
DA:98,0
DA:149,6688
DA:151,6688
DA:160,6688
DA:162,6688
DA:163,6688
LF:10
LH:5
end_of_record
SF:/home/bruce/work/lib/boost_1_54_0/boost/smart_ptr/shared_ptr.hpp
FN:233,_ZN5boost6detail26sp_enable_shared_from_thisEz
FN:274,_ZN5boost6detail20sp_pointer_constructINS_9unit_test9ut_detail14callback0_implINS3_6unusedEEENS3_16callback0_impl_tIS5_PFvvEEEEEvPNS_10shared_ptrIT_EEPT0_RNS0_12shared_countE
FN:328,_ZN5boost10shared_ptrINS_23basic_wrap_stringstreamIcEEED2Ev
FN:328,_ZN5boost10shared_ptrINS_3log11v2_mt_posix4coreEED2Ev
FN:328,_ZN5boost10shared_ptrINS_9unit_test9ut_detail14callback0_implINS2_6unusedEEEED2Ev
FN:339,_ZN5boost10shared_ptrINS_23basic_wrap_stringstreamIcEEEC2Ev
FN:352,_ZN5boost10shared_ptrINS_9unit_test9ut_detail14callback0_implINS2_6unusedEEEEC2INS2_16callback0_impl_tIS4_PFvvEEEEEPT_
FN:651,_ZNK5boost10shared_ptrINS_3log11v2_mt_posix4coreEEptEv
FNDA:32,_ZN5boost6detail26sp_enable_shared_from_thisEz
FNDA:32,_ZN5boost6detail20sp_pointer_constructINS_9unit_test9ut_detail14callback0_implINS3_6unusedEEENS3_16callback0_impl_tIS5_PFvvEEEEEvPNS_10shared_ptrIT_EEPT0_RNS0_12shared_countE
FNDA:32,_ZN5boost10shared_ptrINS_9unit_test9ut_detail14callback0_implINS2_6unusedEEEED2Ev
FNDA:940,_ZN5boost10shared_ptrINS_23basic_wrap_stringstreamIcEEED2Ev
FNDA:8,_ZN5boost10shared_ptrINS_3log11v2_mt_posix4coreEED2Ev
FNDA:940,_ZN5boost10shared_ptrINS_23basic_wrap_stringstreamIcEEEC2Ev
FNDA:32,_ZN5boost10shared_ptrINS_9unit_test9ut_detail14callback0_implINS2_6unusedEEEEC2INS2_16callback0_impl_tIS4_PFvvEEEEEPT_
FNDA:0,_ZNK5boost10shared_ptrINS_3log11v2_mt_posix4coreEEptEv
FNF:8
FNH:7
DA:233,32
DA:235,32
DA:274,32
DA:276,32
DA:277,32
DA:278,32
DA:328,980
DA:339,940
DA:341,940
DA:352,32
DA:354,32
DA:355,32
DA:651,0
DA:653,0
DA:654,0
LF:15
LH:12
end_of_record
SF:/home/bruce/work/lib/boost_1_54_0/boost/test/predicate_result.hpp
FN:42,_ZN5boost10test_tools16predicate_resultD2Ev
FN:49,_ZN5boost10test_tools16predicate_resultC2Eb
FN:62,_ZN5boost10test_tools16predicate_result19readonly_property62C2Eb
FNDA:940,_ZN5boost10test_tools16predicate_resultD2Ev
FNDA:940,_ZN5boost10test_tools16predicate_resultC2Eb
FNDA:940,_ZN5boost10test_tools16predicate_result19readonly_property62C2Eb
FNF:3
FNH:3
DA:42,940
DA:49,940
DA:50,940
DA:51,940
DA:62,940
LF:5
LH:5
end_of_record
SF:/home/bruce/work/lib/boost_1_54_0/boost/test/test_observer.hpp
FN:35,_ZN5boost9unit_test13test_observerC2Ev
FN:38,_ZN5boost9unit_test13test_observer10test_startEm
FN:39,_ZN5boost9unit_test13test_observer11test_finishEv
FN:40,_ZN5boost9unit_test13test_observer12test_abortedEv
FN:42,_ZN5boost9unit_test13test_observer15test_unit_startERKNS0_9test_unitE
FN:43,_ZN5boost9unit_test13test_observer16test_unit_finishERKNS0_9test_unitEm
FN:44,_ZN5boost9unit_test13test_observer17test_unit_skippedERKNS0_9test_unitE
FN:45,_ZN5boost9unit_test13test_observer17test_unit_abortedERKNS0_9test_unitE
FN:47,_ZN5boost9unit_test13test_observer16assertion_resultEb
FN:48,_ZN5boost9unit_test13test_observer16exception_caughtERKNS_19execution_exceptionE
FN:50,_ZN5boost9unit_test13test_observer8priorityEv
FN:53,_ZN5boost9unit_test13test_observerD0Ev
FN:53,_ZN5boost9unit_test13test_observerD2Ev
FNDA:0,_ZN5boost9unit_test13test_observerC2Ev
FNDA:0,_ZN5boost9unit_test13test_observer10test_startEm
FNDA:0,_ZN5boost9unit_test13test_observer11test_finishEv
FNDA:0,_ZN5boost9unit_test13test_observer12test_abortedEv
FNDA:0,_ZN5boost9unit_test13test_observer15test_unit_startERKNS0_9test_unitE
FNDA:0,_ZN5boost9unit_test13test_observer16test_unit_finishERKNS0_9test_unitEm
FNDA:0,_ZN5boost9unit_test13test_observer17test_unit_skippedERKNS0_9test_unitE
FNDA:0,_ZN5boost9unit_test13test_observer17test_unit_abortedERKNS0_9test_unitE
FNDA:0,_ZN5boost9unit_test13test_observer16assertion_resultEb
FNDA:0,_ZN5boost9unit_test13test_observer16exception_caughtERKNS_19execution_exceptionE
FNDA:20,_ZN5boost9unit_test13test_observer8priorityEv
FNDA:0,_ZN5boost9unit_test13test_observerD0Ev
FNDA:0,_ZN5boost9unit_test13test_observerD2Ev
FNF:13
FNH:1
DA:35,0
DA:38,0
DA:39,0
DA:40,0
DA:42,0
DA:43,0
DA:44,0
DA:45,0
DA:47,0
DA:48,0
DA:50,20
DA:53,0
LF:12
LH:1
end_of_record
SF:/home/bruce/work/lib/boost_1_54_0/boost/test/unit_test.hpp
FN:57,main
FNDA:4,main
FNF:1
FNH:1
DA:57,4
DA:59,4
LF:2
LH:2
end_of_record
SF:/home/bruce/work/lib/boost_1_54_0/boost/test/unit_test_log.hpp
FN:93,_ZN5boost9unit_test15unit_test_log_tD0Ev
FN:93,_ZN5boost9unit_test15unit_test_log_tD2Ev
FN:131,_ZN5boost9unit_test15unit_test_log_tC2Ev
FNDA:0,_ZN5boost9unit_test15unit_test_log_tD0Ev
FNDA:0,_ZN5boost9unit_test15unit_test_log_tD2Ev
FNDA:0,_ZN5boost9unit_test15unit_test_log_tC2Ev
FNF:3
FNH:0
DA:93,0
DA:131,0
DA:134,4
LF:3
LH:1
end_of_record
SF:/home/bruce/work/lib/boost_1_54_0/boost/test/unit_test_suite.hpp
FN:220,_Z14init_unit_testv
FNDA:4,_Z14init_unit_testv
FNF:1
FNH:1
DA:220,4
DA:228,4
DA:233,4
LF:3
LH:3
end_of_record
SF:/home/bruce/work/lib/boost_1_54_0/boost/test/unit_test_suite_impl.hpp
FN:253,_ZN5boost9unit_test14make_test_caseERKNS0_9callback0INS0_9ut_detail6unusedEEENS0_13basic_cstringIKcEE
FN:294,_ZN5boost9unit_test9ut_detail16auto_tc_exp_failIN20physics_engine_tests41void_all_collisions_with_in_steps_test_idEEC2Ev
FN:294,_ZN5boost9unit_test9ut_detail16auto_tc_exp_failIN20physics_engine_tests26apply_acceleration_test_idEEC2Ev
FN:294,_ZN5boost9unit_test9ut_detail16auto_tc_exp_failIN20physics_engine_tests21get_collision_test_idEEC2Ev
FN:294,_ZN5boost9unit_test9ut_detail16auto_tc_exp_failIN20physics_engine_tests19apply_force_test_idEEC2Ev
FN:294,_ZN5boost9unit_test9ut_detail16auto_tc_exp_failIN20physics_engine_tests12ctor_test_idEEC2Ev
FN:294,_ZN5boost9unit_test9ut_detail16auto_tc_exp_failIN20physics_engine_tests18add_object_test_idEEC2Ev
FN:294,_ZN5boost9unit_test9ut_detail16auto_tc_exp_failIN20physics_engine_tests21remove_object_test_idEEC2Ev
FN:294,_ZN5boost9unit_test9ut_detail16auto_tc_exp_failIN20physics_engine_tests26scene_to_triangles_test_idEEC2Ev
FN:302,_ZN5boost9unit_test9ut_detail16auto_tc_exp_failIN20physics_engine_tests26apply_acceleration_test_idEE8instanceEv
FN:302,_ZN5boost9unit_test9ut_detail16auto_tc_exp_failIN20physics_engine_tests26scene_to_triangles_test_idEE8instanceEv
FN:302,_ZN5boost9unit_test9ut_detail16auto_tc_exp_failIN20physics_engine_tests12ctor_test_idEE8instanceEv
FN:302,_ZN5boost9unit_test9ut_detail16auto_tc_exp_failIN20physics_engine_tests21remove_object_test_idEE8instanceEv
FN:302,_ZN5boost9unit_test9ut_detail16auto_tc_exp_failIN20physics_engine_tests41void_all_collisions_with_in_steps_test_idEE8instanceEv
FN:302,_ZN5boost9unit_test9ut_detail16auto_tc_exp_failIN20physics_engine_tests19apply_force_test_idEE8instanceEv
FN:302,_ZN5boost9unit_test9ut_detail16auto_tc_exp_failIN20physics_engine_tests18add_object_test_idEE8instanceEv
FN:302,_ZN5boost9unit_test9ut_detail16auto_tc_exp_failIN20physics_engine_tests21get_collision_test_idEE8instanceEv
FN:310,_ZNK5boost9unit_test9ut_detail16auto_tc_exp_failIN20physics_engine_tests26apply_acceleration_test_idEE5valueEv
FN:310,_ZNK5boost9unit_test9ut_detail16auto_tc_exp_failIN20physics_engine_tests21remove_object_test_idEE5valueEv
FN:310,_ZNK5boost9unit_test9ut_detail16auto_tc_exp_failIN20physics_engine_tests21get_collision_test_idEE5valueEv
FN:310,_ZNK5boost9unit_test9ut_detail16auto_tc_exp_failIN20physics_engine_tests12ctor_test_idEE5valueEv
FN:310,_ZNK5boost9unit_test9ut_detail16auto_tc_exp_failIN20physics_engine_tests18add_object_test_idEE5valueEv
FN:310,_ZNK5boost9unit_test9ut_detail16auto_tc_exp_failIN20physics_engine_tests19apply_force_test_idEE5valueEv
FN:310,_ZNK5boost9unit_test9ut_detail16auto_tc_exp_failIN20physics_engine_tests26scene_to_triangles_test_idEE5valueEv
FN:310,_ZNK5boost9unit_test9ut_detail16auto_tc_exp_failIN20physics_engine_tests41void_all_collisions_with_in_steps_test_idEE5valueEv
FNDA:32,_ZN5boost9unit_test14make_test_caseERKNS0_9callback0INS0_9ut_detail6unusedEEENS0_13basic_cstringIKcEE
FNDA:4,_ZN5boost9unit_test9ut_detail16auto_tc_exp_failIN20physics_engine_tests41void_all_collisions_with_in_steps_test_idEEC2Ev
FNDA:4,_ZN5boost9unit_test9ut_detail16auto_tc_exp_failIN20physics_engine_tests21get_collision_test_idEEC2Ev
FNDA:4,_ZN5boost9unit_test9ut_detail16auto_tc_exp_failIN20physics_engine_tests26apply_acceleration_test_idEEC2Ev
FNDA:4,_ZN5boost9unit_test9ut_detail16auto_tc_exp_failIN20physics_engine_tests19apply_force_test_idEEC2Ev
FNDA:4,_ZN5boost9unit_test9ut_detail16auto_tc_exp_failIN20physics_engine_tests26scene_to_triangles_test_idEEC2Ev
FNDA:4,_ZN5boost9unit_test9ut_detail16auto_tc_exp_failIN20physics_engine_tests21remove_object_test_idEEC2Ev
FNDA:4,_ZN5boost9unit_test9ut_detail16auto_tc_exp_failIN20physics_engine_tests18add_object_test_idEEC2Ev
FNDA:4,_ZN5boost9unit_test9ut_detail16auto_tc_exp_failIN20physics_engine_tests12ctor_test_idEEC2Ev
FNDA:4,_ZN5boost9unit_test9ut_detail16auto_tc_exp_failIN20physics_engine_tests41void_all_collisions_with_in_steps_test_idEE8instanceEv
FNDA:4,_ZN5boost9unit_test9ut_detail16auto_tc_exp_failIN20physics_engine_tests21get_collision_test_idEE8instanceEv
FNDA:4,_ZN5boost9unit_test9ut_detail16auto_tc_exp_failIN20physics_engine_tests26apply_acceleration_test_idEE8instanceEv
FNDA:4,_ZN5boost9unit_test9ut_detail16auto_tc_exp_failIN20physics_engine_tests19apply_force_test_idEE8instanceEv
FNDA:4,_ZN5boost9unit_test9ut_detail16auto_tc_exp_failIN20physics_engine_tests26scene_to_triangles_test_idEE8instanceEv
FNDA:4,_ZN5boost9unit_test9ut_detail16auto_tc_exp_failIN20physics_engine_tests21remove_object_test_idEE8instanceEv
FNDA:4,_ZN5boost9unit_test9ut_detail16auto_tc_exp_failIN20physics_engine_tests18add_object_test_idEE8instanceEv
FNDA:4,_ZN5boost9unit_test9ut_detail16auto_tc_exp_failIN20physics_engine_tests12ctor_test_idEE8instanceEv
FNDA:4,_ZNK5boost9unit_test9ut_detail16auto_tc_exp_failIN20physics_engine_tests41void_all_collisions_with_in_steps_test_idEE5valueEv
FNDA:4,_ZNK5boost9unit_test9ut_detail16auto_tc_exp_failIN20physics_engine_tests21get_collision_test_idEE5valueEv
FNDA:4,_ZNK5boost9unit_test9ut_detail16auto_tc_exp_failIN20physics_engine_tests26apply_acceleration_test_idEE5valueEv
FNDA:4,_ZNK5boost9unit_test9ut_detail16auto_tc_exp_failIN20physics_engine_tests19apply_force_test_idEE5valueEv
FNDA:4,_ZNK5boost9unit_test9ut_detail16auto_tc_exp_failIN20physics_engine_tests26scene_to_triangles_test_idEE5valueEv
FNDA:4,_ZNK5boost9unit_test9ut_detail16auto_tc_exp_failIN20physics_engine_tests21remove_object_test_idEE5valueEv
FNDA:4,_ZNK5boost9unit_test9ut_detail16auto_tc_exp_failIN20physics_engine_tests18add_object_test_idEE5valueEv
FNDA:4,_ZNK5boost9unit_test9ut_detail16auto_tc_exp_failIN20physics_engine_tests12ctor_test_idEE5valueEv
FNF:25
FNH:25
DA:253,32
DA:255,32
DA:294,32
DA:302,32
DA:304,32
DA:307,32
DA:310,32
LF:7
LH:7
end_of_record
SF:/home/bruce/work/lib/boost_1_54_0/boost/test/utils/basic_cstring/basic_cstring.hpp
FN:150,_ZN5boost9unit_test13basic_cstringIKcE8null_strEv
FN:160,_ZN5boost9unit_test13basic_cstringIKcEC2Ev
FN:170,_ZN5boost9unit_test13basic_cstringIKcEC2ERKSs
FN:180,_ZN5boost9unit_test13basic_cstringIKcEC2EPS2_
FN:190,_ZN5boost9unit_test13basic_cstringIKcEC2EPS2_m
FN:230,_ZNK5boost9unit_test13basic_cstringIKcE4sizeEv
FN:239,_ZNK5boost9unit_test13basic_cstringIKcE8is_emptyEv
FN:257,_ZN5boost9unit_test13basic_cstringIKcE5clearEv
FN:289,_ZN5boost9unit_test13basic_cstringIKcE9trim_leftEPS2_
FN:302,_ZN5boost9unit_test13basic_cstringIKcE9trim_leftES3_
FN:333,_ZN5boost9unit_test13basic_cstringIKcE10trim_rightEPS2_
FN:346,_ZN5boost9unit_test13basic_cstringIKcE10trim_rightES3_
FN:365,_ZN5boost9unit_test13basic_cstringIKcE4trimES3_
FN:377,_ZN5boost9unit_test13basic_cstringIKcEaSERKS3_
FN:478,_ZN5boost9unit_test13basic_cstringIKcE5beginEv
FN:487,_ZNK5boost9unit_test13basic_cstringIKcE5beginEv
FN:496,_ZN5boost9unit_test13basic_cstringIKcE3endEv
FN:505,_ZNK5boost9unit_test13basic_cstringIKcE3endEv
FN:571,_ZN5boost9unit_test13basic_cstringIKcE15default_trim_exEv
FN:716,_ZN5boost9unit_test9assign_opIcKcEEvRSbIT_St11char_traitsIS3_ESaIS3_EENS0_13basic_cstringIT0_EEi
FNDA:940,_ZN5boost9unit_test13basic_cstringIKcE8null_strEv
FNDA:940,_ZN5boost9unit_test13basic_cstringIKcEC2Ev
FNDA:32,_ZN5boost9unit_test13basic_cstringIKcEC2ERKSs
FNDA:40,_ZN5boost9unit_test13basic_cstringIKcEC2EPS2_
FNDA:2824,_ZN5boost9unit_test13basic_cstringIKcEC2EPS2_m
FNDA:12,_ZNK5boost9unit_test13basic_cstringIKcE4sizeEv
FNDA:8,_ZNK5boost9unit_test13basic_cstringIKcE8is_emptyEv
FNDA:0,_ZN5boost9unit_test13basic_cstringIKcE5clearEv
FNDA:4,_ZN5boost9unit_test13basic_cstringIKcE9trim_leftEPS2_
FNDA:4,_ZN5boost9unit_test13basic_cstringIKcE9trim_leftES3_
FNDA:4,_ZN5boost9unit_test13basic_cstringIKcE10trim_rightEPS2_
FNDA:4,_ZN5boost9unit_test13basic_cstringIKcE10trim_rightES3_
FNDA:4,_ZN5boost9unit_test13basic_cstringIKcE4trimES3_
FNDA:0,_ZN5boost9unit_test13basic_cstringIKcEaSERKS3_
FNDA:20,_ZN5boost9unit_test13basic_cstringIKcE5beginEv
FNDA:0,_ZNK5boost9unit_test13basic_cstringIKcE5beginEv
FNDA:8,_ZN5boost9unit_test13basic_cstringIKcE3endEv
FNDA:0,_ZNK5boost9unit_test13basic_cstringIKcE3endEv
FNDA:0,_ZN5boost9unit_test13basic_cstringIKcE15default_trim_exEv
FNDA:4,_ZN5boost9unit_test9assign_opIcKcEEvRSbIT_St11char_traitsIS3_ESaIS3_EENS0_13basic_cstringIT0_EEi
FNF:20
FNH:15
DA:150,940
DA:153,940
DA:160,940
DA:161,940
DA:162,940
DA:164,940
DA:170,32
DA:172,32
DA:174,32
DA:180,40
DA:182,40
DA:184,40
DA:190,2824
DA:191,2824
DA:193,2824
DA:230,12
DA:232,12
DA:239,8
DA:241,8
DA:257,0
DA:259,0
DA:260,0
DA:289,4
DA:291,4
DA:292,4
DA:293,0
DA:295,4
DA:302,4
DA:304,4
DA:305,0
DA:308,4
DA:309,4
DA:310,4
DA:313,4
DA:333,4
DA:335,4
DA:336,4
DA:337,0
DA:339,4
DA:346,4
DA:348,4
DA:349,0
DA:353,4
DA:354,4
DA:355,4
DA:358,4
DA:365,4
DA:367,4
DA:368,4
DA:370,4
DA:377,0
DA:379,0
DA:380,0
DA:382,0
DA:478,20
DA:480,20
DA:487,0
DA:489,0
DA:496,8
DA:498,8
DA:505,0
DA:507,0
DA:571,0
DA:575,0
DA:716,4
DA:718,4
DA:719,4
LF:67
LH:50
end_of_record
SF:/home/bruce/work/lib/boost_1_54_0/boost/test/utils/basic_cstring/bcs_char_traits.hpp
FN:60,_ZN5boost9unit_test9ut_detail20bcs_char_traits_implIKcE2eqEcc
FN:82,_ZN5boost9unit_test9ut_detail20bcs_char_traits_implIKcE6lengthEPS3_
FN:93,_ZN5boost9unit_test9ut_detail20bcs_char_traits_implIKcE4findEPS3_mc
FNDA:772,_ZN5boost9unit_test9ut_detail20bcs_char_traits_implIKcE2eqEcc
FNDA:40,_ZN5boost9unit_test9ut_detail20bcs_char_traits_implIKcE6lengthEPS3_
FNDA:8,_ZN5boost9unit_test9ut_detail20bcs_char_traits_implIKcE4findEPS3_mc
FNF:3
FNH:3
DA:60,772
DA:62,772
DA:82,40
DA:84,40
DA:86,40
DA:87,804
DA:88,724
DA:90,40
DA:93,8
DA:95,24
DA:96,8
DA:97,0
DA:99,8
DA:100,8
DA:102,8
LF:15
LH:14
end_of_record
SF:/home/bruce/work/lib/boost_1_54_0/boost/test/utils/basic_cstring/io.hpp
FN:51,_ZN5boost9unit_testlsIcSt11char_traitsIcEKcEERSt13basic_ostreamIT_T0_ES9_RKNS0_13basic_cstringIT1_EE
FNDA:0,_ZN5boost9unit_testlsIcSt11char_traitsIcEKcEERSt13basic_ostreamIT_T0_ES9_RKNS0_13basic_cstringIT1_EE
FNF:1
FNH:0
DA:51,0
DA:53,0
DA:54,0
DA:55,0
DA:57,0
LF:5
LH:0
end_of_record
SF:/home/bruce/work/lib/boost_1_54_0/boost/test/utils/callback.hpp
FN:56,_ZN5boost9unit_test9ut_detail7invokerINS1_6unusedEE6invokeIPFvvEEES3_RT_
FN:76,_ZN5boost9unit_test9ut_detail14callback0_implINS1_6unusedEEC2Ev
FN:77,_ZN5boost9unit_test9ut_detail14callback0_implINS1_6unusedEED2Ev
FN:77,_ZN5boost9unit_test9ut_detail14callback0_implINS1_6unusedEED0Ev
FN:85,_ZN5boost9unit_test9ut_detail16callback0_impl_tINS1_6unusedEPFvvEED2Ev
FN:85,_ZN5boost9unit_test9ut_detail16callback0_impl_tINS1_6unusedEPFvvEED0Ev
FN:87,_ZN5boost9unit_test9ut_detail16callback0_impl_tINS1_6unusedEPFvvEEC2ES5_
FN:89,_ZN5boost9unit_test9ut_detail16callback0_impl_tINS1_6unusedEPFvvEE6invokeEv
FN:101,_ZN5boost9unit_test9callback0INS0_9ut_detail6unusedEED2Ev
FN:110,_ZN5boost9unit_test9callback0INS0_9ut_detail6unusedEEC2IPFvvEEET_
FNDA:32,_ZN5boost9unit_test9ut_detail7invokerINS1_6unusedEE6invokeIPFvvEEES3_RT_
FNDA:32,_ZN5boost9unit_test9ut_detail14callback0_implINS1_6unusedEEC2Ev
FNDA:0,_ZN5boost9unit_test9ut_detail14callback0_implINS1_6unusedEED0Ev
FNDA:32,_ZN5boost9unit_test9ut_detail14callback0_implINS1_6unusedEED2Ev
FNDA:32,_ZN5boost9unit_test9ut_detail16callback0_impl_tINS1_6unusedEPFvvEED0Ev
FNDA:32,_ZN5boost9unit_test9ut_detail16callback0_impl_tINS1_6unusedEPFvvEED2Ev
FNDA:32,_ZN5boost9unit_test9ut_detail16callback0_impl_tINS1_6unusedEPFvvEEC2ES5_
FNDA:32,_ZN5boost9unit_test9ut_detail16callback0_impl_tINS1_6unusedEPFvvEE6invokeEv
FNDA:32,_ZN5boost9unit_test9callback0INS0_9ut_detail6unusedEED2Ev
FNDA:32,_ZN5boost9unit_test9callback0INS0_9ut_detail6unusedEEC2IPFvvEEET_
FNF:10
FNH:9
DA:56,32
DA:76,32
DA:77,32
DA:85,64
DA:87,32
DA:89,32
DA:101,32
DA:110,32
DA:111,32
LF:9
LH:9
end_of_record
SF:/home/bruce/work/lib/boost_1_54_0/boost/test/utils/class_properties.hpp
FN:55,_ZN5boost9unit_test14class_propertyIbEC2Eb
FN:154,_ZN5boost9unit_test17readonly_propertyIbEC2Eb
FNDA:940,_ZN5boost9unit_test14class_propertyIbEC2Eb
FNDA:940,_ZN5boost9unit_test17readonly_propertyIbEC2Eb
FNF:2
FNH:2
DA:55,940
DA:56,940
DA:154,940
LF:3
LH:3
end_of_record
SF:/home/bruce/work/lib/boost_1_54_0/boost/test/utils/lazy_ostream.hpp
FN:38,_ZN5boost9unit_test12lazy_ostream8instanceEv
FN:46,_ZNK5boost9unit_test12lazy_ostreamclERSo
FN:48,_ZN5boost9unit_test12lazy_ostreamC2Eb
FN:54,_ZN5boost9unit_test12lazy_ostreamD0Ev
FN:54,_ZN5boost9unit_test12lazy_ostreamD2Ev
FN:64,_ZN5boost9unit_test17lazy_ostream_implIRKNS0_13basic_cstringIKcEEED2Ev
FN:64,_ZN5boost9unit_test17lazy_ostream_implIRKNS0_13basic_cstringIKcEEED0Ev
FN:66,_ZN5boost9unit_test17lazy_ostream_implIRKNS0_13basic_cstringIKcEEEC2ERKNS0_12lazy_ostreamES6_
FN:72,_ZNK5boost9unit_test17lazy_ostream_implIRKNS0_13basic_cstringIKcEEEclERSo
FN:86,_ZN5boost9unit_testlsINS0_13basic_cstringIKcEEEENS0_17lazy_ostream_implIRKT_EERKNS0_12lazy_ostreamES8_
FNDA:940,_ZN5boost9unit_test12lazy_ostream8instanceEv
FNDA:0,_ZNK5boost9unit_test12lazy_ostreamclERSo
FNDA:944,_ZN5boost9unit_test12lazy_ostreamC2Eb
FNDA:0,_ZN5boost9unit_test12lazy_ostreamD0Ev
FNDA:944,_ZN5boost9unit_test12lazy_ostreamD2Ev
FNDA:0,_ZN5boost9unit_test17lazy_ostream_implIRKNS0_13basic_cstringIKcEEED0Ev
FNDA:940,_ZN5boost9unit_test17lazy_ostream_implIRKNS0_13basic_cstringIKcEEED2Ev
FNDA:940,_ZN5boost9unit_test17lazy_ostream_implIRKNS0_13basic_cstringIKcEEEC2ERKNS0_12lazy_ostreamES6_
FNDA:0,_ZNK5boost9unit_test17lazy_ostream_implIRKNS0_13basic_cstringIKcEEEclERSo
FNDA:940,_ZN5boost9unit_testlsINS0_13basic_cstringIKcEEEENS0_17lazy_ostream_implIRKT_EERKNS0_12lazy_ostreamES8_
FNF:10
FNH:6
DA:38,940
DA:46,0
DA:48,944
DA:54,944
DA:64,940
DA:66,940
DA:69,940
DA:70,940
DA:72,0
DA:74,0
DA:86,940
DA:88,940
LF:12
LH:9
end_of_record
SF:/home/bruce/work/lib/boost_1_54_0/boost/test/utils/trivial_singleton.hpp
FN:38,_ZN5boost9unit_test9singletonINS0_15unit_test_log_tEE8instanceEv
FN:40,_ZN5boost9unit_test9singletonINS0_15unit_test_log_tEEC2Ev
FN:41,_ZN5boost9unit_test9singletonINS0_15unit_test_log_tEED2Ev
FNDA:4,_ZN5boost9unit_test9singletonINS0_15unit_test_log_tEE8instanceEv
FNDA:0,_ZN5boost9unit_test9singletonINS0_15unit_test_log_tEEC2Ev
FNDA:0,_ZN5boost9unit_test9singletonINS0_15unit_test_log_tEED2Ev
FNF:3
FNH:1
DA:38,4
DA:40,0
DA:41,0
LF:3
LH:1
end_of_record
SF:/home/bruce/work/lib/boost_1_54_0/boost/utility/addressof.hpp
FN:28,_ZN5boost6detail13addr_impl_refINS_3log11v2_mt_posix3aux21value_ref_initializerINS3_9value_refINS3_7trivial14severity_levelENS7_3tag8severityEEEEEEC2ERSC_
FN:28,_ZN5boost6detail13addr_impl_refINS_3log11v2_mt_posix7sources18severity_logger_mtINS3_7trivial14severity_levelEEEEC2ERS8_
FN:28,_ZN5boost6detail13addr_impl_refIKNS_3log11v2_mt_posix7trivial14severity_levelEEC2ERS6_
FN:29,_ZNK5boost6detail13addr_impl_refINS_3log11v2_mt_posix7sources18severity_logger_mtINS3_7trivial14severity_levelEEEEcvRS8_Ev
FN:29,_ZNK5boost6detail13addr_impl_refINS_3log11v2_mt_posix3aux21value_ref_initializerINS3_9value_refINS3_7trivial14severity_levelENS7_3tag8severityEEEEEEcvRSC_Ev
FN:29,_ZNK5boost6detail13addr_impl_refIKNS_3log11v2_mt_posix7trivial14severity_levelEEcvRS6_Ev
FN:37,_ZN5boost6detail14addressof_implINS_3log11v2_mt_posix7sources18severity_logger_mtINS3_7trivial14severity_levelEEEE1fERS8_l
FN:37,_ZN5boost6detail14addressof_implIKNS_3log11v2_mt_posix7trivial14severity_levelEE1fERS6_l
FN:37,_ZN5boost6detail14addressof_implINS_3log11v2_mt_posix3aux21value_ref_initializerINS3_9value_refINS3_7trivial14severity_levelENS7_3tag8severityEEEEEE1fERSC_l
FN:51,_ZN5boost9addressofIKNS_3log11v2_mt_posix7trivial14severity_levelEEEPT_RS6_
FN:51,_ZN5boost9addressofINS_3log11v2_mt_posix3aux21value_ref_initializerINS2_9value_refINS2_7trivial14severity_levelENS6_3tag8severityEEEEEEEPT_RSC_
FN:51,_ZN5boost9addressofINS_3log11v2_mt_posix7sources18severity_logger_mtINS2_7trivial14severity_levelEEEEEPT_RS8_
FNDA:6688,_ZN5boost6detail13addr_impl_refIKNS_3log11v2_mt_posix7trivial14severity_levelEEC2ERS6_
FNDA:6688,_ZN5boost6detail13addr_impl_refINS_3log11v2_mt_posix3aux21value_ref_initializerINS3_9value_refINS3_7trivial14severity_levelENS7_3tag8severityEEEEEEC2ERSC_
FNDA:0,_ZN5boost6detail13addr_impl_refINS_3log11v2_mt_posix7sources18severity_logger_mtINS3_7trivial14severity_levelEEEEC2ERS8_
FNDA:6688,_ZNK5boost6detail13addr_impl_refIKNS_3log11v2_mt_posix7trivial14severity_levelEEcvRS6_Ev
FNDA:6688,_ZNK5boost6detail13addr_impl_refINS_3log11v2_mt_posix3aux21value_ref_initializerINS3_9value_refINS3_7trivial14severity_levelENS7_3tag8severityEEEEEEcvRSC_Ev
FNDA:0,_ZNK5boost6detail13addr_impl_refINS_3log11v2_mt_posix7sources18severity_logger_mtINS3_7trivial14severity_levelEEEEcvRS8_Ev
FNDA:6688,_ZN5boost6detail14addressof_implIKNS_3log11v2_mt_posix7trivial14severity_levelEE1fERS6_l
FNDA:6688,_ZN5boost6detail14addressof_implINS_3log11v2_mt_posix3aux21value_ref_initializerINS3_9value_refINS3_7trivial14severity_levelENS7_3tag8severityEEEEEE1fERSC_l
FNDA:0,_ZN5boost6detail14addressof_implINS_3log11v2_mt_posix7sources18severity_logger_mtINS3_7trivial14severity_levelEEEE1fERS8_l
FNDA:6688,_ZN5boost9addressofIKNS_3log11v2_mt_posix7trivial14severity_levelEEEPT_RS6_
FNDA:6688,_ZN5boost9addressofINS_3log11v2_mt_posix3aux21value_ref_initializerINS2_9value_refINS2_7trivial14severity_levelENS6_3tag8severityEEEEEEEPT_RSC_
FNDA:0,_ZN5boost9addressofINS_3log11v2_mt_posix7sources18severity_logger_mtINS2_7trivial14severity_levelEEEEEPT_RS8_
FNF:12
FNH:8
DA:28,13376
DA:29,13376
DA:37,13376
DA:40,13376
DA:51,13376
DA:59,13376
LF:6
LH:6
end_of_record
SF:/usr/include/c++/4.8/bits/alloc_traits.h
FN:253,_ZNSt16allocator_traitsISaIP10force_infoEE12_S_constructIS1_IS1_EEENSt9enable_ifIXsrNS3_18__construct_helperIT_IDpT0_EEE5valueEvE4typeERS2_PS7_DpOS8_
FN:253,_ZNSt16allocator_traitsISaIiEE12_S_constructIiIRKiEEENSt9enable_ifIXsrNS1_18__construct_helperIT_IDpT0_EEE5valueEvE4typeERS0_PS7_DpOS8_
FN:253,_ZNSt16allocator_traitsISaIP8triangleEE12_S_constructIS1_IS1_EEENSt9enable_ifIXsrNS3_18__construct_helperIT_IDpT0_EEE5valueEvE4typeERS2_PS7_DpOS8_
FN:280,_ZNSt16allocator_traitsISaIP8triangleEE10_S_destroyIS1_EENSt9enable_ifIXsrNS3_16__destroy_helperIT_EE5valueEvE4typeERS2_PS7_
FN:280,_ZNSt16allocator_traitsISaIP10force_infoEE10_S_destroyIS1_EENSt9enable_ifIXsrNS3_16__destroy_helperIT_EE5valueEvE4typeERS2_PS7_
FN:280,_ZNSt16allocator_traitsISaIiEE10_S_destroyIiEENSt9enable_ifIXsrNS1_16__destroy_helperIT_EE5valueEvE4typeERS0_PS5_
FN:305,_ZNSt16allocator_traitsISaIP10force_infoEE11_S_max_sizeIKS2_EENSt9enable_ifIXsrNS3_16__maxsize_helperIT_EE5valueEmE4typeERS8_
FN:305,_ZNSt16allocator_traitsISaIP8triangleEE11_S_max_sizeIKS2_EENSt9enable_ifIXsrNS3_16__maxsize_helperIT_EE5valueEmE4typeERS8_
FN:305,_ZNSt16allocator_traitsISaIiEE11_S_max_sizeIKS0_EENSt9enable_ifIXsrNS1_16__maxsize_helperIT_EE5valueEmE4typeERS6_
FN:391,_ZNSt16allocator_traitsISaIP8triangleEE9constructIS1_IS1_EEEDTcl12_S_constructfp_fp0_spcl7forwardIT0_Efp1_EEERS2_PT_DpOS5_
FN:391,_ZNSt16allocator_traitsISaIiEE9constructIiIRKiEEEDTcl12_S_constructfp_fp0_spcl7forwardIT0_Efp1_EEERS0_PT_DpOS5_
FN:391,_ZNSt16allocator_traitsISaIP10force_infoEE9constructIS1_IS1_EEEDTcl12_S_constructfp_fp0_spcl7forwardIT0_Efp1_EEERS2_PT_DpOS5_
FN:404,_ZNSt16allocator_traitsISaIP8triangleEE7destroyIS1_EEvRS2_PT_
FN:404,_ZNSt16allocator_traitsISaIP10force_infoEE7destroyIS1_EEvRS2_PT_
FN:404,_ZNSt16allocator_traitsISaIiEE7destroyIiEEvRS0_PT_
FN:415,_ZNSt16allocator_traitsISaIiEE8max_sizeERKS0_
FN:415,_ZNSt16allocator_traitsISaIP8triangleEE8max_sizeERKS2_
FN:415,_ZNSt16allocator_traitsISaIP10force_infoEE8max_sizeERKS2_
FN:545,_ZNSt17__allow_copy_consILb1EEC2Ev
FNDA:16,_ZNSt16allocator_traitsISaIP10force_infoEE12_S_constructIS1_IS1_EEENSt9enable_ifIXsrNS3_18__construct_helperIT_IDpT0_EEE5valueEvE4typeERS2_PS7_DpOS8_
FNDA:96,_ZNSt16allocator_traitsISaIP8triangleEE12_S_constructIS1_IS1_EEENSt9enable_ifIXsrNS3_18__construct_helperIT_IDpT0_EEE5valueEvE4typeERS2_PS7_DpOS8_
FNDA:0,_ZNSt16allocator_traitsISaIiEE12_S_constructIiIRKiEEENSt9enable_ifIXsrNS1_18__construct_helperIT_IDpT0_EEE5valueEvE4typeERS0_PS7_DpOS8_
FNDA:0,_ZNSt16allocator_traitsISaIP10force_infoEE10_S_destroyIS1_EENSt9enable_ifIXsrNS3_16__destroy_helperIT_EE5valueEvE4typeERS2_PS7_
FNDA:0,_ZNSt16allocator_traitsISaIP8triangleEE10_S_destroyIS1_EENSt9enable_ifIXsrNS3_16__destroy_helperIT_EE5valueEvE4typeERS2_PS7_
FNDA:0,_ZNSt16allocator_traitsISaIiEE10_S_destroyIiEENSt9enable_ifIXsrNS1_16__destroy_helperIT_EE5valueEvE4typeERS0_PS5_
FNDA:32,_ZNSt16allocator_traitsISaIP10force_infoEE11_S_max_sizeIKS2_EENSt9enable_ifIXsrNS3_16__maxsize_helperIT_EE5valueEmE4typeERS8_
FNDA:48,_ZNSt16allocator_traitsISaIP8triangleEE11_S_max_sizeIKS2_EENSt9enable_ifIXsrNS3_16__maxsize_helperIT_EE5valueEmE4typeERS8_
FNDA:0,_ZNSt16allocator_traitsISaIiEE11_S_max_sizeIKS0_EENSt9enable_ifIXsrNS1_16__maxsize_helperIT_EE5valueEmE4typeERS6_
FNDA:16,_ZNSt16allocator_traitsISaIP10force_infoEE9constructIS1_IS1_EEEDTcl12_S_constructfp_fp0_spcl7forwardIT0_Efp1_EEERS2_PT_DpOS5_
FNDA:96,_ZNSt16allocator_traitsISaIP8triangleEE9constructIS1_IS1_EEEDTcl12_S_constructfp_fp0_spcl7forwardIT0_Efp1_EEERS2_PT_DpOS5_
FNDA:0,_ZNSt16allocator_traitsISaIiEE9constructIiIRKiEEEDTcl12_S_constructfp_fp0_spcl7forwardIT0_Efp1_EEERS0_PT_DpOS5_
FNDA:0,_ZNSt16allocator_traitsISaIP10force_infoEE7destroyIS1_EEvRS2_PT_
FNDA:0,_ZNSt16allocator_traitsISaIP8triangleEE7destroyIS1_EEvRS2_PT_
FNDA:0,_ZNSt16allocator_traitsISaIiEE7destroyIiEEvRS0_PT_
FNDA:32,_ZNSt16allocator_traitsISaIP10force_infoEE8max_sizeERKS2_
FNDA:48,_ZNSt16allocator_traitsISaIP8triangleEE8max_sizeERKS2_
FNDA:0,_ZNSt16allocator_traitsISaIiEE8max_sizeERKS0_
FNDA:32,_ZNSt17__allow_copy_consILb1EEC2Ev
FNF:19
FNH:9
DA:253,112
DA:254,112
DA:280,0
DA:281,0
DA:305,80
DA:306,80
DA:391,112
DA:393,112
DA:404,0
DA:405,0
DA:415,80
DA:416,80
DA:545,32
LF:13
LH:9
end_of_record
SF:/usr/include/c++/4.8/bits/allocator.h
FN:113,_ZNSaISt13_Rb_tree_nodeISt4pairIKPN14raptor_physics7vg_metaEPNS1_13tracking_infoIS2_EEEEEC2Ev
FN:113,_ZNSaIPSt4pairIPN14raptor_physics7vg_metaEfEEC2Ev
FN:113,_ZNSaIP10force_infoEC2Ev
FN:113,_ZNSaIP8triangleEC2Ev
FN:113,_ZNSaISt4pairIKiPN14raptor_physics7vg_metaEEEC2Ev
FN:113,_ZNSaIiEC2Ev
FN:115,_ZNSaIiEC2ERKS_
FN:119,_ZNSaIPNSt8__detail15_Hash_node_baseEEC2INS_10_Hash_nodeISt4pairIKiPN14raptor_physics7vg_metaEELb0EEEEERKSaIT_E
FN:119,_ZNSaINSt8__detail10_Hash_nodeISt4pairIKiPN14raptor_physics7vg_metaEELb0EEEEC2IS6_EERKSaIT_E
FN:121,_ZNSaISt13_Rb_tree_nodeISt4pairIKPN14raptor_physics7vg_metaEPNS1_14collision_infoEEEED2Ev
FN:121,_ZNSaINSt8__detail10_Hash_nodeISt4pairIKiPN14raptor_physics7vg_metaEELb0EEEED2Ev
FN:121,_ZNSaIPSt4pairIPN14raptor_physics7vg_metaEfEED2Ev
FN:121,_ZNSaISt4pairIKiPN14raptor_physics7vg_metaEEED2Ev
FN:121,_ZNSaIiED2Ev
FN:121,_ZNSaIP8triangleED2Ev
FN:121,_ZNSaISt13_Rb_tree_nodeISt4pairIKPN14raptor_physics7vg_metaEPNS1_13tracking_infoIS2_EEEEED2Ev
FN:121,_ZNSaIPNSt8__detail15_Hash_node_baseEED2Ev
FNDA:4,_ZNSaIP8triangleEC2Ev
FNDA:96,_ZNSaIPSt4pairIPN14raptor_physics7vg_metaEfEEC2Ev
FNDA:32,_ZNSaISt13_Rb_tree_nodeISt4pairIKPN14raptor_physics7vg_metaEPNS1_13tracking_infoIS2_EEEEEC2Ev
FNDA:72,_ZNSaIP10force_infoEC2Ev
FNDA:32,_ZNSaISt4pairIKiPN14raptor_physics7vg_metaEEEC2Ev
FNDA:0,_ZNSaIiEC2Ev
FNDA:128,_ZNSaIiEC2ERKS_
FNDA:32,_ZNSaINSt8__detail10_Hash_nodeISt4pairIKiPN14raptor_physics7vg_metaEELb0EEEEC2IS6_EERKSaIT_E
FNDA:64,_ZNSaIPNSt8__detail15_Hash_node_baseEEC2INS_10_Hash_nodeISt4pairIKiPN14raptor_physics7vg_metaEELb0EEEEERKSaIT_E
FNDA:4,_ZNSaIP8triangleED2Ev
FNDA:0,_ZNSaISt13_Rb_tree_nodeISt4pairIKPN14raptor_physics7vg_metaEPNS1_14collision_infoEEEED2Ev
FNDA:64,_ZNSaIPNSt8__detail15_Hash_node_baseEED2Ev
FNDA:96,_ZNSaIPSt4pairIPN14raptor_physics7vg_metaEfEED2Ev
FNDA:32,_ZNSaISt13_Rb_tree_nodeISt4pairIKPN14raptor_physics7vg_metaEPNS1_13tracking_infoIS2_EEEEED2Ev
FNDA:32,_ZNSaINSt8__detail10_Hash_nodeISt4pairIKiPN14raptor_physics7vg_metaEELb0EEEED2Ev
FNDA:32,_ZNSaISt4pairIKiPN14raptor_physics7vg_metaEEED2Ev
FNDA:0,_ZNSaIiED2Ev
FNF:17
FNH:14
DA:113,236
DA:115,128
DA:116,128
DA:119,96
DA:121,260
LF:5
LH:5
end_of_record
SF:/usr/include/c++/4.8/bits/basic_ios.h
FN:46,_ZSt13__check_facetISt5ctypeIcEERKT_PS3_
FNDA:0,_ZSt13__check_facetISt5ctypeIcEERKT_PS3_
FNF:1
FNH:0
DA:46,0
DA:48,0
DA:49,0
DA:50,0
LF:4
LH:0
end_of_record
SF:/usr/include/c++/4.8/bits/basic_string.h
FN:272,_ZNSs12_Alloc_hiderD2Ev
FNDA:0,_ZNSs12_Alloc_hiderD2Ev
FNF:1
FNH:0
DA:272,0
LF:1
LH:0
end_of_record
SF:/usr/include/c++/4.8/bits/char_traits.h
FN:258,_ZNSt11char_traitsIcE6lengthEPKc
FNDA:0,_ZNSt11char_traitsIcE6lengthEPKc
FNF:1
FNH:0
DA:258,0
DA:259,0
LF:2
LH:0
end_of_record
SF:/usr/include/c++/4.8/bits/functional_hash.h
FN:104,_ZNKSt4hashIiEclEi
FNDA:656,_ZNKSt4hashIiEclEi
FNF:1
FNH:1
DA:104,656
LF:1
LH:1
end_of_record
SF:/usr/include/c++/4.8/bits/hashtable.h
FN:330,_ZNSt10_HashtableIiSt4pairIKiPN14raptor_physics7vg_metaEESaIS5_ENSt8__detail10_Select1stESt8equal_toIiESt4hashIiENS7_18_Mod_range_hashingENS7_20_Default_ranged_hashENS7_20_Prime_rehash_policyENS7_17_Hashtable_traitsILb0ELb0ELb1EEEE17_M_node_allocatorEv
FN:338,_ZNSt10_HashtableIiSt4pairIKiPN14raptor_physics7vg_metaEESaIS5_ENSt8__detail10_Select1stESt8equal_toIiESt4hashIiENS7_18_Mod_range_hashingENS7_20_Default_ranged_hashENS7_20_Prime_rehash_policyENS7_17_Hashtable_traitsILb0ELb0ELb1EEEE15_M_before_beginEv
FN:342,_ZNKSt10_HashtableIiSt4pairIKiPN14raptor_physics7vg_metaEESaIS5_ENSt8__detail10_Select1stESt8equal_toIiESt4hashIiENS7_18_Mod_range_hashingENS7_20_Default_ranged_hashENS7_20_Prime_rehash_policyENS7_17_Hashtable_traitsILb0ELb0ELb1EEEE15_M_before_beginEv
FN:368,_ZNKSt10_HashtableIiSt4pairIKiPN14raptor_physics7vg_metaEESaIS5_ENSt8__detail10_Select1stESt8equal_toIiESt4hashIiENS7_18_Mod_range_hashingENS7_20_Default_ranged_hashENS7_20_Prime_rehash_policyENS7_17_Hashtable_traitsILb0ELb0ELb1EEEE8_M_beginEv
FN:391,_ZNSt10_HashtableIiSt4pairIKiPN14raptor_physics7vg_metaEESaIS5_ENSt8__detail10_Select1stESt8equal_toIiESt4hashIiENS7_18_Mod_range_hashingENS7_20_Default_ranged_hashENS7_20_Prime_rehash_policyENS7_17_Hashtable_traitsILb0ELb0ELb1EEEEC2EmRKSC_RKSA_RKS6_
FN:454,_ZNSt10_HashtableIiSt4pairIKiPN14raptor_physics7vg_metaEESaIS5_ENSt8__detail10_Select1stESt8equal_toIiESt4hashIiENS7_18_Mod_range_hashingENS7_20_Default_ranged_hashENS7_20_Prime_rehash_policyENS7_17_Hashtable_traitsILb0ELb0ELb1EEEE5beginEv
FN:462,_ZNSt10_HashtableIiSt4pairIKiPN14raptor_physics7vg_metaEESaIS5_ENSt8__detail10_Select1stESt8equal_toIiESt4hashIiENS7_18_Mod_range_hashingENS7_20_Default_ranged_hashENS7_20_Prime_rehash_policyENS7_17_Hashtable_traitsILb0ELb0ELb1EEEE3endEv
FN:478,_ZNKSt10_HashtableIiSt4pairIKiPN14raptor_physics7vg_metaEESaIS5_ENSt8__detail10_Select1stESt8equal_toIiESt4hashIiENS7_18_Mod_range_hashingENS7_20_Default_ranged_hashENS7_20_Prime_rehash_policyENS7_17_Hashtable_traitsILb0ELb0ELb1EEEE4sizeEv
FN:588,_ZNKSt10_HashtableIiSt4pairIKiPN14raptor_physics7vg_metaEESaIS5_ENSt8__detail10_Select1stESt8equal_toIiESt4hashIiENS7_18_Mod_range_hashingENS7_20_Default_ranged_hashENS7_20_Prime_rehash_policyENS7_17_Hashtable_traitsILb0ELb0ELb1EEEE15_M_bucket_indexEPNS7_10_Hash_nodeIS5_Lb0EEE
FN:592,_ZNKSt10_HashtableIiSt4pairIKiPN14raptor_physics7vg_metaEESaIS5_ENSt8__detail10_Select1stESt8equal_toIiESt4hashIiENS7_18_Mod_range_hashingENS7_20_Default_ranged_hashENS7_20_Prime_rehash_policyENS7_17_Hashtable_traitsILb0ELb0ELb1EEEE15_M_bucket_indexERS1_m
FN:601,_ZNKSt10_HashtableIiSt4pairIKiPN14raptor_physics7vg_metaEESaIS5_ENSt8__detail10_Select1stESt8equal_toIiESt4hashIiENS7_18_Mod_range_hashingENS7_20_Default_ranged_hashENS7_20_Prime_rehash_policyENS7_17_Hashtable_traitsILb0ELb0ELb1EEEE12_M_find_nodeEmRS1_m
FN:684,_ZNSt10_HashtableIiSt4pairIKiPN14raptor_physics7vg_metaEESaIS5_ENSt8__detail10_Select1stESt8equal_toIiESt4hashIiENS7_18_Mod_range_hashingENS7_20_Default_ranged_hashENS7_20_Prime_rehash_policyENS7_17_Hashtable_traitsILb0ELb0ELb1EEEE5eraseERS1_
FN:720,_ZNSt10_HashtableIiSt4pairIKiPN14raptor_physics7vg_metaEESaIS5_ENSt8__detail10_Select1stESt8equal_toIiESt4hashIiENS7_18_Mod_range_hashingENS7_20_Default_ranged_hashENS7_20_Prime_rehash_policyENS7_17_Hashtable_traitsILb0ELb0ELb1EEEE16_M_allocate_nodeIIS0_IiS4_EEEEPNS7_10_Hash_nodeIS5_Lb0EEEDpOT_
FN:742,_ZNSt10_HashtableIiSt4pairIKiPN14raptor_physics7vg_metaEESaIS5_ENSt8__detail10_Select1stESt8equal_toIiESt4hashIiENS7_18_Mod_range_hashingENS7_20_Default_ranged_hashENS7_20_Prime_rehash_policyENS7_17_Hashtable_traitsILb0ELb0ELb1EEEE18_M_deallocate_nodeEPNS7_10_Hash_nodeIS5_Lb0EEE
FN:755,_ZNSt10_HashtableIiSt4pairIKiPN14raptor_physics7vg_metaEESaIS5_ENSt8__detail10_Select1stESt8equal_toIiESt4hashIiENS7_18_Mod_range_hashingENS7_20_Default_ranged_hashENS7_20_Prime_rehash_policyENS7_17_Hashtable_traitsILb0ELb0ELb1EEEE19_M_deallocate_nodesEPNS7_10_Hash_nodeIS5_Lb0EEE
FN:773,_ZNSt10_HashtableIiSt4pairIKiPN14raptor_physics7vg_metaEESaIS5_ENSt8__detail10_Select1stESt8equal_toIiESt4hashIiENS7_18_Mod_range_hashingENS7_20_Default_ranged_hashENS7_20_Prime_rehash_policyENS7_17_Hashtable_traitsILb0ELb0ELb1EEEE19_M_allocate_bucketsEm
FN:789,_ZNSt10_HashtableIiSt4pairIKiPN14raptor_physics7vg_metaEESaIS5_ENSt8__detail10_Select1stESt8equal_toIiESt4hashIiENS7_18_Mod_range_hashingENS7_20_Default_ranged_hashENS7_20_Prime_rehash_policyENS7_17_Hashtable_traitsILb0ELb0ELb1EEEE21_M_deallocate_bucketsEPPNS7_15_Hash_node_baseEm
FN:816,_ZNSt10_HashtableIiSt4pairIKiPN14raptor_physics7vg_metaEESaIS5_ENSt8__detail10_Select1stESt8equal_toIiESt4hashIiENS7_18_Mod_range_hashingENS7_20_Default_ranged_hashENS7_20_Prime_rehash_policyENS7_17_Hashtable_traitsILb0ELb0ELb1EEEEC2EmRKSC_RKSD_RKSE_RKSA_RKS8_RKS6_
FN:954,_ZNSt10_HashtableIiSt4pairIKiPN14raptor_physics7vg_metaEESaIS5_ENSt8__detail10_Select1stESt8equal_toIiESt4hashIiENS7_18_Mod_range_hashingENS7_20_Default_ranged_hashENS7_20_Prime_rehash_policyENS7_17_Hashtable_traitsILb0ELb0ELb1EEEED2Ev
FN:1019,_ZNSt10_HashtableIiSt4pairIKiPN14raptor_physics7vg_metaEESaIS5_ENSt8__detail10_Select1stESt8equal_toIiESt4hashIiENS7_18_Mod_range_hashingENS7_20_Default_ranged_hashENS7_20_Prime_rehash_policyENS7_17_Hashtable_traitsILb0ELb0ELb1EEEE4findERS1_
FN:1154,_ZNKSt10_HashtableIiSt4pairIKiPN14raptor_physics7vg_metaEESaIS5_ENSt8__detail10_Select1stESt8equal_toIiESt4hashIiENS7_18_Mod_range_hashingENS7_20_Default_ranged_hashENS7_20_Prime_rehash_policyENS7_17_Hashtable_traitsILb0ELb0ELb1EEEE19_M_find_before_nodeEmRS1_m
FN:1179,_ZNSt10_HashtableIiSt4pairIKiPN14raptor_physics7vg_metaEESaIS5_ENSt8__detail10_Select1stESt8equal_toIiESt4hashIiENS7_18_Mod_range_hashingENS7_20_Default_ranged_hashENS7_20_Prime_rehash_policyENS7_17_Hashtable_traitsILb0ELb0ELb1EEEE22_M_insert_bucket_beginEmPNS7_10_Hash_nodeIS5_Lb0EEE
FN:1210,_ZNSt10_HashtableIiSt4pairIKiPN14raptor_physics7vg_metaEESaIS5_ENSt8__detail10_Select1stESt8equal_toIiESt4hashIiENS7_18_Mod_range_hashingENS7_20_Default_ranged_hashENS7_20_Prime_rehash_policyENS7_17_Hashtable_traitsILb0ELb0ELb1EEEE22_M_remove_bucket_beginEmPNS7_10_Hash_nodeIS5_Lb0EEEm
FN:1255,_ZNSt10_HashtableIiSt4pairIKiPN14raptor_physics7vg_metaEESaIS5_ENSt8__detail10_Select1stESt8equal_toIiESt4hashIiENS7_18_Mod_range_hashingENS7_20_Default_ranged_hashENS7_20_Prime_rehash_policyENS7_17_Hashtable_traitsILb0ELb0ELb1EEEE10_M_emplaceIIS0_IiS4_EEEES0_INS7_14_Node_iteratorIS5_Lb0ELb0EEEbESt17integral_constantIbLb1EEDpOT_
FN:1322,_ZNSt10_HashtableIiSt4pairIKiPN14raptor_physics7vg_metaEESaIS5_ENSt8__detail10_Select1stESt8equal_toIiESt4hashIiENS7_18_Mod_range_hashingENS7_20_Default_ranged_hashENS7_20_Prime_rehash_policyENS7_17_Hashtable_traitsILb0ELb0ELb1EEEE21_M_insert_unique_nodeEmmPNS7_10_Hash_nodeIS5_Lb0EEE
FN:1480,_ZNSt10_HashtableIiSt4pairIKiPN14raptor_physics7vg_metaEESaIS5_ENSt8__detail10_Select1stESt8equal_toIiESt4hashIiENS7_18_Mod_range_hashingENS7_20_Default_ranged_hashENS7_20_Prime_rehash_policyENS7_17_Hashtable_traitsILb0ELb0ELb1EEEE8_M_eraseEmPNS7_15_Hash_node_baseEPNS7_10_Hash_nodeIS5_Lb0EEE
FN:1509,_ZNSt10_HashtableIiSt4pairIKiPN14raptor_physics7vg_metaEESaIS5_ENSt8__detail10_Select1stESt8equal_toIiESt4hashIiENS7_18_Mod_range_hashingENS7_20_Default_ranged_hashENS7_20_Prime_rehash_policyENS7_17_Hashtable_traitsILb0ELb0ELb1EEEE8_M_eraseESt17integral_constantIbLb1EERS1_
FN:1637,_ZNSt10_HashtableIiSt4pairIKiPN14raptor_physics7vg_metaEESaIS5_ENSt8__detail10_Select1stESt8equal_toIiESt4hashIiENS7_18_Mod_range_hashingENS7_20_Default_ranged_hashENS7_20_Prime_rehash_policyENS7_17_Hashtable_traitsILb0ELb0ELb1EEEE5clearEv
FN:1674,_ZNSt10_HashtableIiSt4pairIKiPN14raptor_physics7vg_metaEESaIS5_ENSt8__detail10_Select1stESt8equal_toIiESt4hashIiENS7_18_Mod_range_hashingENS7_20_Default_ranged_hashENS7_20_Prime_rehash_policyENS7_17_Hashtable_traitsILb0ELb0ELb1EEEE9_M_rehashEmRKm
FN:1697,_ZNSt10_HashtableIiSt4pairIKiPN14raptor_physics7vg_metaEESaIS5_ENSt8__detail10_Select1stESt8equal_toIiESt4hashIiENS7_18_Mod_range_hashingENS7_20_Default_ranged_hashENS7_20_Prime_rehash_policyENS7_17_Hashtable_traitsILb0ELb0ELb1EEEE13_M_rehash_auxEmSt17integral_constantIbLb1EE
FNDA:352,_ZNSt10_HashtableIiSt4pairIKiPN14raptor_physics7vg_metaEESaIS5_ENSt8__detail10_Select1stESt8equal_toIiESt4hashIiENS7_18_Mod_range_hashingENS7_20_Default_ranged_hashENS7_20_Prime_rehash_policyENS7_17_Hashtable_traitsILb0ELb0ELb1EEEE17_M_node_allocatorEv
FNDA:260,_ZNSt10_HashtableIiSt4pairIKiPN14raptor_physics7vg_metaEESaIS5_ENSt8__detail10_Select1stESt8equal_toIiESt4hashIiENS7_18_Mod_range_hashingENS7_20_Default_ranged_hashENS7_20_Prime_rehash_policyENS7_17_Hashtable_traitsILb0ELb0ELb1EEEE15_M_before_beginEv
FNDA:0,_ZNKSt10_HashtableIiSt4pairIKiPN14raptor_physics7vg_metaEESaIS5_ENSt8__detail10_Select1stESt8equal_toIiESt4hashIiENS7_18_Mod_range_hashingENS7_20_Default_ranged_hashENS7_20_Prime_rehash_policyENS7_17_Hashtable_traitsILb0ELb0ELb1EEEE15_M_before_beginEv
FNDA:0,_ZNKSt10_HashtableIiSt4pairIKiPN14raptor_physics7vg_metaEESaIS5_ENSt8__detail10_Select1stESt8equal_toIiESt4hashIiENS7_18_Mod_range_hashingENS7_20_Default_ranged_hashENS7_20_Prime_rehash_policyENS7_17_Hashtable_traitsILb0ELb0ELb1EEEE8_M_beginEv
FNDA:32,_ZNSt10_HashtableIiSt4pairIKiPN14raptor_physics7vg_metaEESaIS5_ENSt8__detail10_Select1stESt8equal_toIiESt4hashIiENS7_18_Mod_range_hashingENS7_20_Default_ranged_hashENS7_20_Prime_rehash_policyENS7_17_Hashtable_traitsILb0ELb0ELb1EEEEC2EmRKSC_RKSA_RKS6_
FNDA:0,_ZNSt10_HashtableIiSt4pairIKiPN14raptor_physics7vg_metaEESaIS5_ENSt8__detail10_Select1stESt8equal_toIiESt4hashIiENS7_18_Mod_range_hashingENS7_20_Default_ranged_hashENS7_20_Prime_rehash_policyENS7_17_Hashtable_traitsILb0ELb0ELb1EEEE5beginEv
FNDA:0,_ZNSt10_HashtableIiSt4pairIKiPN14raptor_physics7vg_metaEESaIS5_ENSt8__detail10_Select1stESt8equal_toIiESt4hashIiENS7_18_Mod_range_hashingENS7_20_Default_ranged_hashENS7_20_Prime_rehash_policyENS7_17_Hashtable_traitsILb0ELb0ELb1EEEE3endEv
FNDA:44,_ZNKSt10_HashtableIiSt4pairIKiPN14raptor_physics7vg_metaEESaIS5_ENSt8__detail10_Select1stESt8equal_toIiESt4hashIiENS7_18_Mod_range_hashingENS7_20_Default_ranged_hashENS7_20_Prime_rehash_policyENS7_17_Hashtable_traitsILb0ELb0ELb1EEEE4sizeEv
FNDA:44,_ZNKSt10_HashtableIiSt4pairIKiPN14raptor_physics7vg_metaEESaIS5_ENSt8__detail10_Select1stESt8equal_toIiESt4hashIiENS7_18_Mod_range_hashingENS7_20_Default_ranged_hashENS7_20_Prime_rehash_policyENS7_17_Hashtable_traitsILb0ELb0ELb1EEEE15_M_bucket_indexEPNS7_10_Hash_nodeIS5_Lb0EEE
FNDA:612,_ZNKSt10_HashtableIiSt4pairIKiPN14raptor_physics7vg_metaEESaIS5_ENSt8__detail10_Select1stESt8equal_toIiESt4hashIiENS7_18_Mod_range_hashingENS7_20_Default_ranged_hashENS7_20_Prime_rehash_policyENS7_17_Hashtable_traitsILb0ELb0ELb1EEEE15_M_bucket_indexERS1_m
FNDA:604,_ZNKSt10_HashtableIiSt4pairIKiPN14raptor_physics7vg_metaEESaIS5_ENSt8__detail10_Select1stESt8equal_toIiESt4hashIiENS7_18_Mod_range_hashingENS7_20_Default_ranged_hashENS7_20_Prime_rehash_policyENS7_17_Hashtable_traitsILb0ELb0ELb1EEEE12_M_find_nodeEmRS1_m
FNDA:8,_ZNSt10_HashtableIiSt4pairIKiPN14raptor_physics7vg_metaEESaIS5_ENSt8__detail10_Select1stESt8equal_toIiESt4hashIiENS7_18_Mod_range_hashingENS7_20_Default_ranged_hashENS7_20_Prime_rehash_policyENS7_17_Hashtable_traitsILb0ELb0ELb1EEEE5eraseERS1_
FNDA:72,_ZNSt10_HashtableIiSt4pairIKiPN14raptor_physics7vg_metaEESaIS5_ENSt8__detail10_Select1stESt8equal_toIiESt4hashIiENS7_18_Mod_range_hashingENS7_20_Default_ranged_hashENS7_20_Prime_rehash_policyENS7_17_Hashtable_traitsILb0ELb0ELb1EEEE16_M_allocate_nodeIIS0_IiS4_EEEEPNS7_10_Hash_nodeIS5_Lb0EEEDpOT_
FNDA:72,_ZNSt10_HashtableIiSt4pairIKiPN14raptor_physics7vg_metaEESaIS5_ENSt8__detail10_Select1stESt8equal_toIiESt4hashIiENS7_18_Mod_range_hashingENS7_20_Default_ranged_hashENS7_20_Prime_rehash_policyENS7_17_Hashtable_traitsILb0ELb0ELb1EEEE18_M_deallocate_nodeEPNS7_10_Hash_nodeIS5_Lb0EEE
FNDA:32,_ZNSt10_HashtableIiSt4pairIKiPN14raptor_physics7vg_metaEESaIS5_ENSt8__detail10_Select1stESt8equal_toIiESt4hashIiENS7_18_Mod_range_hashingENS7_20_Default_ranged_hashENS7_20_Prime_rehash_policyENS7_17_Hashtable_traitsILb0ELb0ELb1EEEE19_M_deallocate_nodesEPNS7_10_Hash_nodeIS5_Lb0EEE
FNDA:32,_ZNSt10_HashtableIiSt4pairIKiPN14raptor_physics7vg_metaEESaIS5_ENSt8__detail10_Select1stESt8equal_toIiESt4hashIiENS7_18_Mod_range_hashingENS7_20_Default_ranged_hashENS7_20_Prime_rehash_policyENS7_17_Hashtable_traitsILb0ELb0ELb1EEEE19_M_allocate_bucketsEm
FNDA:32,_ZNSt10_HashtableIiSt4pairIKiPN14raptor_physics7vg_metaEESaIS5_ENSt8__detail10_Select1stESt8equal_toIiESt4hashIiENS7_18_Mod_range_hashingENS7_20_Default_ranged_hashENS7_20_Prime_rehash_policyENS7_17_Hashtable_traitsILb0ELb0ELb1EEEE21_M_deallocate_bucketsEPPNS7_15_Hash_node_baseEm
FNDA:32,_ZNSt10_HashtableIiSt4pairIKiPN14raptor_physics7vg_metaEESaIS5_ENSt8__detail10_Select1stESt8equal_toIiESt4hashIiENS7_18_Mod_range_hashingENS7_20_Default_ranged_hashENS7_20_Prime_rehash_policyENS7_17_Hashtable_traitsILb0ELb0ELb1EEEEC2EmRKSC_RKSD_RKSE_RKSA_RKS8_RKS6_
FNDA:32,_ZNSt10_HashtableIiSt4pairIKiPN14raptor_physics7vg_metaEESaIS5_ENSt8__detail10_Select1stESt8equal_toIiESt4hashIiENS7_18_Mod_range_hashingENS7_20_Default_ranged_hashENS7_20_Prime_rehash_policyENS7_17_Hashtable_traitsILb0ELb0ELb1EEEED2Ev
FNDA:508,_ZNSt10_HashtableIiSt4pairIKiPN14raptor_physics7vg_metaEESaIS5_ENSt8__detail10_Select1stESt8equal_toIiESt4hashIiENS7_18_Mod_range_hashingENS7_20_Default_ranged_hashENS7_20_Prime_rehash_policyENS7_17_Hashtable_traitsILb0ELb0ELb1EEEE4findERS1_
FNDA:612,_ZNKSt10_HashtableIiSt4pairIKiPN14raptor_physics7vg_metaEESaIS5_ENSt8__detail10_Select1stESt8equal_toIiESt4hashIiENS7_18_Mod_range_hashingENS7_20_Default_ranged_hashENS7_20_Prime_rehash_policyENS7_17_Hashtable_traitsILb0ELb0ELb1EEEE19_M_find_before_nodeEmRS1_m
FNDA:72,_ZNSt10_HashtableIiSt4pairIKiPN14raptor_physics7vg_metaEESaIS5_ENSt8__detail10_Select1stESt8equal_toIiESt4hashIiENS7_18_Mod_range_hashingENS7_20_Default_ranged_hashENS7_20_Prime_rehash_policyENS7_17_Hashtable_traitsILb0ELb0ELb1EEEE22_M_insert_bucket_beginEmPNS7_10_Hash_nodeIS5_Lb0EEE
FNDA:8,_ZNSt10_HashtableIiSt4pairIKiPN14raptor_physics7vg_metaEESaIS5_ENSt8__detail10_Select1stESt8equal_toIiESt4hashIiENS7_18_Mod_range_hashingENS7_20_Default_ranged_hashENS7_20_Prime_rehash_policyENS7_17_Hashtable_traitsILb0ELb0ELb1EEEE22_M_remove_bucket_beginEmPNS7_10_Hash_nodeIS5_Lb0EEEm
FNDA:72,_ZNSt10_HashtableIiSt4pairIKiPN14raptor_physics7vg_metaEESaIS5_ENSt8__detail10_Select1stESt8equal_toIiESt4hashIiENS7_18_Mod_range_hashingENS7_20_Default_ranged_hashENS7_20_Prime_rehash_policyENS7_17_Hashtable_traitsILb0ELb0ELb1EEEE10_M_emplaceIIS0_IiS4_EEEES0_INS7_14_Node_iteratorIS5_Lb0ELb0EEEbESt17integral_constantIbLb1EEDpOT_
FNDA:72,_ZNSt10_HashtableIiSt4pairIKiPN14raptor_physics7vg_metaEESaIS5_ENSt8__detail10_Select1stESt8equal_toIiESt4hashIiENS7_18_Mod_range_hashingENS7_20_Default_ranged_hashENS7_20_Prime_rehash_policyENS7_17_Hashtable_traitsILb0ELb0ELb1EEEE21_M_insert_unique_nodeEmmPNS7_10_Hash_nodeIS5_Lb0EEE
FNDA:8,_ZNSt10_HashtableIiSt4pairIKiPN14raptor_physics7vg_metaEESaIS5_ENSt8__detail10_Select1stESt8equal_toIiESt4hashIiENS7_18_Mod_range_hashingENS7_20_Default_ranged_hashENS7_20_Prime_rehash_policyENS7_17_Hashtable_traitsILb0ELb0ELb1EEEE8_M_eraseEmPNS7_15_Hash_node_baseEPNS7_10_Hash_nodeIS5_Lb0EEE
FNDA:8,_ZNSt10_HashtableIiSt4pairIKiPN14raptor_physics7vg_metaEESaIS5_ENSt8__detail10_Select1stESt8equal_toIiESt4hashIiENS7_18_Mod_range_hashingENS7_20_Default_ranged_hashENS7_20_Prime_rehash_policyENS7_17_Hashtable_traitsILb0ELb0ELb1EEEE8_M_eraseESt17integral_constantIbLb1EERS1_
FNDA:32,_ZNSt10_HashtableIiSt4pairIKiPN14raptor_physics7vg_metaEESaIS5_ENSt8__detail10_Select1stESt8equal_toIiESt4hashIiENS7_18_Mod_range_hashingENS7_20_Default_ranged_hashENS7_20_Prime_rehash_policyENS7_17_Hashtable_traitsILb0ELb0ELb1EEEE5clearEv
FNDA:0,_ZNSt10_HashtableIiSt4pairIKiPN14raptor_physics7vg_metaEESaIS5_ENSt8__detail10_Select1stESt8equal_toIiESt4hashIiENS7_18_Mod_range_hashingENS7_20_Default_ranged_hashENS7_20_Prime_rehash_policyENS7_17_Hashtable_traitsILb0ELb0ELb1EEEE9_M_rehashEmRKm
FNDA:0,_ZNSt10_HashtableIiSt4pairIKiPN14raptor_physics7vg_metaEESaIS5_ENSt8__detail10_Select1stESt8equal_toIiESt4hashIiENS7_18_Mod_range_hashingENS7_20_Default_ranged_hashENS7_20_Prime_rehash_policyENS7_17_Hashtable_traitsILb0ELb0ELb1EEEE13_M_rehash_auxEmSt17integral_constantIbLb1EE
FNF:30
FNH:24
DA:330,352
DA:331,352
DA:338,260
DA:339,260
DA:342,0
DA:343,0
DA:368,0
DA:369,0
DA:391,32
DA:397,32
DA:398,32
DA:454,0
DA:455,0
DA:462,0
DA:463,0
DA:478,44
DA:479,44
DA:588,44
DA:589,44
DA:592,612
DA:593,612
DA:601,604
DA:604,604
DA:605,604
DA:606,464
DA:607,140
DA:684,8
DA:685,8
DA:720,72
DA:724,72
DA:727,72
DA:728,72
DA:730,=====
DA:732,=====
DA:733,=====
DA:742,72
DA:746,72
DA:747,72
DA:748,72
DA:755,32
DA:759,128
DA:761,64
DA:762,64
DA:763,64
DA:765,32
DA:773,32
DA:777,32
DA:779,32
DA:780,32
DA:781,32
DA:789,32
DA:793,32
DA:794,32
DA:795,32
DA:816,32
DA:828,32
DA:830,32
DA:831,32
DA:832,32
DA:954,32
DA:958,32
DA:959,32
DA:960,32
DA:1019,508
DA:1023,508
DA:1024,508
DA:1025,508
DA:1026,508
DA:1154,612
DA:1159,612
DA:1160,612
DA:1161,140
DA:1162,472
DA:1163,0
DA:1165,472
DA:1166,472
DA:1167,0
DA:1168,0
DA:1169,0
DA:1171,0
DA:1179,72
DA:1183,72
DA:1187,0
DA:1188,0
DA:1195,72
DA:1196,72
DA:1197,72
DA:1200,44
DA:1201,72
DA:1203,72
DA:1210,8
DA:1215,8
DA:1219,8
DA:1220,0
DA:1223,8
DA:1224,4
DA:1225,8
DA:1227,8
DA:1255,72
DA:1260,72
DA:1261,72
DA:1265,72
DA:1267,=====
DA:1269,=====
DA:1270,=====
DA:1273,72
DA:1274,72
DA:1277,0
DA:1278,0
DA:1283,72
DA:1322,72
DA:1327,72
DA:1329,72
DA:1333,72
DA:1335,0
DA:1336,0
DA:1339,72
DA:1342,72
DA:1343,72
DA:1344,72
DA:1346,=====
DA:1348,=====
DA:1349,=====
DA:1480,8
DA:1484,8
DA:1485,8
DA:1486,8
DA:1487,0
DA:1489,0
DA:1490,0
DA:1491,0
DA:1494,8
DA:1495,8
DA:1496,8
DA:1497,8
DA:1499,8
DA:1509,8
DA:1513,8
DA:1514,8
DA:1517,8
DA:1518,8
DA:1519,0
DA:1522,8
DA:1523,8
DA:1524,8
DA:1637,32
DA:1641,32
DA:1642,32
DA:1643,32
DA:1644,32
DA:1645,32
DA:1674,0
DA:1680,0
DA:1682,=====
DA:1686,=====
DA:1687,=====
DA:1689,0
DA:1697,0
DA:1701,0
DA:1702,0
DA:1703,0
DA:1704,0
DA:1705,0
DA:1707,0
DA:1708,0
DA:1709,0
DA:1711,0
DA:1712,0
DA:1713,0
DA:1714,0
DA:1715,0
DA:1716,0
DA:1720,0
DA:1721,0
DA:1723,0
DA:1725,0
DA:1726,0
DA:1727,0
DA:1728,0
LF:179
LH:117
end_of_record
SF:/usr/include/c++/4.8/bits/hashtable_policy.h
FN:100,_ZNKSt8__detail10_Select1stclIRSt4pairIKiPN14raptor_physics7vg_metaEEEEDTcl3getILi0EEcl7forwardIT_Efp_EEEOS9_
FN:100,_ZNKSt8__detail10_Select1stclIRKSt4pairIKiPN14raptor_physics7vg_metaEEEEDTcl3getILi0EEcl7forwardIT_Efp_EEEOSA_
FN:153,_ZNSt8__detail15_Hash_node_baseC2Ev
FN:194,_ZNSt8__detail10_Hash_nodeISt4pairIKiPN14raptor_physics7vg_metaEELb0EEC2IIS1_IiS5_EEEEDpOT_
FN:198,_ZNKSt8__detail10_Hash_nodeISt4pairIKiPN14raptor_physics7vg_metaEELb0EE7_M_nextEv
FN:209,_ZNSt8__detail19_Node_iterator_baseISt4pairIKiPN14raptor_physics7vg_metaEELb0EEC2EPNS_10_Hash_nodeIS6_Lb0EEE
FN:213,_ZNSt8__detail19_Node_iterator_baseISt4pairIKiPN14raptor_physics7vg_metaEELb0EE7_M_incrEv
FN:219,_ZNSt8__detaileqISt4pairIKiPN14raptor_physics7vg_metaEELb0EEEbRKNS_19_Node_iterator_baseIT_XT0_EEESB_
FN:225,_ZNSt8__detailneISt4pairIKiPN14raptor_physics7vg_metaEELb0EEEbRKNS_19_Node_iterator_baseIT_XT0_EEESB_
FN:253,_ZNSt8__detail14_Node_iteratorISt4pairIKiPN14raptor_physics7vg_metaEELb0ELb0EEC2EPNS_10_Hash_nodeIS6_Lb0EEE
FN:257,_ZNKSt8__detail14_Node_iteratorISt4pairIKiPN14raptor_physics7vg_metaEELb0ELb0EEdeEv
FN:261,_ZNKSt8__detail14_Node_iteratorISt4pairIKiPN14raptor_physics7vg_metaEELb0ELb0EEptEv
FN:265,_ZNSt8__detail14_Node_iteratorISt4pairIKiPN14raptor_physics7vg_metaEELb0ELb0EEppEv
FN:304,_ZNSt8__detail20_Node_const_iteratorISt4pairIKiPN14raptor_physics7vg_metaEELb0ELb0EEC2ERKNS_14_Node_iteratorIS6_Lb0ELb0EEE
FN:344,_ZNKSt8__detail18_Mod_range_hashingclEmm
FN:359,_ZNSt8__detail20_Prime_rehash_policyC2Ef
FN:386,_ZNKSt8__detail20_Prime_rehash_policy8_M_stateEv
FN:390,_ZNSt8__detail20_Prime_rehash_policy8_M_resetEm
FN:534,_ZNSt8__detail9_Map_baseIiSt4pairIKiPN14raptor_physics7vg_metaEESaIS6_ENS_10_Select1stESt8equal_toIiESt4hashIiENS_18_Mod_range_hashingENS_20_Default_ranged_hashENS_20_Prime_rehash_policyENS_17_Hashtable_traitsILb0ELb0ELb1EEELb1EE2atERS2_
FN:577,_ZNSt8__detail12_Insert_baseIiSt4pairIKiPN14raptor_physics7vg_metaEESaIS6_ENS_10_Select1stESt8equal_toIiESt4hashIiENS_18_Mod_range_hashingENS_20_Default_ranged_hashENS_20_Prime_rehash_policyENS_17_Hashtable_traitsILb0ELb0ELb1EEEEC2Ev
FN:597,_ZNSt8__detail12_Insert_baseIiSt4pairIKiPN14raptor_physics7vg_metaEESaIS6_ENS_10_Select1stESt8equal_toIiESt4hashIiENS_18_Mod_range_hashingENS_20_Default_ranged_hashENS_20_Prime_rehash_policyENS_17_Hashtable_traitsILb0ELb0ELb1EEEE20_M_conjure_hashtableEv
FN:736,_ZNSt8__detail7_InsertIiSt4pairIKiPN14raptor_physics7vg_metaEESaIS6_ENS_10_Select1stESt8equal_toIiESt4hashIiENS_18_Mod_range_hashingENS_20_Default_ranged_hashENS_20_Prime_rehash_policyENS_17_Hashtable_traitsILb0ELb0ELb1EEELb0ELb1EEC2Ev
FN:766,_ZNSt8__detail7_InsertIiSt4pairIKiPN14raptor_physics7vg_metaEESaIS6_ENS_10_Select1stESt8equal_toIiESt4hashIiENS_18_Mod_range_hashingENS_20_Default_ranged_hashENS_20_Prime_rehash_policyENS_17_Hashtable_traitsILb0ELb0ELb1EEELb0ELb1EE6insertIS1_IiS5_EvEES1_INS_14_Node_iteratorIS6_Lb0ELb0EEEbEOT_
FN:840,_ZNSt8__detail21_Hashtable_ebo_helperILi0ESt8equal_toIiELb1EEC2ERKS2_
FN:840,_ZNSt8__detail21_Hashtable_ebo_helperILi1ESt4hashIiELb1EEC2ERKS2_
FN:840,_ZNSt8__detail21_Hashtable_ebo_helperILi2ENS_18_Mod_range_hashingELb1EEC2ERKS1_
FN:840,_ZNSt8__detail21_Hashtable_ebo_helperILi0ENS_10_Select1stELb1EEC2ERKS1_
FN:844,_ZNSt8__detail21_Hashtable_ebo_helperILi0ESt8equal_toIiELb1EE7_S_cgetERKS3_
FN:844,_ZNSt8__detail21_Hashtable_ebo_helperILi2ENS_18_Mod_range_hashingELb1EE7_S_cgetERKS2_
FN:844,_ZNSt8__detail21_Hashtable_ebo_helperILi0ENS_10_Select1stELb1EE7_S_cgetERKS2_
FN:844,_ZNSt8__detail21_Hashtable_ebo_helperILi1ESt4hashIiELb1EE7_S_cgetERKS3_
FN:848,_ZNSt8__detail21_Hashtable_ebo_helperILi0ENS_10_Select1stELb1EE6_S_getERS2_
FN:1012,_ZNSt8__detail15_Hash_code_baseIiSt4pairIKiPN14raptor_physics7vg_metaEENS_10_Select1stESt4hashIiENS_18_Mod_range_hashingENS_20_Default_ranged_hashELb0EEC2ERKS7_RKS9_RKSA_RKSB_
FN:1018,_ZNKSt8__detail15_Hash_code_baseIiSt4pairIKiPN14raptor_physics7vg_metaEENS_10_Select1stESt4hashIiENS_18_Mod_range_hashingENS_20_Default_ranged_hashELb0EE12_M_hash_codeERS2_
FN:1022,_ZNKSt8__detail15_Hash_code_baseIiSt4pairIKiPN14raptor_physics7vg_metaEENS_10_Select1stESt4hashIiENS_18_Mod_range_hashingENS_20_Default_ranged_hashELb0EE15_M_bucket_indexERS2_mm
FN:1026,_ZNKSt8__detail15_Hash_code_baseIiSt4pairIKiPN14raptor_physics7vg_metaEENS_10_Select1stESt4hashIiENS_18_Mod_range_hashingENS_20_Default_ranged_hashELb0EE15_M_bucket_indexEPKNS_10_Hash_nodeIS6_Lb0EEEm
FN:1031,_ZNKSt8__detail15_Hash_code_baseIiSt4pairIKiPN14raptor_physics7vg_metaEENS_10_Select1stESt4hashIiENS_18_Mod_range_hashingENS_20_Default_ranged_hashELb0EE13_M_store_codeEPNS_10_Hash_nodeIS6_Lb0EEEm
FN:1047,_ZNKSt8__detail15_Hash_code_baseIiSt4pairIKiPN14raptor_physics7vg_metaEENS_10_Select1stESt4hashIiENS_18_Mod_range_hashingENS_20_Default_ranged_hashELb0EE10_M_extractEv
FN:1050,_ZNSt8__detail15_Hash_code_baseIiSt4pairIKiPN14raptor_physics7vg_metaEENS_10_Select1stESt4hashIiENS_18_Mod_range_hashingENS_20_Default_ranged_hashELb0EE10_M_extractEv
FN:1053,_ZNKSt8__detail15_Hash_code_baseIiSt4pairIKiPN14raptor_physics7vg_metaEENS_10_Select1stESt4hashIiENS_18_Mod_range_hashingENS_20_Default_ranged_hashELb0EE5_M_h1Ev
FN:1059,_ZNKSt8__detail15_Hash_code_baseIiSt4pairIKiPN14raptor_physics7vg_metaEENS_10_Select1stESt4hashIiENS_18_Mod_range_hashingENS_20_Default_ranged_hashELb0EE5_M_h2Ev
FN:1175,_ZNSt8__detail13_Equal_helperIiSt4pairIKiPN14raptor_physics7vg_metaEENS_10_Select1stESt8equal_toIiEmLb0EE9_S_equalsERKS9_RKS7_RS2_mPNS_10_Hash_nodeIS6_Lb0EEE
FN:1461,_ZNSt8__detail15_Hashtable_baseIiSt4pairIKiPN14raptor_physics7vg_metaEENS_10_Select1stESt8equal_toIiESt4hashIiENS_18_Mod_range_hashingENS_20_Default_ranged_hashENS_17_Hashtable_traitsILb0ELb0ELb1EEEEC2ERKS7_RKSB_RKSC_RKSD_RKS9_
FN:1467,_ZNKSt8__detail15_Hashtable_baseIiSt4pairIKiPN14raptor_physics7vg_metaEENS_10_Select1stESt8equal_toIiESt4hashIiENS_18_Mod_range_hashingENS_20_Default_ranged_hashENS_17_Hashtable_traitsILb0ELb0ELb1EEEE9_M_equalsERS2_mPNS_10_Hash_nodeIS6_Lb0EEE
FN:1481,_ZNKSt8__detail15_Hashtable_baseIiSt4pairIKiPN14raptor_physics7vg_metaEENS_10_Select1stESt8equal_toIiESt4hashIiENS_18_Mod_range_hashingENS_20_Default_ranged_hashENS_17_Hashtable_traitsILb0ELb0ELb1EEEE5_M_eqEv
FN:1566,_ZNSt8__detail9_EqualityIiSt4pairIKiPN14raptor_physics7vg_metaEESaIS6_ENS_10_Select1stESt8equal_toIiESt4hashIiENS_18_Mod_range_hashingENS_20_Default_ranged_hashENS_20_Prime_rehash_policyENS_17_Hashtable_traitsILb0ELb0ELb1EEELb1EEC2Ev
FN:1652,_ZNSt8__detail13_Before_beginISaINS_10_Hash_nodeISt4pairIKiPN14raptor_physics7vg_metaEELb0EEEEED2Ev
FN:1660,_ZNSt8__detail13_Before_beginISaINS_10_Hash_nodeISt4pairIKiPN14raptor_physics7vg_metaEELb0EEEEEC2IRKSaIS7_EEEOT_
FNDA:44,_ZNKSt8__detail10_Select1stclIRKSt4pairIKiPN14raptor_physics7vg_metaEEEEDTcl3getILi0EEcl7forwardIT_Efp_EEEOSA_
FNDA:544,_ZNKSt8__detail10_Select1stclIRSt4pairIKiPN14raptor_physics7vg_metaEEEEDTcl3getILi0EEcl7forwardIT_Efp_EEEOS9_
FNDA:104,_ZNSt8__detail15_Hash_node_baseC2Ev
FNDA:72,_ZNSt8__detail10_Hash_nodeISt4pairIKiPN14raptor_physics7vg_metaEELb0EEC2IIS1_IiS5_EEEEDpOT_
FNDA:0,_ZNKSt8__detail10_Hash_nodeISt4pairIKiPN14raptor_physics7vg_metaEELb0EE7_M_nextEv
FNDA:0,_ZNSt8__detail19_Node_iterator_baseISt4pairIKiPN14raptor_physics7vg_metaEELb0EEC2EPNS_10_Hash_nodeIS6_Lb0EEE
FNDA:0,_ZNSt8__detail19_Node_iterator_baseISt4pairIKiPN14raptor_physics7vg_metaEELb0EE7_M_incrEv
FNDA:504,_ZNSt8__detaileqISt4pairIKiPN14raptor_physics7vg_metaEELb0EEEbRKNS_19_Node_iterator_baseIT_XT0_EEESB_
FNDA:0,_ZNSt8__detailneISt4pairIKiPN14raptor_physics7vg_metaEELb0EEEbRKNS_19_Node_iterator_baseIT_XT0_EEESB_
FNDA:0,_ZNSt8__detail14_Node_iteratorISt4pairIKiPN14raptor_physics7vg_metaEELb0ELb0EEC2EPNS_10_Hash_nodeIS6_Lb0EEE
FNDA:0,_ZNKSt8__detail14_Node_iteratorISt4pairIKiPN14raptor_physics7vg_metaEELb0ELb0EEdeEv
FNDA:420,_ZNKSt8__detail14_Node_iteratorISt4pairIKiPN14raptor_physics7vg_metaEELb0ELb0EEptEv
FNDA:0,_ZNSt8__detail14_Node_iteratorISt4pairIKiPN14raptor_physics7vg_metaEELb0ELb0EEppEv
FNDA:0,_ZNSt8__detail20_Node_const_iteratorISt4pairIKiPN14raptor_physics7vg_metaEELb0ELb0EEC2ERKNS_14_Node_iteratorIS6_Lb0ELb0EEE
FNDA:656,_ZNKSt8__detail18_Mod_range_hashingclEmm
FNDA:32,_ZNSt8__detail20_Prime_rehash_policyC2Ef
FNDA:72,_ZNKSt8__detail20_Prime_rehash_policy8_M_stateEv
FNDA:0,_ZNSt8__detail20_Prime_rehash_policy8_M_resetEm
FNDA:24,_ZNSt8__detail9_Map_baseIiSt4pairIKiPN14raptor_physics7vg_metaEESaIS6_ENS_10_Select1stESt8equal_toIiESt4hashIiENS_18_Mod_range_hashingENS_20_Default_ranged_hashENS_20_Prime_rehash_policyENS_17_Hashtable_traitsILb0ELb0ELb1EEELb1EE2atERS2_
FNDA:32,_ZNSt8__detail12_Insert_baseIiSt4pairIKiPN14raptor_physics7vg_metaEESaIS6_ENS_10_Select1stESt8equal_toIiESt4hashIiENS_18_Mod_range_hashingENS_20_Default_ranged_hashENS_20_Prime_rehash_policyENS_17_Hashtable_traitsILb0ELb0ELb1EEEEC2Ev
FNDA:72,_ZNSt8__detail12_Insert_baseIiSt4pairIKiPN14raptor_physics7vg_metaEESaIS6_ENS_10_Select1stESt8equal_toIiESt4hashIiENS_18_Mod_range_hashingENS_20_Default_ranged_hashENS_20_Prime_rehash_policyENS_17_Hashtable_traitsILb0ELb0ELb1EEEE20_M_conjure_hashtableEv
FNDA:32,_ZNSt8__detail7_InsertIiSt4pairIKiPN14raptor_physics7vg_metaEESaIS6_ENS_10_Select1stESt8equal_toIiESt4hashIiENS_18_Mod_range_hashingENS_20_Default_ranged_hashENS_20_Prime_rehash_policyENS_17_Hashtable_traitsILb0ELb0ELb1EEELb0ELb1EEC2Ev
FNDA:72,_ZNSt8__detail7_InsertIiSt4pairIKiPN14raptor_physics7vg_metaEESaIS6_ENS_10_Select1stESt8equal_toIiESt4hashIiENS_18_Mod_range_hashingENS_20_Default_ranged_hashENS_20_Prime_rehash_policyENS_17_Hashtable_traitsILb0ELb0ELb1EEELb0ELb1EE6insertIS1_IiS5_EvEES1_INS_14_Node_iteratorIS6_Lb0ELb0EEEbEOT_
FNDA:32,_ZNSt8__detail21_Hashtable_ebo_helperILi2ENS_18_Mod_range_hashingELb1EEC2ERKS1_
FNDA:32,_ZNSt8__detail21_Hashtable_ebo_helperILi1ESt4hashIiELb1EEC2ERKS2_
FNDA:32,_ZNSt8__detail21_Hashtable_ebo_helperILi0ENS_10_Select1stELb1EEC2ERKS1_
FNDA:32,_ZNSt8__detail21_Hashtable_ebo_helperILi0ESt8equal_toIiELb1EEC2ERKS2_
FNDA:516,_ZNSt8__detail21_Hashtable_ebo_helperILi0ENS_10_Select1stELb1EE7_S_cgetERKS2_
FNDA:472,_ZNSt8__detail21_Hashtable_ebo_helperILi0ESt8equal_toIiELb1EE7_S_cgetERKS3_
FNDA:656,_ZNSt8__detail21_Hashtable_ebo_helperILi2ENS_18_Mod_range_hashingELb1EE7_S_cgetERKS2_
FNDA:656,_ZNSt8__detail21_Hashtable_ebo_helperILi1ESt4hashIiELb1EE7_S_cgetERKS3_
FNDA:72,_ZNSt8__detail21_Hashtable_ebo_helperILi0ENS_10_Select1stELb1EE6_S_getERS2_
FNDA:32,_ZNSt8__detail15_Hash_code_baseIiSt4pairIKiPN14raptor_physics7vg_metaEENS_10_Select1stESt4hashIiENS_18_Mod_range_hashingENS_20_Default_ranged_hashELb0EEC2ERKS7_RKS9_RKSA_RKSB_
FNDA:612,_ZNKSt8__detail15_Hash_code_baseIiSt4pairIKiPN14raptor_physics7vg_metaEENS_10_Select1stESt4hashIiENS_18_Mod_range_hashingENS_20_Default_ranged_hashELb0EE12_M_hash_codeERS2_
FNDA:612,_ZNKSt8__detail15_Hash_code_baseIiSt4pairIKiPN14raptor_physics7vg_metaEENS_10_Select1stESt4hashIiENS_18_Mod_range_hashingENS_20_Default_ranged_hashELb0EE15_M_bucket_indexERS2_mm
FNDA:44,_ZNKSt8__detail15_Hash_code_baseIiSt4pairIKiPN14raptor_physics7vg_metaEENS_10_Select1stESt4hashIiENS_18_Mod_range_hashingENS_20_Default_ranged_hashELb0EE15_M_bucket_indexEPKNS_10_Hash_nodeIS6_Lb0EEEm
FNDA:72,_ZNKSt8__detail15_Hash_code_baseIiSt4pairIKiPN14raptor_physics7vg_metaEENS_10_Select1stESt4hashIiENS_18_Mod_range_hashingENS_20_Default_ranged_hashELb0EE13_M_store_codeEPNS_10_Hash_nodeIS6_Lb0EEEm
FNDA:516,_ZNKSt8__detail15_Hash_code_baseIiSt4pairIKiPN14raptor_physics7vg_metaEENS_10_Select1stESt4hashIiENS_18_Mod_range_hashingENS_20_Default_ranged_hashELb0EE10_M_extractEv
FNDA:72,_ZNSt8__detail15_Hash_code_baseIiSt4pairIKiPN14raptor_physics7vg_metaEENS_10_Select1stESt4hashIiENS_18_Mod_range_hashingENS_20_Default_ranged_hashELb0EE10_M_extractEv
FNDA:656,_ZNKSt8__detail15_Hash_code_baseIiSt4pairIKiPN14raptor_physics7vg_metaEENS_10_Select1stESt4hashIiENS_18_Mod_range_hashingENS_20_Default_ranged_hashELb0EE5_M_h1Ev
FNDA:656,_ZNKSt8__detail15_Hash_code_baseIiSt4pairIKiPN14raptor_physics7vg_metaEENS_10_Select1stESt4hashIiENS_18_Mod_range_hashingENS_20_Default_ranged_hashELb0EE5_M_h2Ev
FNDA:472,_ZNSt8__detail13_Equal_helperIiSt4pairIKiPN14raptor_physics7vg_metaEENS_10_Select1stESt8equal_toIiEmLb0EE9_S_equalsERKS9_RKS7_RS2_mPNS_10_Hash_nodeIS6_Lb0EEE
FNDA:32,_ZNSt8__detail15_Hashtable_baseIiSt4pairIKiPN14raptor_physics7vg_metaEENS_10_Select1stESt8equal_toIiESt4hashIiENS_18_Mod_range_hashingENS_20_Default_ranged_hashENS_17_Hashtable_traitsILb0ELb0ELb1EEEEC2ERKS7_RKSB_RKSC_RKSD_RKS9_
FNDA:472,_ZNKSt8__detail15_Hashtable_baseIiSt4pairIKiPN14raptor_physics7vg_metaEENS_10_Select1stESt8equal_toIiESt4hashIiENS_18_Mod_range_hashingENS_20_Default_ranged_hashENS_17_Hashtable_traitsILb0ELb0ELb1EEEE9_M_equalsERS2_mPNS_10_Hash_nodeIS6_Lb0EEE
FNDA:472,_ZNKSt8__detail15_Hashtable_baseIiSt4pairIKiPN14raptor_physics7vg_metaEENS_10_Select1stESt8equal_toIiESt4hashIiENS_18_Mod_range_hashingENS_20_Default_ranged_hashENS_17_Hashtable_traitsILb0ELb0ELb1EEEE5_M_eqEv
FNDA:32,_ZNSt8__detail9_EqualityIiSt4pairIKiPN14raptor_physics7vg_metaEESaIS6_ENS_10_Select1stESt8equal_toIiESt4hashIiENS_18_Mod_range_hashingENS_20_Default_ranged_hashENS_20_Prime_rehash_policyENS_17_Hashtable_traitsILb0ELb0ELb1EEELb1EEC2Ev
FNDA:32,_ZNSt8__detail13_Before_beginISaINS_10_Hash_nodeISt4pairIKiPN14raptor_physics7vg_metaEELb0EEEEED2Ev
FNDA:32,_ZNSt8__detail13_Before_beginISaINS_10_Hash_nodeISt4pairIKiPN14raptor_physics7vg_metaEELb0EEEEEC2IRKSaIS7_EEEOT_
FNF:48
FNH:39
DA:100,588
DA:102,588
DA:153,104
DA:194,72
DA:195,72
DA:198,0
DA:209,0
DA:210,0
DA:213,0
DA:214,0
DA:219,504
DA:221,504
DA:225,0
DA:227,0
DA:253,0
DA:254,0
DA:257,0
DA:258,0
DA:261,420
DA:262,420
DA:265,0
DA:267,0
DA:268,0
DA:304,0
DA:306,0
DA:344,656
DA:345,656
DA:359,32
DA:360,32
DA:386,72
DA:387,72
DA:390,0
DA:391,0
DA:534,24
DA:538,24
DA:539,24
DA:540,24
DA:541,24
DA:543,24
DA:544,0
DA:545,24
DA:577,32
DA:597,72
DA:598,72
DA:736,32
DA:766,72
DA:768,72
DA:769,72
DA:840,128
DA:841,128
DA:844,2300
DA:845,2300
DA:848,72
DA:849,72
DA:1012,32
DA:1015,32
DA:1018,612
DA:1019,612
DA:1022,612
DA:1023,612
DA:1026,44
DA:1028,44
DA:1031,72
DA:1032,72
DA:1047,516
DA:1050,72
DA:1053,656
DA:1059,656
DA:1175,472
DA:1177,472
DA:1461,32
DA:1463,32
DA:1464,32
DA:1467,472
DA:1469,472
DA:1470,944
DA:1481,472
DA:1566,32
DA:1652,32
DA:1660,32
DA:1661,32
DA:1662,32
LF:82
LH:63
end_of_record
SF:/usr/include/c++/4.8/bits/ios_base.h
FN:75,_ZStanSt13_Ios_FmtflagsS_
FN:157,_ZStorSt12_Ios_IostateS_
FN:551,_ZNKSt8ios_base5flagsEv
FN:644,_ZNKSt8ios_base5widthEv
FN:653,_ZNSt8ios_base5widthEl
FN:695,_ZNKSt8ios_base6getlocEv
FNDA:0,_ZStanSt13_Ios_FmtflagsS_
FNDA:0,_ZStorSt12_Ios_IostateS_
FNDA:0,_ZNKSt8ios_base5flagsEv
FNDA:0,_ZNKSt8ios_base5widthEv
FNDA:0,_ZNSt8ios_base5widthEl
FNDA:0,_ZNKSt8ios_base6getlocEv
FNF:6
FNH:0
DA:75,0
DA:76,0
DA:157,0
DA:158,0
DA:551,0
DA:552,0
DA:644,0
DA:645,0
DA:653,0
DA:655,0
DA:656,0
DA:657,0
DA:695,0
DA:696,0
LF:14
LH:0
end_of_record
SF:/usr/include/c++/4.8/bits/locale_facets.h
FN:865,_ZNKSt5ctypeIcE5widenEc
FNDA:0,_ZNKSt5ctypeIcE5widenEc
FNF:1
FNH:0
DA:865,0
DA:867,0
DA:868,0
DA:869,0
DA:870,0
LF:5
LH:0
end_of_record
SF:/usr/include/c++/4.8/bits/move.h
FN:47,_ZSt11__addressofISt4pairIKPN14raptor_physics7vg_metaEPNS1_14collision_infoEEEPT_RS8_
FN:47,_ZSt11__addressofISt4pairIKPN14raptor_physics7vg_metaEPNS1_13tracking_infoIS2_EEEEPT_RS9_
FN:47,_ZSt11__addressofISt4pairIKiPN14raptor_physics7vg_metaEEEPT_RS6_
FN:76,_ZSt7forwardIiEOT_RNSt16remove_referenceIS0_E4typeE
FN:76,_ZSt7forwardIRSt4pairIKiPN14raptor_physics7vg_metaEEEOT_RNSt16remove_referenceIS7_E4typeE
FN:76,_ZSt7forwardIbEOT_RNSt16remove_referenceIS0_E4typeE
FN:76,_ZSt7forwardIRPN14raptor_physics7vg_metaEEOT_RNSt16remove_referenceIS4_E4typeE
FN:76,_ZSt7forwardIP8triangleEOT_RNSt16remove_referenceIS2_E4typeE
FN:76,_ZSt7forwardIP10force_infoEOT_RNSt16remove_referenceIS2_E4typeE
FN:76,_ZSt7forwardIRKSt4pairIKiPN14raptor_physics7vg_metaEEEOT_RNSt16remove_referenceIS8_E4typeE
FN:76,_ZSt7forwardIRKSaISt4pairIKiPN14raptor_physics7vg_metaEEEEOT_RNSt16remove_referenceIS9_E4typeE
FN:76,_ZSt7forwardISt4pairIiPN14raptor_physics7vg_metaEEEOT_RNSt16remove_referenceIS5_E4typeE
FN:76,_ZSt7forwardIPN14raptor_physics7vg_metaEEOT_RNSt16remove_referenceIS3_E4typeE
FN:76,_ZSt7forwardIRPSt6vectorIP8triangleSaIS2_EEEOT_RNSt16remove_referenceIS7_E4typeE
FN:76,_ZSt7forwardINSt8__detail14_Node_iteratorISt4pairIKiPN14raptor_physics7vg_metaEELb0ELb0EEEEOT_RNSt16remove_referenceIS9_E4typeE
FN:76,_ZSt7forwardIRKiEOT_RNSt16remove_referenceIS2_E4typeE
FN:76,_ZSt7forwardISt14default_deleteISt6vectorIP8triangleSaIS3_EEEEOT_RNSt16remove_referenceIS7_E4typeE
FN:101,_ZSt4moveIRP8triangleEONSt16remove_referenceIT_E4typeEOS4_
FN:101,_ZSt4moveIRP10force_infoEONSt16remove_referenceIT_E4typeEOS4_
FNDA:0,_ZSt11__addressofISt4pairIKPN14raptor_physics7vg_metaEPNS1_14collision_infoEEEPT_RS8_
FNDA:0,_ZSt11__addressofISt4pairIKPN14raptor_physics7vg_metaEPNS1_13tracking_infoIS2_EEEEPT_RS9_
FNDA:420,_ZSt11__addressofISt4pairIKiPN14raptor_physics7vg_metaEEEPT_RS6_
FNDA:44,_ZSt7forwardIRKSt4pairIKiPN14raptor_physics7vg_metaEEEOT_RNSt16remove_referenceIS8_E4typeE
FNDA:32,_ZSt7forwardIRKSaISt4pairIKiPN14raptor_physics7vg_metaEEEEOT_RNSt16remove_referenceIS9_E4typeE
FNDA:144,_ZSt7forwardINSt8__detail14_Node_iteratorISt4pairIKiPN14raptor_physics7vg_metaEELb0ELb0EEEEOT_RNSt16remove_referenceIS9_E4typeE
FNDA:544,_ZSt7forwardIRSt4pairIKiPN14raptor_physics7vg_metaEEEOT_RNSt16remove_referenceIS7_E4typeE
FNDA:0,_ZSt7forwardIbEOT_RNSt16remove_referenceIS0_E4typeE
FNDA:80,_ZSt7forwardIP10force_infoEOT_RNSt16remove_referenceIS2_E4typeE
FNDA:408,_ZSt7forwardIP8triangleEOT_RNSt16remove_referenceIS2_E4typeE
FNDA:16,_ZSt7forwardISt14default_deleteISt6vectorIP8triangleSaIS3_EEEEOT_RNSt16remove_referenceIS7_E4typeE
FNDA:12,_ZSt7forwardIRPSt6vectorIP8triangleSaIS2_EEEOT_RNSt16remove_referenceIS7_E4typeE
FNDA:432,_ZSt7forwardISt4pairIiPN14raptor_physics7vg_metaEEEOT_RNSt16remove_referenceIS5_E4typeE
FNDA:0,_ZSt7forwardIRKiEOT_RNSt16remove_referenceIS2_E4typeE
FNDA:72,_ZSt7forwardIPN14raptor_physics7vg_metaEEOT_RNSt16remove_referenceIS3_E4typeE
FNDA:0,_ZSt7forwardIRPN14raptor_physics7vg_metaEEOT_RNSt16remove_referenceIS4_E4typeE
FNDA:216,_ZSt7forwardIiEOT_RNSt16remove_referenceIS0_E4typeE
FNDA:0,_ZSt4moveIRP10force_infoEONSt16remove_referenceIT_E4typeEOS4_
FNDA:96,_ZSt4moveIRP8triangleEONSt16remove_referenceIT_E4typeEOS4_
FNF:19
FNH:13
DA:47,420
DA:50,420
DA:76,2000
DA:77,2000
DA:101,96
DA:102,96
LF:6
LH:6
end_of_record
SF:/usr/include/c++/4.8/bits/stl_algobase.h
FN:193,_ZSt3minIfERKT_S2_S2_
FN:216,_ZSt3maxImERKT_S2_S2_
FN:216,_ZSt3maxIfERKT_S2_S2_
FN:277,_ZSt12__niter_baseIPP10force_infoENSt11_Niter_baseIT_E13iterator_typeES4_
FN:277,_ZSt12__niter_baseIPP8triangleENSt11_Niter_baseIT_E13iterator_typeES4_
FN:277,_ZSt12__niter_baseIPiENSt11_Niter_baseIT_E13iterator_typeES2_
FN:277,_ZSt12__niter_baseIPKiENSt11_Niter_baseIT_E13iterator_typeES3_
FN:288,_ZSt12__miter_baseISt13move_iteratorIPP8triangleEENSt11_Miter_baseIT_E13iterator_typeES6_
FN:288,_ZSt12__miter_baseISt13move_iteratorIPP10force_infoEENSt11_Miter_baseIT_E13iterator_typeES6_
FN:288,_ZSt12__miter_baseIPKiENSt11_Miter_baseIT_E13iterator_typeES3_
FN:288,_ZSt12__miter_baseISt13move_iteratorIPiEENSt11_Miter_baseIT_E13iterator_typeES4_
FN:368,_ZNSt11__copy_moveILb1ELb1ESt26random_access_iterator_tagE8__copy_mIP10force_infoEEPT_PKS5_S8_S6_
FN:368,_ZNSt11__copy_moveILb1ELb1ESt26random_access_iterator_tagE8__copy_mIP8triangleEEPT_PKS5_S8_S6_
FN:368,_ZNSt11__copy_moveILb0ELb1ESt26random_access_iterator_tagE8__copy_mIiEEPT_PKS3_S6_S4_
FN:368,_ZNSt11__copy_moveILb1ELb1ESt26random_access_iterator_tagE8__copy_mIiEEPT_PKS3_S6_S4_
FN:379,_ZSt13__copy_move_aILb1EPP10force_infoS2_ET1_T0_S4_S3_
FN:379,_ZSt13__copy_move_aILb1EPP8triangleS2_ET1_T0_S4_S3_
FN:379,_ZSt13__copy_move_aILb1EPiS0_ET1_T0_S2_S1_
FN:379,_ZSt13__copy_move_aILb0EPKiPiET1_T0_S4_S3_
FN:424,_ZSt14__copy_move_a2ILb1EPP10force_infoS2_ET1_T0_S4_S3_
FN:424,_ZSt14__copy_move_a2ILb1EPiS0_ET1_T0_S2_S1_
FN:424,_ZSt14__copy_move_a2ILb1EPP8triangleS2_ET1_T0_S4_S3_
FN:424,_ZSt14__copy_move_a2ILb0EPKiPiET1_T0_S4_S3_
FN:450,_ZSt4copyISt13move_iteratorIPP8triangleES3_ET0_T_S6_S5_
FN:450,_ZSt4copyIPKiPiET0_T_S4_S3_
FN:450,_ZSt4copyISt13move_iteratorIPP10force_infoES3_ET0_T_S6_S5_
FN:450,_ZSt4copyISt13move_iteratorIPiES1_ET0_T_S4_S3_
FNDA:0,_ZSt3minIfERKT_S2_S2_
FNDA:0,_ZSt3maxImERKT_S2_S2_
FNDA:0,_ZSt3maxIfERKT_S2_S2_
FNDA:48,_ZSt12__niter_baseIPP10force_infoENSt11_Niter_baseIT_E13iterator_typeES4_
FNDA:72,_ZSt12__niter_baseIPP8triangleENSt11_Niter_baseIT_E13iterator_typeES4_
FNDA:0,_ZSt12__niter_baseIPiENSt11_Niter_baseIT_E13iterator_typeES2_
FNDA:256,_ZSt12__niter_baseIPKiENSt11_Niter_baseIT_E13iterator_typeES3_
FNDA:32,_ZSt12__miter_baseISt13move_iteratorIPP10force_infoEENSt11_Miter_baseIT_E13iterator_typeES6_
FNDA:48,_ZSt12__miter_baseISt13move_iteratorIPP8triangleEENSt11_Miter_baseIT_E13iterator_typeES6_
FNDA:0,_ZSt12__miter_baseISt13move_iteratorIPiEENSt11_Miter_baseIT_E13iterator_typeES4_
FNDA:256,_ZSt12__miter_baseIPKiENSt11_Miter_baseIT_E13iterator_typeES3_
FNDA:24,_ZNSt11__copy_moveILb1ELb1ESt26random_access_iterator_tagE8__copy_mIP8triangleEEPT_PKS5_S8_S6_
FNDA:0,_ZNSt11__copy_moveILb1ELb1ESt26random_access_iterator_tagE8__copy_mIiEEPT_PKS3_S6_S4_
FNDA:128,_ZNSt11__copy_moveILb0ELb1ESt26random_access_iterator_tagE8__copy_mIiEEPT_PKS3_S6_S4_
FNDA:0,_ZNSt11__copy_moveILb1ELb1ESt26random_access_iterator_tagE8__copy_mIP10force_infoEEPT_PKS5_S8_S6_
FNDA:24,_ZSt13__copy_move_aILb1EPP8triangleS2_ET1_T0_S4_S3_
FNDA:0,_ZSt13__copy_move_aILb1EPiS0_ET1_T0_S2_S1_
FNDA:128,_ZSt13__copy_move_aILb0EPKiPiET1_T0_S4_S3_
FNDA:0,_ZSt13__copy_move_aILb1EPP10force_infoS2_ET1_T0_S4_S3_
FNDA:16,_ZSt14__copy_move_a2ILb1EPP10force_infoS2_ET1_T0_S4_S3_
FNDA:24,_ZSt14__copy_move_a2ILb1EPP8triangleS2_ET1_T0_S4_S3_
FNDA:0,_ZSt14__copy_move_a2ILb1EPiS0_ET1_T0_S2_S1_
FNDA:128,_ZSt14__copy_move_a2ILb0EPKiPiET1_T0_S4_S3_
FNDA:16,_ZSt4copyISt13move_iteratorIPP10force_infoES3_ET0_T_S6_S5_
FNDA:24,_ZSt4copyISt13move_iteratorIPP8triangleES3_ET0_T_S6_S5_
FNDA:0,_ZSt4copyISt13move_iteratorIPiES1_ET0_T_S4_S3_
FNDA:128,_ZSt4copyIPKiPiET0_T_S4_S3_
FNF:27
FNH:16
DA:193,0
DA:198,0
DA:199,0
DA:200,0
DA:216,0
DA:221,0
DA:222,0
DA:223,0
DA:277,376
DA:278,376
DA:288,336
DA:289,336
DA:368,152
DA:370,152
DA:371,152
DA:372,148
DA:373,152
DA:379,152
DA:387,152
DA:390,152
DA:424,168
DA:428,168
DA:450,168
DA:460,168
LF:24
LH:16
end_of_record
SF:/usr/include/c++/4.8/bits/stl_construct.h
FN:112,_ZNSt12_Destroy_auxILb1EE9__destroyIPP8triangleEEvT_S5_
FN:112,_ZNSt12_Destroy_auxILb1EE9__destroyIPPSt4pairIPN14raptor_physics7vg_metaEfEEEvT_S9_
FN:112,_ZNSt12_Destroy_auxILb1EE9__destroyIPiEEvT_S3_
FN:112,_ZNSt12_Destroy_auxILb1EE9__destroyIPP10force_infoEEvT_S5_
FN:122,_ZSt8_DestroyIPiEvT_S1_
FN:122,_ZSt8_DestroyIPPSt4pairIPN14raptor_physics7vg_metaEfEEvT_S7_
FN:122,_ZSt8_DestroyIPP8triangleEvT_S3_
FN:122,_ZSt8_DestroyIPP10force_infoEvT_S3_
FN:148,_ZSt8_DestroyIPP10force_infoS1_EvT_S3_RSaIT0_E
FN:148,_ZSt8_DestroyIPPSt4pairIPN14raptor_physics7vg_metaEfES5_EvT_S7_RSaIT0_E
FN:148,_ZSt8_DestroyIPP8triangleS1_EvT_S3_RSaIT0_E
FN:148,_ZSt8_DestroyIPiiEvT_S1_RSaIT0_E
FNDA:28,_ZNSt12_Destroy_auxILb1EE9__destroyIPP8triangleEEvT_S5_
FNDA:0,_ZNSt12_Destroy_auxILb1EE9__destroyIPP10force_infoEEvT_S5_
FNDA:0,_ZNSt12_Destroy_auxILb1EE9__destroyIPPSt4pairIPN14raptor_physics7vg_metaEfEEEvT_S9_
FNDA:0,_ZNSt12_Destroy_auxILb1EE9__destroyIPiEEvT_S3_
FNDA:28,_ZSt8_DestroyIPP8triangleEvT_S3_
FNDA:0,_ZSt8_DestroyIPP10force_infoEvT_S3_
FNDA:0,_ZSt8_DestroyIPPSt4pairIPN14raptor_physics7vg_metaEfEEvT_S7_
FNDA:0,_ZSt8_DestroyIPiEvT_S1_
FNDA:28,_ZSt8_DestroyIPP8triangleS1_EvT_S3_RSaIT0_E
FNDA:0,_ZSt8_DestroyIPP10force_infoS1_EvT_S3_RSaIT0_E
FNDA:0,_ZSt8_DestroyIPPSt4pairIPN14raptor_physics7vg_metaEfES5_EvT_S7_RSaIT0_E
FNDA:0,_ZSt8_DestroyIPiiEvT_S1_RSaIT0_E
FNF:12
FNH:3
DA:112,28
DA:122,28
DA:126,28
DA:128,28
DA:148,28
DA:151,28
DA:152,28
LF:7
LH:7
end_of_record
SF:/usr/include/c++/4.8/bits/stl_function.h
FN:207,_ZNKSt8equal_toIiEclERKiS2_
FN:234,_ZNKSt4lessIPN14raptor_physics7vg_metaEEclERKS2_S5_
FN:494,_ZNKSt10_Select1stISt4pairIKPN14raptor_physics7vg_metaEPNS1_13tracking_infoIS2_EEEEclERKS8_
FN:494,_ZNKSt10_Select1stISt4pairIKPN14raptor_physics7vg_metaEPNS1_14collision_infoEEEclERKS7_
FNDA:472,_ZNKSt8equal_toIiEclERKiS2_
FNDA:0,_ZNKSt4lessIPN14raptor_physics7vg_metaEEclERKS2_S5_
FNDA:0,_ZNKSt10_Select1stISt4pairIKPN14raptor_physics7vg_metaEPNS1_14collision_infoEEEclERKS7_
FNDA:0,_ZNKSt10_Select1stISt4pairIKPN14raptor_physics7vg_metaEPNS1_13tracking_infoIS2_EEEEclERKS8_
FNF:4
FNH:1
DA:207,472
DA:208,472
DA:234,0
DA:235,0
DA:494,0
DA:495,0
LF:6
LH:2
end_of_record
SF:/usr/include/c++/4.8/bits/stl_iterator.h
FN:950,_ZNSt13move_iteratorIPP8triangleEC2ES2_
FN:950,_ZNSt13move_iteratorIPiEC2ES0_
FN:950,_ZNSt13move_iteratorIPP10force_infoEC2ES2_
FN:958,_ZNKSt13move_iteratorIPP10force_infoE4baseEv
FN:958,_ZNKSt13move_iteratorIPiE4baseEv
FN:958,_ZNKSt13move_iteratorIPP8triangleE4baseEv
FN:1132,_ZSt32__make_move_if_noexcept_iteratorIPP8triangleSt13move_iteratorIS2_EET0_T_
FN:1132,_ZSt32__make_move_if_noexcept_iteratorIPP10force_infoSt13move_iteratorIS2_EET0_T_
FN:1132,_ZSt32__make_move_if_noexcept_iteratorIPiSt13move_iteratorIS0_EET0_T_
FNDA:32,_ZNSt13move_iteratorIPP10force_infoEC2ES2_
FNDA:48,_ZNSt13move_iteratorIPP8triangleEC2ES2_
FNDA:0,_ZNSt13move_iteratorIPiEC2ES0_
FNDA:32,_ZNKSt13move_iteratorIPP10force_infoE4baseEv
FNDA:48,_ZNKSt13move_iteratorIPP8triangleE4baseEv
FNDA:0,_ZNKSt13move_iteratorIPiE4baseEv
FNDA:32,_ZSt32__make_move_if_noexcept_iteratorIPP10force_infoSt13move_iteratorIS2_EET0_T_
FNDA:48,_ZSt32__make_move_if_noexcept_iteratorIPP8triangleSt13move_iteratorIS2_EET0_T_
FNDA:0,_ZSt32__make_move_if_noexcept_iteratorIPiSt13move_iteratorIS0_EET0_T_
FNF:9
FNH:6
DA:950,80
DA:951,80
DA:958,80
DA:959,80
DA:1132,80
DA:1133,80
LF:6
LH:6
end_of_record
SF:/usr/include/c++/4.8/bits/stl_iterator_base_funcs.h
FN:90,_ZSt10__distanceIPKiENSt15iterator_traitsIT_E15difference_typeES3_S3_St26random_access_iterator_tag
FN:114,_ZSt8distanceIPKiENSt15iterator_traitsIT_E15difference_typeES3_S3_
FNDA:128,_ZSt10__distanceIPKiENSt15iterator_traitsIT_E15difference_typeES3_S3_St26random_access_iterator_tag
FNDA:128,_ZSt8distanceIPKiENSt15iterator_traitsIT_E15difference_typeES3_S3_
FNF:2
FNH:2
DA:90,128
DA:96,128
DA:114,128
DA:118,128
LF:4
LH:4
end_of_record
SF:/usr/include/c++/4.8/bits/stl_iterator_base_types.h
FN:201,_ZSt19__iterator_categoryIPKiENSt15iterator_traitsIT_E17iterator_categoryERKS3_
FN:212,_ZNSt10_Iter_baseIPKiLb0EE7_S_baseES1_
FN:212,_ZNSt10_Iter_baseIPiLb0EE7_S_baseES0_
FN:212,_ZNSt10_Iter_baseIPP8triangleLb0EE7_S_baseES2_
FN:212,_ZNSt10_Iter_baseIPP10force_infoLb0EE7_S_baseES2_
FN:220,_ZNSt10_Iter_baseISt13move_iteratorIPP8triangleELb1EE7_S_baseES4_
FN:220,_ZNSt10_Iter_baseISt13move_iteratorIPiELb1EE7_S_baseES2_
FN:220,_ZNSt10_Iter_baseISt13move_iteratorIPP10force_infoELb1EE7_S_baseES4_
FNDA:128,_ZSt19__iterator_categoryIPKiENSt15iterator_traitsIT_E17iterator_categoryERKS3_
FNDA:48,_ZNSt10_Iter_baseIPP10force_infoLb0EE7_S_baseES2_
FNDA:72,_ZNSt10_Iter_baseIPP8triangleLb0EE7_S_baseES2_
FNDA:0,_ZNSt10_Iter_baseIPiLb0EE7_S_baseES0_
FNDA:512,_ZNSt10_Iter_baseIPKiLb0EE7_S_baseES1_
FNDA:32,_ZNSt10_Iter_baseISt13move_iteratorIPP10force_infoELb1EE7_S_baseES4_
FNDA:48,_ZNSt10_Iter_baseISt13move_iteratorIPP8triangleELb1EE7_S_baseES4_
FNDA:0,_ZNSt10_Iter_baseISt13move_iteratorIPiELb1EE7_S_baseES2_
FNF:8
FNH:6
DA:201,128
DA:202,128
DA:212,632
DA:213,632
DA:220,80
DA:221,80
LF:6
LH:6
end_of_record
SF:/usr/include/c++/4.8/bits/stl_map.h
FN:96,_ZNSt3mapIPN14raptor_physics7vg_metaEPNS0_14collision_infoESt4lessIS2_ESaISt4pairIKS2_S4_EEED2Ev
FN:96,_ZNSt3mapIPN14raptor_physics7vg_metaEPNS0_13tracking_infoIS1_EESt4lessIS2_ESaISt4pairIKS2_S5_EEED2Ev
FN:160,_ZNSt3mapIPN14raptor_physics7vg_metaEPNS0_13tracking_infoIS1_EESt4lessIS2_ESaISt4pairIKS2_S5_EEEC2Ev
FN:320,_ZNSt3mapIPN14raptor_physics7vg_metaEPNS0_14collision_infoESt4lessIS2_ESaISt4pairIKS2_S4_EEE5beginEv
FN:320,_ZNSt3mapIPN14raptor_physics7vg_metaEPNS0_13tracking_infoIS1_EESt4lessIS2_ESaISt4pairIKS2_S5_EEE5beginEv
FN:338,_ZNSt3mapIPN14raptor_physics7vg_metaEPNS0_13tracking_infoIS1_EESt4lessIS2_ESaISt4pairIKS2_S5_EEE3endEv
FN:338,_ZNSt3mapIPN14raptor_physics7vg_metaEPNS0_14collision_infoESt4lessIS2_ESaISt4pairIKS2_S4_EEE3endEv
FN:434,_ZNKSt3mapIPN14raptor_physics7vg_metaEPNS0_13tracking_infoIS1_EESt4lessIS2_ESaISt4pairIKS2_S5_EEE4sizeEv
FN:821,_ZNSt3mapIPN14raptor_physics7vg_metaEPNS0_13tracking_infoIS1_EESt4lessIS2_ESaISt4pairIKS2_S5_EEE4findERS9_
FN:821,_ZNSt3mapIPN14raptor_physics7vg_metaEPNS0_14collision_infoESt4lessIS2_ESaISt4pairIKS2_S4_EEE4findERS8_
FNDA:24,_ZNSt3mapIPN14raptor_physics7vg_metaEPNS0_14collision_infoESt4lessIS2_ESaISt4pairIKS2_S4_EEED2Ev
FNDA:32,_ZNSt3mapIPN14raptor_physics7vg_metaEPNS0_13tracking_infoIS1_EESt4lessIS2_ESaISt4pairIKS2_S5_EEED2Ev
FNDA:32,_ZNSt3mapIPN14raptor_physics7vg_metaEPNS0_13tracking_infoIS1_EESt4lessIS2_ESaISt4pairIKS2_S5_EEEC2Ev
FNDA:0,_ZNSt3mapIPN14raptor_physics7vg_metaEPNS0_14collision_infoESt4lessIS2_ESaISt4pairIKS2_S4_EEE5beginEv
FNDA:0,_ZNSt3mapIPN14raptor_physics7vg_metaEPNS0_13tracking_infoIS1_EESt4lessIS2_ESaISt4pairIKS2_S5_EEE5beginEv
FNDA:0,_ZNSt3mapIPN14raptor_physics7vg_metaEPNS0_14collision_infoESt4lessIS2_ESaISt4pairIKS2_S4_EEE3endEv
FNDA:0,_ZNSt3mapIPN14raptor_physics7vg_metaEPNS0_13tracking_infoIS1_EESt4lessIS2_ESaISt4pairIKS2_S5_EEE3endEv
FNDA:64,_ZNKSt3mapIPN14raptor_physics7vg_metaEPNS0_13tracking_infoIS1_EESt4lessIS2_ESaISt4pairIKS2_S5_EEE4sizeEv
FNDA:0,_ZNSt3mapIPN14raptor_physics7vg_metaEPNS0_14collision_infoESt4lessIS2_ESaISt4pairIKS2_S4_EEE4findERS8_
FNDA:0,_ZNSt3mapIPN14raptor_physics7vg_metaEPNS0_13tracking_infoIS1_EESt4lessIS2_ESaISt4pairIKS2_S5_EEE4findERS9_
FNF:10
FNH:4
DA:96,56
DA:160,32
DA:161,32
DA:320,0
DA:321,0
DA:338,0
DA:339,0
DA:434,64
DA:435,64
DA:821,0
DA:822,0
LF:11
LH:5
end_of_record
SF:/usr/include/c++/4.8/bits/stl_pair.h
FN:144,_ZNSt4pairINSt8__detail14_Node_iteratorIS_IKiPN14raptor_physics7vg_metaEELb0ELb0EEEbEC2IS7_bvEEOT_OT0_
FN:144,_ZNSt4pairIiPN14raptor_physics7vg_metaEEC1IiRS2_vEEOT_OT0_
FN:150,_ZNSt4pairIKiPN14raptor_physics7vg_metaEEC1IiS3_vEEOS_IT_T0_E
FN:276,_ZSt9make_pairIiRPN14raptor_physics7vg_metaEESt4pairINSt17__decay_and_stripIT_E6__typeENS5_IT0_E6__typeEEOS6_OS9_
FN:276,_ZSt9make_pairINSt8__detail14_Node_iteratorISt4pairIKiPN14raptor_physics7vg_metaEELb0ELb0EEEbES2_INSt17__decay_and_stripIT_E6__typeENS9_IT0_E6__typeEEOSA_OSD_
FNDA:72,_ZNSt4pairINSt8__detail14_Node_iteratorIS_IKiPN14raptor_physics7vg_metaEELb0ELb0EEEbEC2IS7_bvEEOT_OT0_
FNDA:72,_ZNSt4pairIiPN14raptor_physics7vg_metaEEC1IiRS2_vEEOT_OT0_
FNDA:72,_ZNSt4pairIKiPN14raptor_physics7vg_metaEEC1IiS3_vEEOS_IT_T0_E
FNDA:72,_ZSt9make_pairINSt8__detail14_Node_iteratorISt4pairIKiPN14raptor_physics7vg_metaEELb0ELb0EEEbES2_INSt17__decay_and_stripIT_E6__typeENS9_IT0_E6__typeEEOSA_OSD_
FNDA:72,_ZSt9make_pairIiRPN14raptor_physics7vg_metaEESt4pairINSt17__decay_and_stripIT_E6__typeENS5_IT0_E6__typeEEOS6_OS9_
FNF:5
FNH:5
DA:144,144
DA:145,144
DA:150,72
DA:151,72
DA:152,72
DA:276,144
DA:281,144
LF:7
LH:7
end_of_record
SF:/usr/include/c++/4.8/bits/stl_tree.h
FN:174,_ZNSt17_Rb_tree_iteratorISt4pairIKPN14raptor_physics7vg_metaEPNS1_14collision_infoEEEC2EPSt13_Rb_tree_nodeIS7_E
FN:174,_ZNSt17_Rb_tree_iteratorISt4pairIKPN14raptor_physics7vg_metaEPNS1_13tracking_infoIS2_EEEEC2EPSt13_Rb_tree_nodeIS8_E
FN:178,_ZNKSt17_Rb_tree_iteratorISt4pairIKPN14raptor_physics7vg_metaEPNS1_14collision_infoEEEdeEv
FN:178,_ZNKSt17_Rb_tree_iteratorISt4pairIKPN14raptor_physics7vg_metaEPNS1_13tracking_infoIS2_EEEEdeEv
FN:182,_ZNKSt17_Rb_tree_iteratorISt4pairIKPN14raptor_physics7vg_metaEPNS1_13tracking_infoIS2_EEEEptEv
FN:182,_ZNKSt17_Rb_tree_iteratorISt4pairIKPN14raptor_physics7vg_metaEPNS1_14collision_infoEEEptEv
FN:187,_ZNSt17_Rb_tree_iteratorISt4pairIKPN14raptor_physics7vg_metaEPNS1_13tracking_infoIS2_EEEEppEv
FN:187,_ZNSt17_Rb_tree_iteratorISt4pairIKPN14raptor_physics7vg_metaEPNS1_14collision_infoEEEppEv
FN:217,_ZNKSt17_Rb_tree_iteratorISt4pairIKPN14raptor_physics7vg_metaEPNS1_14collision_infoEEEeqERKS8_
FN:217,_ZNKSt17_Rb_tree_iteratorISt4pairIKPN14raptor_physics7vg_metaEPNS1_13tracking_infoIS2_EEEEeqERKS9_
FN:221,_ZNKSt17_Rb_tree_iteratorISt4pairIKPN14raptor_physics7vg_metaEPNS1_14collision_infoEEEneERKS8_
FN:221,_ZNKSt17_Rb_tree_iteratorISt4pairIKPN14raptor_physics7vg_metaEPNS1_13tracking_infoIS2_EEEEneERKS9_
FN:356,_ZNSt8_Rb_treeIPN14raptor_physics7vg_metaESt4pairIKS2_PNS0_14collision_infoEESt10_Select1stIS7_ESt4lessIS2_ESaIS7_EE21_M_get_Node_allocatorEv
FN:356,_ZNSt8_Rb_treeIPN14raptor_physics7vg_metaESt4pairIKS2_PNS0_13tracking_infoIS1_EEESt10_Select1stIS8_ESt4lessIS2_ESaIS8_EE21_M_get_Node_allocatorEv
FN:373,_ZNSt8_Rb_treeIPN14raptor_physics7vg_metaESt4pairIKS2_PNS0_14collision_infoEESt10_Select1stIS7_ESt4lessIS2_ESaIS7_EE11_M_put_nodeEPSt13_Rb_tree_nodeIS7_E
FN:373,_ZNSt8_Rb_treeIPN14raptor_physics7vg_metaESt4pairIKS2_PNS0_13tracking_infoIS1_EEESt10_Select1stIS8_ESt4lessIS2_ESaIS8_EE11_M_put_nodeEPSt13_Rb_tree_nodeIS8_E
FN:419,_ZNSt8_Rb_treeIPN14raptor_physics7vg_metaESt4pairIKS2_PNS0_14collision_infoEESt10_Select1stIS7_ESt4lessIS2_ESaIS7_EE15_M_destroy_nodeEPSt13_Rb_tree_nodeIS7_E
FN:419,_ZNSt8_Rb_treeIPN14raptor_physics7vg_metaESt4pairIKS2_PNS0_13tracking_infoIS1_EEESt10_Select1stIS8_ESt4lessIS2_ESaIS8_EE15_M_destroy_nodeEPSt13_Rb_tree_nodeIS8_E
FN:439,_ZNSt8_Rb_treeIPN14raptor_physics7vg_metaESt4pairIKS2_PNS0_13tracking_infoIS1_EEESt10_Select1stIS8_ESt4lessIS2_ESaIS8_EE13_Rb_tree_implISC_Lb1EED2Ev
FN:439,_ZNSt8_Rb_treeIPN14raptor_physics7vg_metaESt4pairIKS2_PNS0_14collision_infoEESt10_Select1stIS7_ESt4lessIS2_ESaIS7_EE13_Rb_tree_implISB_Lb1EED2Ev
FN:445,_ZNSt8_Rb_treeIPN14raptor_physics7vg_metaESt4pairIKS2_PNS0_13tracking_infoIS1_EEESt10_Select1stIS8_ESt4lessIS2_ESaIS8_EE13_Rb_tree_implISC_Lb1EEC2Ev
FN:464,_ZNSt8_Rb_treeIPN14raptor_physics7vg_metaESt4pairIKS2_PNS0_13tracking_infoIS1_EEESt10_Select1stIS8_ESt4lessIS2_ESaIS8_EE13_Rb_tree_implISC_Lb1EE13_M_initializeEv
FN:501,_ZNSt8_Rb_treeIPN14raptor_physics7vg_metaESt4pairIKS2_PNS0_14collision_infoEESt10_Select1stIS7_ESt4lessIS2_ESaIS7_EE8_M_beginEv
FN:501,_ZNSt8_Rb_treeIPN14raptor_physics7vg_metaESt4pairIKS2_PNS0_13tracking_infoIS1_EEESt10_Select1stIS8_ESt4lessIS2_ESaIS8_EE8_M_beginEv
FN:512,_ZNSt8_Rb_treeIPN14raptor_physics7vg_metaESt4pairIKS2_PNS0_13tracking_infoIS1_EEESt10_Select1stIS8_ESt4lessIS2_ESaIS8_EE6_M_endEv
FN:512,_ZNSt8_Rb_treeIPN14raptor_physics7vg_metaESt4pairIKS2_PNS0_14collision_infoEESt10_Select1stIS7_ESt4lessIS2_ESaIS7_EE6_M_endEv
FN:520,_ZNSt8_Rb_treeIPN14raptor_physics7vg_metaESt4pairIKS2_PNS0_13tracking_infoIS1_EEESt10_Select1stIS8_ESt4lessIS2_ESaIS8_EE8_S_valueEPKSt13_Rb_tree_nodeIS8_E
FN:520,_ZNSt8_Rb_treeIPN14raptor_physics7vg_metaESt4pairIKS2_PNS0_14collision_infoEESt10_Select1stIS7_ESt4lessIS2_ESaIS7_EE8_S_valueEPKSt13_Rb_tree_nodeIS7_E
FN:524,_ZNSt8_Rb_treeIPN14raptor_physics7vg_metaESt4pairIKS2_PNS0_13tracking_infoIS1_EEESt10_Select1stIS8_ESt4lessIS2_ESaIS8_EE6_S_keyEPKSt13_Rb_tree_nodeIS8_E
FN:524,_ZNSt8_Rb_treeIPN14raptor_physics7vg_metaESt4pairIKS2_PNS0_14collision_infoEESt10_Select1stIS7_ESt4lessIS2_ESaIS7_EE6_S_keyEPKSt13_Rb_tree_nodeIS7_E
FN:528,_ZNSt8_Rb_treeIPN14raptor_physics7vg_metaESt4pairIKS2_PNS0_13tracking_infoIS1_EEESt10_Select1stIS8_ESt4lessIS2_ESaIS8_EE7_S_leftEPSt18_Rb_tree_node_base
FN:528,_ZNSt8_Rb_treeIPN14raptor_physics7vg_metaESt4pairIKS2_PNS0_14collision_infoEESt10_Select1stIS7_ESt4lessIS2_ESaIS7_EE7_S_leftEPSt18_Rb_tree_node_base
FN:536,_ZNSt8_Rb_treeIPN14raptor_physics7vg_metaESt4pairIKS2_PNS0_14collision_infoEESt10_Select1stIS7_ESt4lessIS2_ESaIS7_EE8_S_rightEPSt18_Rb_tree_node_base
FN:536,_ZNSt8_Rb_treeIPN14raptor_physics7vg_metaESt4pairIKS2_PNS0_13tracking_infoIS1_EEESt10_Select1stIS8_ESt4lessIS2_ESaIS8_EE8_S_rightEPSt18_Rb_tree_node_base
FN:544,_ZNSt8_Rb_treeIPN14raptor_physics7vg_metaESt4pairIKS2_PNS0_14collision_infoEESt10_Select1stIS7_ESt4lessIS2_ESaIS7_EE8_S_valueEPKSt18_Rb_tree_node_base
FN:544,_ZNSt8_Rb_treeIPN14raptor_physics7vg_metaESt4pairIKS2_PNS0_13tracking_infoIS1_EEESt10_Select1stIS8_ESt4lessIS2_ESaIS8_EE8_S_valueEPKSt18_Rb_tree_node_base
FN:548,_ZNSt8_Rb_treeIPN14raptor_physics7vg_metaESt4pairIKS2_PNS0_13tracking_infoIS1_EEESt10_Select1stIS8_ESt4lessIS2_ESaIS8_EE6_S_keyEPKSt18_Rb_tree_node_base
FN:548,_ZNSt8_Rb_treeIPN14raptor_physics7vg_metaESt4pairIKS2_PNS0_14collision_infoEESt10_Select1stIS7_ESt4lessIS2_ESaIS7_EE6_S_keyEPKSt18_Rb_tree_node_base
FN:648,_ZNSt8_Rb_treeIPN14raptor_physics7vg_metaESt4pairIKS2_PNS0_13tracking_infoIS1_EEESt10_Select1stIS8_ESt4lessIS2_ESaIS8_EEC2Ev
FN:670,_ZNSt8_Rb_treeIPN14raptor_physics7vg_metaESt4pairIKS2_PNS0_14collision_infoEESt10_Select1stIS7_ESt4lessIS2_ESaIS7_EED2Ev
FN:670,_ZNSt8_Rb_treeIPN14raptor_physics7vg_metaESt4pairIKS2_PNS0_13tracking_infoIS1_EEESt10_Select1stIS8_ESt4lessIS2_ESaIS8_EED2Ev
FN:682,_ZNSt8_Rb_treeIPN14raptor_physics7vg_metaESt4pairIKS2_PNS0_14collision_infoEESt10_Select1stIS7_ESt4lessIS2_ESaIS7_EE5beginEv
FN:682,_ZNSt8_Rb_treeIPN14raptor_physics7vg_metaESt4pairIKS2_PNS0_13tracking_infoIS1_EEESt10_Select1stIS8_ESt4lessIS2_ESaIS8_EE5beginEv
FN:696,_ZNSt8_Rb_treeIPN14raptor_physics7vg_metaESt4pairIKS2_PNS0_13tracking_infoIS1_EEESt10_Select1stIS8_ESt4lessIS2_ESaIS8_EE3endEv
FN:696,_ZNSt8_Rb_treeIPN14raptor_physics7vg_metaESt4pairIKS2_PNS0_14collision_infoEESt10_Select1stIS7_ESt4lessIS2_ESaIS7_EE3endEv
FN:727,_ZNKSt8_Rb_treeIPN14raptor_physics7vg_metaESt4pairIKS2_PNS0_13tracking_infoIS1_EEESt10_Select1stIS8_ESt4lessIS2_ESaIS8_EE4sizeEv
FN:1119,_ZNSt8_Rb_treeIPN14raptor_physics7vg_metaESt4pairIKS2_PNS0_13tracking_infoIS1_EEESt10_Select1stIS8_ESt4lessIS2_ESaIS8_EE8_M_eraseEPSt13_Rb_tree_nodeIS8_E
FN:1119,_ZNSt8_Rb_treeIPN14raptor_physics7vg_metaESt4pairIKS2_PNS0_14collision_infoEESt10_Select1stIS7_ESt4lessIS2_ESaIS7_EE8_M_eraseEPSt13_Rb_tree_nodeIS7_E
FN:1136,_ZNSt8_Rb_treeIPN14raptor_physics7vg_metaESt4pairIKS2_PNS0_13tracking_infoIS1_EEESt10_Select1stIS8_ESt4lessIS2_ESaIS8_EE14_M_lower_boundEPSt13_Rb_tree_nodeIS8_ESH_RS4_
FN:1136,_ZNSt8_Rb_treeIPN14raptor_physics7vg_metaESt4pairIKS2_PNS0_14collision_infoEESt10_Select1stIS7_ESt4lessIS2_ESaIS7_EE14_M_lower_boundEPSt13_Rb_tree_nodeIS7_ESG_RS4_
FN:1789,_ZNSt8_Rb_treeIPN14raptor_physics7vg_metaESt4pairIKS2_PNS0_14collision_infoEESt10_Select1stIS7_ESt4lessIS2_ESaIS7_EE4findERS4_
FN:1789,_ZNSt8_Rb_treeIPN14raptor_physics7vg_metaESt4pairIKS2_PNS0_13tracking_infoIS1_EEESt10_Select1stIS8_ESt4lessIS2_ESaIS8_EE4findERS4_
FNDA:0,_ZNSt17_Rb_tree_iteratorISt4pairIKPN14raptor_physics7vg_metaEPNS1_14collision_infoEEEC2EPSt13_Rb_tree_nodeIS7_E
FNDA:0,_ZNSt17_Rb_tree_iteratorISt4pairIKPN14raptor_physics7vg_metaEPNS1_13tracking_infoIS2_EEEEC2EPSt13_Rb_tree_nodeIS8_E
FNDA:0,_ZNKSt17_Rb_tree_iteratorISt4pairIKPN14raptor_physics7vg_metaEPNS1_14collision_infoEEEdeEv
FNDA:0,_ZNKSt17_Rb_tree_iteratorISt4pairIKPN14raptor_physics7vg_metaEPNS1_13tracking_infoIS2_EEEEdeEv
FNDA:0,_ZNKSt17_Rb_tree_iteratorISt4pairIKPN14raptor_physics7vg_metaEPNS1_14collision_infoEEEptEv
FNDA:0,_ZNKSt17_Rb_tree_iteratorISt4pairIKPN14raptor_physics7vg_metaEPNS1_13tracking_infoIS2_EEEEptEv
FNDA:0,_ZNSt17_Rb_tree_iteratorISt4pairIKPN14raptor_physics7vg_metaEPNS1_14collision_infoEEEppEv
FNDA:0,_ZNSt17_Rb_tree_iteratorISt4pairIKPN14raptor_physics7vg_metaEPNS1_13tracking_infoIS2_EEEEppEv
FNDA:0,_ZNKSt17_Rb_tree_iteratorISt4pairIKPN14raptor_physics7vg_metaEPNS1_14collision_infoEEEeqERKS8_
FNDA:0,_ZNKSt17_Rb_tree_iteratorISt4pairIKPN14raptor_physics7vg_metaEPNS1_13tracking_infoIS2_EEEEeqERKS9_
FNDA:0,_ZNKSt17_Rb_tree_iteratorISt4pairIKPN14raptor_physics7vg_metaEPNS1_14collision_infoEEEneERKS8_
FNDA:0,_ZNKSt17_Rb_tree_iteratorISt4pairIKPN14raptor_physics7vg_metaEPNS1_13tracking_infoIS2_EEEEneERKS9_
FNDA:0,_ZNSt8_Rb_treeIPN14raptor_physics7vg_metaESt4pairIKS2_PNS0_14collision_infoEESt10_Select1stIS7_ESt4lessIS2_ESaIS7_EE21_M_get_Node_allocatorEv
FNDA:0,_ZNSt8_Rb_treeIPN14raptor_physics7vg_metaESt4pairIKS2_PNS0_13tracking_infoIS1_EEESt10_Select1stIS8_ESt4lessIS2_ESaIS8_EE21_M_get_Node_allocatorEv
FNDA:0,_ZNSt8_Rb_treeIPN14raptor_physics7vg_metaESt4pairIKS2_PNS0_14collision_infoEESt10_Select1stIS7_ESt4lessIS2_ESaIS7_EE11_M_put_nodeEPSt13_Rb_tree_nodeIS7_E
FNDA:0,_ZNSt8_Rb_treeIPN14raptor_physics7vg_metaESt4pairIKS2_PNS0_13tracking_infoIS1_EEESt10_Select1stIS8_ESt4lessIS2_ESaIS8_EE11_M_put_nodeEPSt13_Rb_tree_nodeIS8_E
FNDA:0,_ZNSt8_Rb_treeIPN14raptor_physics7vg_metaESt4pairIKS2_PNS0_14collision_infoEESt10_Select1stIS7_ESt4lessIS2_ESaIS7_EE15_M_destroy_nodeEPSt13_Rb_tree_nodeIS7_E
FNDA:0,_ZNSt8_Rb_treeIPN14raptor_physics7vg_metaESt4pairIKS2_PNS0_13tracking_infoIS1_EEESt10_Select1stIS8_ESt4lessIS2_ESaIS8_EE15_M_destroy_nodeEPSt13_Rb_tree_nodeIS8_E
FNDA:0,_ZNSt8_Rb_treeIPN14raptor_physics7vg_metaESt4pairIKS2_PNS0_14collision_infoEESt10_Select1stIS7_ESt4lessIS2_ESaIS7_EE13_Rb_tree_implISB_Lb1EED2Ev
FNDA:32,_ZNSt8_Rb_treeIPN14raptor_physics7vg_metaESt4pairIKS2_PNS0_13tracking_infoIS1_EEESt10_Select1stIS8_ESt4lessIS2_ESaIS8_EE13_Rb_tree_implISC_Lb1EED2Ev
FNDA:32,_ZNSt8_Rb_treeIPN14raptor_physics7vg_metaESt4pairIKS2_PNS0_13tracking_infoIS1_EEESt10_Select1stIS8_ESt4lessIS2_ESaIS8_EE13_Rb_tree_implISC_Lb1EEC2Ev
FNDA:32,_ZNSt8_Rb_treeIPN14raptor_physics7vg_metaESt4pairIKS2_PNS0_13tracking_infoIS1_EEESt10_Select1stIS8_ESt4lessIS2_ESaIS8_EE13_Rb_tree_implISC_Lb1EE13_M_initializeEv
FNDA:0,_ZNSt8_Rb_treeIPN14raptor_physics7vg_metaESt4pairIKS2_PNS0_14collision_infoEESt10_Select1stIS7_ESt4lessIS2_ESaIS7_EE8_M_beginEv
FNDA:0,_ZNSt8_Rb_treeIPN14raptor_physics7vg_metaESt4pairIKS2_PNS0_13tracking_infoIS1_EEESt10_Select1stIS8_ESt4lessIS2_ESaIS8_EE8_M_beginEv
FNDA:0,_ZNSt8_Rb_treeIPN14raptor_physics7vg_metaESt4pairIKS2_PNS0_14collision_infoEESt10_Select1stIS7_ESt4lessIS2_ESaIS7_EE6_M_endEv
FNDA:0,_ZNSt8_Rb_treeIPN14raptor_physics7vg_metaESt4pairIKS2_PNS0_13tracking_infoIS1_EEESt10_Select1stIS8_ESt4lessIS2_ESaIS8_EE6_M_endEv
FNDA:0,_ZNSt8_Rb_treeIPN14raptor_physics7vg_metaESt4pairIKS2_PNS0_14collision_infoEESt10_Select1stIS7_ESt4lessIS2_ESaIS7_EE8_S_valueEPKSt13_Rb_tree_nodeIS7_E
FNDA:0,_ZNSt8_Rb_treeIPN14raptor_physics7vg_metaESt4pairIKS2_PNS0_13tracking_infoIS1_EEESt10_Select1stIS8_ESt4lessIS2_ESaIS8_EE8_S_valueEPKSt13_Rb_tree_nodeIS8_E
FNDA:0,_ZNSt8_Rb_treeIPN14raptor_physics7vg_metaESt4pairIKS2_PNS0_14collision_infoEESt10_Select1stIS7_ESt4lessIS2_ESaIS7_EE6_S_keyEPKSt13_Rb_tree_nodeIS7_E
FNDA:0,_ZNSt8_Rb_treeIPN14raptor_physics7vg_metaESt4pairIKS2_PNS0_13tracking_infoIS1_EEESt10_Select1stIS8_ESt4lessIS2_ESaIS8_EE6_S_keyEPKSt13_Rb_tree_nodeIS8_E
FNDA:0,_ZNSt8_Rb_treeIPN14raptor_physics7vg_metaESt4pairIKS2_PNS0_14collision_infoEESt10_Select1stIS7_ESt4lessIS2_ESaIS7_EE7_S_leftEPSt18_Rb_tree_node_base
FNDA:0,_ZNSt8_Rb_treeIPN14raptor_physics7vg_metaESt4pairIKS2_PNS0_13tracking_infoIS1_EEESt10_Select1stIS8_ESt4lessIS2_ESaIS8_EE7_S_leftEPSt18_Rb_tree_node_base
FNDA:0,_ZNSt8_Rb_treeIPN14raptor_physics7vg_metaESt4pairIKS2_PNS0_14collision_infoEESt10_Select1stIS7_ESt4lessIS2_ESaIS7_EE8_S_rightEPSt18_Rb_tree_node_base
FNDA:0,_ZNSt8_Rb_treeIPN14raptor_physics7vg_metaESt4pairIKS2_PNS0_13tracking_infoIS1_EEESt10_Select1stIS8_ESt4lessIS2_ESaIS8_EE8_S_rightEPSt18_Rb_tree_node_base
FNDA:0,_ZNSt8_Rb_treeIPN14raptor_physics7vg_metaESt4pairIKS2_PNS0_14collision_infoEESt10_Select1stIS7_ESt4lessIS2_ESaIS7_EE8_S_valueEPKSt18_Rb_tree_node_base
FNDA:0,_ZNSt8_Rb_treeIPN14raptor_physics7vg_metaESt4pairIKS2_PNS0_13tracking_infoIS1_EEESt10_Select1stIS8_ESt4lessIS2_ESaIS8_EE8_S_valueEPKSt18_Rb_tree_node_base
FNDA:0,_ZNSt8_Rb_treeIPN14raptor_physics7vg_metaESt4pairIKS2_PNS0_14collision_infoEESt10_Select1stIS7_ESt4lessIS2_ESaIS7_EE6_S_keyEPKSt18_Rb_tree_node_base
FNDA:0,_ZNSt8_Rb_treeIPN14raptor_physics7vg_metaESt4pairIKS2_PNS0_13tracking_infoIS1_EEESt10_Select1stIS8_ESt4lessIS2_ESaIS8_EE6_S_keyEPKSt18_Rb_tree_node_base
FNDA:32,_ZNSt8_Rb_treeIPN14raptor_physics7vg_metaESt4pairIKS2_PNS0_13tracking_infoIS1_EEESt10_Select1stIS8_ESt4lessIS2_ESaIS8_EEC2Ev
FNDA:0,_ZNSt8_Rb_treeIPN14raptor_physics7vg_metaESt4pairIKS2_PNS0_14collision_infoEESt10_Select1stIS7_ESt4lessIS2_ESaIS7_EED2Ev
FNDA:32,_ZNSt8_Rb_treeIPN14raptor_physics7vg_metaESt4pairIKS2_PNS0_13tracking_infoIS1_EEESt10_Select1stIS8_ESt4lessIS2_ESaIS8_EED2Ev
FNDA:0,_ZNSt8_Rb_treeIPN14raptor_physics7vg_metaESt4pairIKS2_PNS0_14collision_infoEESt10_Select1stIS7_ESt4lessIS2_ESaIS7_EE5beginEv
FNDA:0,_ZNSt8_Rb_treeIPN14raptor_physics7vg_metaESt4pairIKS2_PNS0_13tracking_infoIS1_EEESt10_Select1stIS8_ESt4lessIS2_ESaIS8_EE5beginEv
FNDA:0,_ZNSt8_Rb_treeIPN14raptor_physics7vg_metaESt4pairIKS2_PNS0_14collision_infoEESt10_Select1stIS7_ESt4lessIS2_ESaIS7_EE3endEv
FNDA:0,_ZNSt8_Rb_treeIPN14raptor_physics7vg_metaESt4pairIKS2_PNS0_13tracking_infoIS1_EEESt10_Select1stIS8_ESt4lessIS2_ESaIS8_EE3endEv
FNDA:0,_ZNKSt8_Rb_treeIPN14raptor_physics7vg_metaESt4pairIKS2_PNS0_13tracking_infoIS1_EEESt10_Select1stIS8_ESt4lessIS2_ESaIS8_EE4sizeEv
FNDA:0,_ZNSt8_Rb_treeIPN14raptor_physics7vg_metaESt4pairIKS2_PNS0_14collision_infoEESt10_Select1stIS7_ESt4lessIS2_ESaIS7_EE8_M_eraseEPSt13_Rb_tree_nodeIS7_E
FNDA:56,_ZNSt8_Rb_treeIPN14raptor_physics7vg_metaESt4pairIKS2_PNS0_13tracking_infoIS1_EEESt10_Select1stIS8_ESt4lessIS2_ESaIS8_EE8_M_eraseEPSt13_Rb_tree_nodeIS8_E
FNDA:0,_ZNSt8_Rb_treeIPN14raptor_physics7vg_metaESt4pairIKS2_PNS0_14collision_infoEESt10_Select1stIS7_ESt4lessIS2_ESaIS7_EE14_M_lower_boundEPSt13_Rb_tree_nodeIS7_ESG_RS4_
FNDA:0,_ZNSt8_Rb_treeIPN14raptor_physics7vg_metaESt4pairIKS2_PNS0_13tracking_infoIS1_EEESt10_Select1stIS8_ESt4lessIS2_ESaIS8_EE14_M_lower_boundEPSt13_Rb_tree_nodeIS8_ESH_RS4_
FNDA:0,_ZNSt8_Rb_treeIPN14raptor_physics7vg_metaESt4pairIKS2_PNS0_14collision_infoEESt10_Select1stIS7_ESt4lessIS2_ESaIS7_EE4findERS4_
FNDA:0,_ZNSt8_Rb_treeIPN14raptor_physics7vg_metaESt4pairIKS2_PNS0_13tracking_infoIS1_EEESt10_Select1stIS8_ESt4lessIS2_ESaIS8_EE4findERS4_
FNF:52
FNH:6
DA:174,0
DA:175,0
DA:178,0
DA:179,0
DA:182,0
DA:184,0
DA:187,0
DA:189,0
DA:190,0
DA:217,0
DA:218,0
DA:221,0
DA:222,0
DA:356,0
DA:357,0
DA:373,0
DA:374,0
DA:419,0
DA:421,0
DA:422,0
DA:423,0
DA:439,32
DA:445,32
DA:447,32
DA:448,32
DA:464,32
DA:466,32
DA:467,32
DA:468,32
DA:469,32
DA:470,32
DA:501,0
DA:502,0
DA:512,0
DA:513,0
DA:520,0
DA:521,0
DA:524,0
DA:525,0
DA:528,0
DA:529,0
DA:536,0
DA:537,0
DA:544,0
DA:545,0
DA:548,0
DA:549,0
DA:648,32
DA:670,32
DA:671,32
DA:682,0
DA:685,0
DA:696,0
DA:697,0
DA:727,0
DA:728,0
DA:1119,56
DA:1123,136
DA:1125,24
DA:1126,24
DA:1127,24
DA:1128,24
DA:1130,56
DA:1136,0
DA:1140,0
DA:1141,0
DA:1142,0
DA:1144,0
DA:1145,0
DA:1789,0
DA:1792,0
DA:1793,0
DA:1794,0
DA:1795,0
LF:74
LH:20
end_of_record
SF:/usr/include/c++/4.8/bits/stl_uninitialized.h
FN:91,_ZNSt20__uninitialized_copyILb1EE13__uninit_copyISt13move_iteratorIPP10force_infoES5_EET0_T_S8_S7_
FN:91,_ZNSt20__uninitialized_copyILb1EE13__uninit_copyISt13move_iteratorIPP8triangleES5_EET0_T_S8_S7_
FN:91,_ZNSt20__uninitialized_copyILb1EE13__uninit_copyISt13move_iteratorIPiES3_EET0_T_S6_S5_
FN:91,_ZNSt20__uninitialized_copyILb1EE13__uninit_copyIPKiPiEET0_T_S6_S5_
FN:107,_ZSt18uninitialized_copyISt13move_iteratorIPP8triangleES3_ET0_T_S6_S5_
FN:107,_ZSt18uninitialized_copyIPKiPiET0_T_S4_S3_
FN:107,_ZSt18uninitialized_copyISt13move_iteratorIPP10force_infoES3_ET0_T_S6_S5_
FN:107,_ZSt18uninitialized_copyISt13move_iteratorIPiES1_ET0_T_S4_S3_
FN:256,_ZSt22__uninitialized_copy_aISt13move_iteratorIPP8triangleES3_S2_ET0_T_S6_S5_RSaIT1_E
FN:256,_ZSt22__uninitialized_copy_aISt13move_iteratorIPP10force_infoES3_S2_ET0_T_S6_S5_RSaIT1_E
FN:256,_ZSt22__uninitialized_copy_aISt13move_iteratorIPiES1_iET0_T_S4_S3_RSaIT1_E
FN:256,_ZSt22__uninitialized_copy_aIPKiPiiET0_T_S4_S3_RSaIT1_E
FN:274,_ZSt34__uninitialized_move_if_noexcept_aIPP8triangleS2_SaIS1_EET0_T_S5_S4_RT1_
FN:274,_ZSt34__uninitialized_move_if_noexcept_aIPiS0_SaIiEET0_T_S3_S2_RT1_
FN:274,_ZSt34__uninitialized_move_if_noexcept_aIPP10force_infoS2_SaIS1_EET0_T_S5_S4_RT1_
FNDA:16,_ZNSt20__uninitialized_copyILb1EE13__uninit_copyISt13move_iteratorIPP10force_infoES5_EET0_T_S8_S7_
FNDA:24,_ZNSt20__uninitialized_copyILb1EE13__uninit_copyISt13move_iteratorIPP8triangleES5_EET0_T_S8_S7_
FNDA:0,_ZNSt20__uninitialized_copyILb1EE13__uninit_copyISt13move_iteratorIPiES3_EET0_T_S6_S5_
FNDA:128,_ZNSt20__uninitialized_copyILb1EE13__uninit_copyIPKiPiEET0_T_S6_S5_
FNDA:16,_ZSt18uninitialized_copyISt13move_iteratorIPP10force_infoES3_ET0_T_S6_S5_
FNDA:24,_ZSt18uninitialized_copyISt13move_iteratorIPP8triangleES3_ET0_T_S6_S5_
FNDA:0,_ZSt18uninitialized_copyISt13move_iteratorIPiES1_ET0_T_S4_S3_
FNDA:128,_ZSt18uninitialized_copyIPKiPiET0_T_S4_S3_
FNDA:16,_ZSt22__uninitialized_copy_aISt13move_iteratorIPP10force_infoES3_S2_ET0_T_S6_S5_RSaIT1_E
FNDA:24,_ZSt22__uninitialized_copy_aISt13move_iteratorIPP8triangleES3_S2_ET0_T_S6_S5_RSaIT1_E
FNDA:0,_ZSt22__uninitialized_copy_aISt13move_iteratorIPiES1_iET0_T_S4_S3_RSaIT1_E
FNDA:128,_ZSt22__uninitialized_copy_aIPKiPiiET0_T_S4_S3_RSaIT1_E
FNDA:16,_ZSt34__uninitialized_move_if_noexcept_aIPP10force_infoS2_SaIS1_EET0_T_S5_S4_RT1_
FNDA:24,_ZSt34__uninitialized_move_if_noexcept_aIPP8triangleS2_SaIS1_EET0_T_S5_S4_RT1_
FNDA:0,_ZSt34__uninitialized_move_if_noexcept_aIPiS0_SaIiEET0_T_S3_S2_RT1_
FNF:15
FNH:11
DA:91,168
DA:93,168
DA:107,168
DA:117,168
DA:256,168
DA:258,168
DA:274,40
DA:281,40
LF:8
LH:8
end_of_record
SF:/usr/include/c++/4.8/bits/stl_vector.h
FN:79,_ZNSt12_Vector_baseIPSt4pairIPN14raptor_physics7vg_metaEfESaIS5_EE12_Vector_implD2Ev
FN:79,_ZNSt12_Vector_baseIP8triangleSaIS1_EE12_Vector_implD2Ev
FN:79,_ZNSt12_Vector_baseIiSaIiEE12_Vector_implD2Ev
FN:86,_ZNSt12_Vector_baseIP10force_infoSaIS1_EE12_Vector_implC2Ev
FN:86,_ZNSt12_Vector_baseIPSt4pairIPN14raptor_physics7vg_metaEfESaIS5_EE12_Vector_implC2Ev
FN:86,_ZNSt12_Vector_baseIP8triangleSaIS1_EE12_Vector_implC2Ev
FN:86,_ZNSt12_Vector_baseIiSaIiEE12_Vector_implC2Ev
FN:90,_ZNSt12_Vector_baseIiSaIiEE12_Vector_implC2ERKS0_
FN:113,_ZNSt12_Vector_baseIPSt4pairIPN14raptor_physics7vg_metaEfESaIS5_EE19_M_get_Tp_allocatorEv
FN:113,_ZNSt12_Vector_baseIP10force_infoSaIS1_EE19_M_get_Tp_allocatorEv
FN:113,_ZNSt12_Vector_baseIiSaIiEE19_M_get_Tp_allocatorEv
FN:113,_ZNSt12_Vector_baseIP8triangleSaIS1_EE19_M_get_Tp_allocatorEv
FN:117,_ZNKSt12_Vector_baseIP10force_infoSaIS1_EE19_M_get_Tp_allocatorEv
FN:117,_ZNKSt12_Vector_baseIP8triangleSaIS1_EE19_M_get_Tp_allocatorEv
FN:117,_ZNKSt12_Vector_baseIiSaIiEE19_M_get_Tp_allocatorEv
FN:124,_ZNSt12_Vector_baseIiSaIiEEC2Ev
FN:124,_ZNSt12_Vector_baseIP10force_infoSaIS1_EEC2Ev
FN:124,_ZNSt12_Vector_baseIP8triangleSaIS1_EEC2Ev
FN:124,_ZNSt12_Vector_baseIPSt4pairIPN14raptor_physics7vg_metaEfESaIS5_EEC2Ev
FN:127,_ZNSt12_Vector_baseIiSaIiEEC2ERKS0_
FN:159,_ZNSt12_Vector_baseIPSt4pairIPN14raptor_physics7vg_metaEfESaIS5_EED2Ev
FN:159,_ZNSt12_Vector_baseIP8triangleSaIS1_EED2Ev
FN:159,_ZNSt12_Vector_baseIiSaIiEED2Ev
FN:167,_ZNSt12_Vector_baseIiSaIiEE11_M_allocateEm
FN:167,_ZNSt12_Vector_baseIP10force_infoSaIS1_EE11_M_allocateEm
FN:167,_ZNSt12_Vector_baseIP8triangleSaIS1_EE11_M_allocateEm
FN:171,_ZNSt12_Vector_baseIP8triangleSaIS1_EE13_M_deallocateEPS1_m
FN:171,_ZNSt12_Vector_baseIP10force_infoSaIS1_EE13_M_deallocateEPS1_m
FN:171,_ZNSt12_Vector_baseIiSaIiEE13_M_deallocateEPim
FN:171,_ZNSt12_Vector_baseIPSt4pairIPN14raptor_physics7vg_metaEfESaIS5_EE13_M_deallocateEPS5_m
FN:248,_ZNSt6vectorIiSaIiEEC2Ev
FN:248,_ZNSt6vectorIPSt4pairIPN14raptor_physics7vg_metaEfESaIS5_EEC2Ev
FN:248,_ZNSt6vectorIP8triangleSaIS1_EEC2Ev
FN:248,_ZNSt6vectorIP10force_infoSaIS1_EEC2Ev
FN:364,_ZNSt6vectorIiSaIiEEC2ESt16initializer_listIiERKS0_
FN:414,_ZNSt6vectorIiSaIiEED2Ev
FN:414,_ZNSt6vectorIP8triangleSaIS1_EED2Ev
FN:414,_ZNSt6vectorIPSt4pairIPN14raptor_physics7vg_metaEfESaIS5_EED2Ev
FN:645,_ZNKSt6vectorIP8triangleSaIS1_EE4sizeEv
FN:645,_ZNKSt6vectorIP10force_infoSaIS1_EE4sizeEv
FN:645,_ZNKSt6vectorIiSaIiEE4sizeEv
FN:650,_ZNKSt6vectorIP10force_infoSaIS1_EE8max_sizeEv
FN:650,_ZNKSt6vectorIiSaIiEE8max_sizeEv
FN:650,_ZNKSt6vectorIP8triangleSaIS1_EE8max_sizeEv
FN:770,_ZNSt6vectorIiSaIiEEixEm
FN:770,_ZNSt6vectorIP8triangleSaIS1_EEixEm
FN:785,_ZNKSt6vectorIiSaIiEEixEm
FN:791,_ZNKSt6vectorIP8triangleSaIS1_EE14_M_range_checkEm
FN:791,_ZNKSt6vectorIiSaIiEE14_M_range_checkEm
FN:810,_ZNSt6vectorIiSaIiEE2atEm
FN:810,_ZNSt6vectorIP8triangleSaIS1_EE2atEm
FN:901,_ZNSt6vectorIiSaIiEE9push_backERKi
FN:919,_ZNSt6vectorIP8triangleSaIS1_EE9push_backEOS1_
FN:919,_ZNSt6vectorIP10force_infoSaIS1_EE9push_backEOS1_
FN:1197,_ZNSt6vectorIiSaIiEE19_M_range_initializeIPKiEEvT_S5_St20forward_iterator_tag
FN:1336,_ZNKSt6vectorIP8triangleSaIS1_EE12_M_check_lenEmPKc
FN:1336,_ZNKSt6vectorIiSaIiEE12_M_check_lenEmPKc
FN:1336,_ZNKSt6vectorIP10force_infoSaIS1_EE12_M_check_lenEmPKc
FNDA:4,_ZNSt12_Vector_baseIP8triangleSaIS1_EE12_Vector_implD2Ev
FNDA:96,_ZNSt12_Vector_baseIPSt4pairIPN14raptor_physics7vg_metaEfESaIS5_EE12_Vector_implD2Ev
FNDA:0,_ZNSt12_Vector_baseIiSaIiEE12_Vector_implD2Ev
FNDA:4,_ZNSt12_Vector_baseIP8triangleSaIS1_EE12_Vector_implC2Ev
FNDA:96,_ZNSt12_Vector_baseIPSt4pairIPN14raptor_physics7vg_metaEfESaIS5_EE12_Vector_implC2Ev
FNDA:72,_ZNSt12_Vector_baseIP10force_infoSaIS1_EE12_Vector_implC2Ev
FNDA:0,_ZNSt12_Vector_baseIiSaIiEE12_Vector_implC2Ev
FNDA:128,_ZNSt12_Vector_baseIiSaIiEE12_Vector_implC2ERKS0_
FNDA:52,_ZNSt12_Vector_baseIP8triangleSaIS1_EE19_M_get_Tp_allocatorEv
FNDA:0,_ZNSt12_Vector_baseIP10force_infoSaIS1_EE19_M_get_Tp_allocatorEv
FNDA:0,_ZNSt12_Vector_baseIPSt4pairIPN14raptor_physics7vg_metaEfESaIS5_EE19_M_get_Tp_allocatorEv
FNDA:0,_ZNSt12_Vector_baseIiSaIiEE19_M_get_Tp_allocatorEv
FNDA:32,_ZNKSt12_Vector_baseIP10force_infoSaIS1_EE19_M_get_Tp_allocatorEv
FNDA:48,_ZNKSt12_Vector_baseIP8triangleSaIS1_EE19_M_get_Tp_allocatorEv
FNDA:0,_ZNKSt12_Vector_baseIiSaIiEE19_M_get_Tp_allocatorEv
FNDA:4,_ZNSt12_Vector_baseIP8triangleSaIS1_EEC2Ev
FNDA:96,_ZNSt12_Vector_baseIPSt4pairIPN14raptor_physics7vg_metaEfESaIS5_EEC2Ev
FNDA:72,_ZNSt12_Vector_baseIP10force_infoSaIS1_EEC2Ev
FNDA:0,_ZNSt12_Vector_baseIiSaIiEEC2Ev
FNDA:128,_ZNSt12_Vector_baseIiSaIiEEC2ERKS0_
FNDA:4,_ZNSt12_Vector_baseIP8triangleSaIS1_EED2Ev
FNDA:96,_ZNSt12_Vector_baseIPSt4pairIPN14raptor_physics7vg_metaEfESaIS5_EED2Ev
FNDA:0,_ZNSt12_Vector_baseIiSaIiEED2Ev
FNDA:16,_ZNSt12_Vector_baseIP10force_infoSaIS1_EE11_M_allocateEm
FNDA:24,_ZNSt12_Vector_baseIP8triangleSaIS1_EE11_M_allocateEm
FNDA:0,_ZNSt12_Vector_baseIiSaIiEE11_M_allocateEm
FNDA:28,_ZNSt12_Vector_baseIP8triangleSaIS1_EE13_M_deallocateEPS1_m
FNDA:0,_ZNSt12_Vector_baseIPSt4pairIPN14raptor_physics7vg_metaEfESaIS5_EE13_M_deallocateEPS5_m
FNDA:0,_ZNSt12_Vector_baseIP10force_infoSaIS1_EE13_M_deallocateEPS1_m
FNDA:0,_ZNSt12_Vector_baseIiSaIiEE13_M_deallocateEPim
FNDA:4,_ZNSt6vectorIP8triangleSaIS1_EEC2Ev
FNDA:96,_ZNSt6vectorIPSt4pairIPN14raptor_physics7vg_metaEfESaIS5_EEC2Ev
FNDA:72,_ZNSt6vectorIP10force_infoSaIS1_EEC2Ev
FNDA:0,_ZNSt6vectorIiSaIiEEC2Ev
FNDA:128,_ZNSt6vectorIiSaIiEEC2ESt16initializer_listIiERKS0_
FNDA:4,_ZNSt6vectorIP8triangleSaIS1_EED2Ev
FNDA:96,_ZNSt6vectorIPSt4pairIPN14raptor_physics7vg_metaEfESaIS5_EED2Ev
FNDA:0,_ZNSt6vectorIiSaIiEED2Ev
FNDA:80,_ZNKSt6vectorIP10force_infoSaIS1_EE4sizeEv
FNDA:412,_ZNKSt6vectorIP8triangleSaIS1_EE4sizeEv
FNDA:0,_ZNKSt6vectorIiSaIiEE4sizeEv
FNDA:32,_ZNKSt6vectorIP10force_infoSaIS1_EE8max_sizeEv
FNDA:48,_ZNKSt6vectorIP8triangleSaIS1_EE8max_sizeEv
FNDA:0,_ZNKSt6vectorIiSaIiEE8max_sizeEv
FNDA:288,_ZNSt6vectorIP8triangleSaIS1_EEixEm
FNDA:0,_ZNSt6vectorIiSaIiEEixEm
FNDA:4608,_ZNKSt6vectorIiSaIiEEixEm
FNDA:288,_ZNKSt6vectorIP8triangleSaIS1_EE14_M_range_checkEm
FNDA:288,_ZNKSt6vectorIiSaIiEE14_M_range_checkEm
FNDA:288,_ZNSt6vectorIP8triangleSaIS1_EE2atEm
FNDA:288,_ZNSt6vectorIiSaIiEE2atEm
FNDA:0,_ZNSt6vectorIiSaIiEE9push_backERKi
FNDA:16,_ZNSt6vectorIP10force_infoSaIS1_EE9push_backEOS1_
FNDA:96,_ZNSt6vectorIP8triangleSaIS1_EE9push_backEOS1_
FNDA:128,_ZNSt6vectorIiSaIiEE19_M_range_initializeIPKiEEvT_S5_St20forward_iterator_tag
FNDA:16,_ZNKSt6vectorIP10force_infoSaIS1_EE12_M_check_lenEmPKc
FNDA:24,_ZNKSt6vectorIP8triangleSaIS1_EE12_M_check_lenEmPKc
FNDA:0,_ZNKSt6vectorIiSaIiEE12_M_check_lenEmPKc
FNF:58
FNH:39
DA:79,100
DA:86,172
DA:87,172
DA:88,172
DA:90,128
DA:91,128
DA:92,128
DA:113,52
DA:114,52
DA:117,80
DA:118,80
DA:124,172
DA:125,172
DA:127,128
DA:128,128
DA:159,100
DA:160,100
DA:161,200
DA:167,40
DA:168,40
DA:171,28
DA:173,28
DA:174,24
DA:175,28
DA:248,172
DA:249,172
DA:364,128
DA:366,128
DA:368,128
DA:369,256
DA:370,128
DA:414,100
DA:415,100
DA:416,200
DA:645,492
DA:646,492
DA:650,80
DA:651,80
DA:770,288
DA:771,288
DA:785,4608
DA:786,4608
DA:791,576
DA:793,576
DA:794,0
DA:795,576
DA:810,576
DA:812,576
DA:813,576
DA:901,0
DA:903,0
DA:905,0
DA:906,0
DA:907,0
DA:911,0
DA:915,0
DA:919,112
DA:920,112
DA:1197,128
DA:1200,128
DA:1201,128
DA:1202,128
DA:1203,128
DA:1206,128
DA:1207,128
DA:1336,40
DA:1338,40
DA:1339,0
DA:1341,40
DA:1342,40
LF:70
LH:61
end_of_record
SF:/usr/include/c++/4.8/bits/unique_ptr.h
FN:63,_ZNKSt14default_deleteISt6vectorIP8triangleSaIS2_EEEclEPS4_
FN:141,_ZNSt10unique_ptrISt6vectorIP8triangleSaIS2_EESt14default_deleteIS4_EEC2EPS4_
FN:180,_ZNSt10unique_ptrISt6vectorIP8triangleSaIS2_EESt14default_deleteIS4_EED2Ev
FN:226,_ZNKSt10unique_ptrISt6vectorIP8triangleSaIS2_EESt14default_deleteIS4_EEptEv
FN:233,_ZNKSt10unique_ptrISt6vectorIP8triangleSaIS2_EESt14default_deleteIS4_EE3getEv
FN:237,_ZNSt10unique_ptrISt6vectorIP8triangleSaIS2_EESt14default_deleteIS4_EE11get_deleterEv
FNDA:4,_ZNKSt14default_deleteISt6vectorIP8triangleSaIS2_EEEclEPS4_
FNDA:4,_ZNSt10unique_ptrISt6vectorIP8triangleSaIS2_EESt14default_deleteIS4_EEC2EPS4_
FNDA:4,_ZNSt10unique_ptrISt6vectorIP8triangleSaIS2_EESt14default_deleteIS4_EED2Ev
FNDA:292,_ZNKSt10unique_ptrISt6vectorIP8triangleSaIS2_EESt14default_deleteIS4_EEptEv
FNDA:292,_ZNKSt10unique_ptrISt6vectorIP8triangleSaIS2_EESt14default_deleteIS4_EE3getEv
FNDA:4,_ZNSt10unique_ptrISt6vectorIP8triangleSaIS2_EESt14default_deleteIS4_EE11get_deleterEv
FNF:6
FNH:6
DA:63,4
DA:67,4
DA:68,4
DA:141,4
DA:142,4
DA:144,4
DA:180,4
DA:182,4
DA:183,4
DA:184,4
DA:185,4
DA:186,4
DA:226,292
DA:229,292
DA:233,292
DA:234,292
DA:237,4
DA:238,4
LF:18
LH:18
end_of_record
SF:/usr/include/c++/4.8/bits/unordered_map.h
FN:97,_ZNSt13unordered_mapIiPN14raptor_physics7vg_metaESt4hashIiESt8equal_toIiESaISt4pairIKiS2_EEED2Ev
FN:138,_ZNSt13unordered_mapIiPN14raptor_physics7vg_metaESt4hashIiESt8equal_toIiESaISt4pairIKiS2_EEEC2EmRKS4_RKS6_RKSA_
FN:233,_ZNKSt13unordered_mapIiPN14raptor_physics7vg_metaESt4hashIiESt8equal_toIiESaISt4pairIKiS2_EEE4sizeEv
FN:248,_ZNSt13unordered_mapIiPN14raptor_physics7vg_metaESt4hashIiESt8equal_toIiESaISt4pairIKiS2_EEE5beginEv
FN:270,_ZNSt13unordered_mapIiPN14raptor_physics7vg_metaESt4hashIiESt8equal_toIiESaISt4pairIKiS2_EEE3endEv
FN:369,_ZNSt13unordered_mapIiPN14raptor_physics7vg_metaESt4hashIiESt8equal_toIiESaISt4pairIKiS2_EEE6insertIS7_IiS2_EvEES7_INSt8__detail14_Node_iteratorIS9_Lb0ELb0EEEbEOT_
FN:469,_ZNSt13unordered_mapIiPN14raptor_physics7vg_metaESt4hashIiESt8equal_toIiESaISt4pairIKiS2_EEE5eraseERS8_
FN:542,_ZNSt13unordered_mapIiPN14raptor_physics7vg_metaESt4hashIiESt8equal_toIiESaISt4pairIKiS2_EEE4findERS8_
FN:612,_ZNSt13unordered_mapIiPN14raptor_physics7vg_metaESt4hashIiESt8equal_toIiESaISt4pairIKiS2_EEE2atERS8_
FNDA:32,_ZNSt13unordered_mapIiPN14raptor_physics7vg_metaESt4hashIiESt8equal_toIiESaISt4pairIKiS2_EEED2Ev
FNDA:32,_ZNSt13unordered_mapIiPN14raptor_physics7vg_metaESt4hashIiESt8equal_toIiESaISt4pairIKiS2_EEEC2EmRKS4_RKS6_RKSA_
FNDA:44,_ZNKSt13unordered_mapIiPN14raptor_physics7vg_metaESt4hashIiESt8equal_toIiESaISt4pairIKiS2_EEE4sizeEv
FNDA:0,_ZNSt13unordered_mapIiPN14raptor_physics7vg_metaESt4hashIiESt8equal_toIiESaISt4pairIKiS2_EEE5beginEv
FNDA:0,_ZNSt13unordered_mapIiPN14raptor_physics7vg_metaESt4hashIiESt8equal_toIiESaISt4pairIKiS2_EEE3endEv
FNDA:72,_ZNSt13unordered_mapIiPN14raptor_physics7vg_metaESt4hashIiESt8equal_toIiESaISt4pairIKiS2_EEE6insertIS7_IiS2_EvEES7_INSt8__detail14_Node_iteratorIS9_Lb0ELb0EEEbEOT_
FNDA:8,_ZNSt13unordered_mapIiPN14raptor_physics7vg_metaESt4hashIiESt8equal_toIiESaISt4pairIKiS2_EEE5eraseERS8_
FNDA:508,_ZNSt13unordered_mapIiPN14raptor_physics7vg_metaESt4hashIiESt8equal_toIiESaISt4pairIKiS2_EEE4findERS8_
FNDA:24,_ZNSt13unordered_mapIiPN14raptor_physics7vg_metaESt4hashIiESt8equal_toIiESaISt4pairIKiS2_EEE2atERS8_
FNF:9
FNH:7
DA:97,32
DA:138,32
DA:142,32
DA:143,32
DA:233,44
DA:234,44
DA:248,0
DA:249,0
DA:270,0
DA:271,0
DA:369,72
DA:370,72
DA:469,8
DA:470,8
DA:542,508
DA:543,508
DA:612,24
DA:613,24
LF:18
LH:14
end_of_record
SF:/usr/include/c++/4.8/bits/vector.tcc
FN:91,_ZNSt6vectorIP10force_infoSaIS1_EE12emplace_backIIS1_EEEvDpOT_
FN:91,_ZNSt6vectorIP8triangleSaIS1_EE12emplace_backIIS1_EEEvDpOT_
FN:399,_ZNSt6vectorIP8triangleSaIS1_EE19_M_emplace_back_auxIIS1_EEEvDpOT_
FN:399,_ZNSt6vectorIiSaIiEE19_M_emplace_back_auxIIRKiEEEvDpOT_
FN:399,_ZNSt6vectorIP10force_infoSaIS1_EE19_M_emplace_back_auxIIS1_EEEvDpOT_
FNDA:16,_ZNSt6vectorIP10force_infoSaIS1_EE12emplace_backIIS1_EEEvDpOT_
FNDA:96,_ZNSt6vectorIP8triangleSaIS1_EE12emplace_backIIS1_EEEvDpOT_
FNDA:16,_ZNSt6vectorIP10force_infoSaIS1_EE19_M_emplace_back_auxIIS1_EEEvDpOT_
FNDA:24,_ZNSt6vectorIP8triangleSaIS1_EE19_M_emplace_back_auxIIS1_EEEvDpOT_
FNDA:0,_ZNSt6vectorIiSaIiEE19_M_emplace_back_auxIIRKiEEEvDpOT_
FNF:5
FNH:4
DA:91,112
DA:94,112
DA:96,72
DA:97,72
DA:98,72
DA:101,40
DA:102,112
DA:399,40
DA:403,40
DA:404,40
DA:405,40
DA:408,80
DA:409,80
DA:410,40
DA:412,40
DA:415,40
DA:417,40
DA:419,=====
DA:421,=====
DA:422,=====
DA:424,=====
DA:425,=====
DA:426,=====
DA:428,40
DA:429,40
DA:430,40
DA:432,40
DA:433,40
DA:434,40
DA:435,40
DA:436,40
LF:31
LH:25
end_of_record
SF:/usr/include/c++/4.8/cmath
FN:260,_ZSt4fabsf
FN:482,_ZSt4sqrtf
FNDA:0,_ZSt4fabsf
FNDA:0,_ZSt4sqrtf
FNF:2
FNH:0
DA:260,0
DA:261,0
DA:482,0
DA:483,0
LF:4
LH:0
end_of_record
SF:/usr/include/c++/4.8/ext/atomicity.h
FN:48,_ZN9__gnu_cxxL18__exchange_and_addEPVii
FN:65,_ZN9__gnu_cxxL25__exchange_and_add_singleEPii
FN:78,_ZN9__gnu_cxxL27__exchange_and_add_dispatchEPii
FNDA:0,_ZN9__gnu_cxxL18__exchange_and_addEPVii
FNDA:0,_ZN9__gnu_cxxL25__exchange_and_add_singleEPii
FNDA:0,_ZN9__gnu_cxxL27__exchange_and_add_dispatchEPii
FNF:3
FNH:0
DA:48,0
DA:49,0
DA:65,0
DA:67,0
DA:68,0
DA:69,0
DA:78,0
DA:81,0
DA:82,0
DA:84,0
LF:10
LH:0
end_of_record
SF:/usr/include/c++/4.8/ext/new_allocator.h
FN:79,_ZN9__gnu_cxx13new_allocatorISt4pairIKiPN14raptor_physics7vg_metaEEEC2Ev
FN:79,_ZN9__gnu_cxx13new_allocatorINSt8__detail10_Hash_nodeISt4pairIKiPN14raptor_physics7vg_metaEELb0EEEEC2Ev
FN:79,_ZN9__gnu_cxx13new_allocatorIPNSt8__detail15_Hash_node_baseEEC2Ev
FN:79,_ZN9__gnu_cxx13new_allocatorIP10force_infoEC2Ev
FN:79,_ZN9__gnu_cxx13new_allocatorISt13_Rb_tree_nodeISt4pairIKPN14raptor_physics7vg_metaEPNS3_13tracking_infoIS4_EEEEEC2Ev
FN:79,_ZN9__gnu_cxx13new_allocatorIP8triangleEC2Ev
FN:79,_ZN9__gnu_cxx13new_allocatorIcEC2Ev
FN:79,_ZN9__gnu_cxx13new_allocatorIPSt4pairIPN14raptor_physics7vg_metaEfEEC2Ev
FN:79,_ZN9__gnu_cxx13new_allocatorIiEC2Ev
FN:81,_ZN9__gnu_cxx13new_allocatorIiEC2ERKS1_
FN:81,_ZN9__gnu_cxx13new_allocatorIcEC2ERKS1_
FN:86,_ZN9__gnu_cxx13new_allocatorISt13_Rb_tree_nodeISt4pairIKPN14raptor_physics7vg_metaEPNS3_14collision_infoEEEED2Ev
FN:86,_ZN9__gnu_cxx13new_allocatorIPNSt8__detail15_Hash_node_baseEED2Ev
FN:86,_ZN9__gnu_cxx13new_allocatorIiED2Ev
FN:86,_ZN9__gnu_cxx13new_allocatorISt4pairIKiPN14raptor_physics7vg_metaEEED2Ev
FN:86,_ZN9__gnu_cxx13new_allocatorIcED2Ev
FN:86,_ZN9__gnu_cxx13new_allocatorISt13_Rb_tree_nodeISt4pairIKPN14raptor_physics7vg_metaEPNS3_13tracking_infoIS4_EEEEED2Ev
FN:86,_ZN9__gnu_cxx13new_allocatorIP8triangleED2Ev
FN:86,_ZN9__gnu_cxx13new_allocatorIPSt4pairIPN14raptor_physics7vg_metaEfEED2Ev
FN:86,_ZN9__gnu_cxx13new_allocatorINSt8__detail10_Hash_nodeISt4pairIKiPN14raptor_physics7vg_metaEELb0EEEED2Ev
FN:99,_ZN9__gnu_cxx13new_allocatorINSt8__detail10_Hash_nodeISt4pairIKiPN14raptor_physics7vg_metaEELb0EEEE8allocateEmPKv
FN:99,_ZN9__gnu_cxx13new_allocatorIP10force_infoE8allocateEmPKv
FN:99,_ZN9__gnu_cxx13new_allocatorIiE8allocateEmPKv
FN:99,_ZN9__gnu_cxx13new_allocatorIP8triangleE8allocateEmPKv
FN:99,_ZN9__gnu_cxx13new_allocatorIPNSt8__detail15_Hash_node_baseEE8allocateEmPKv
FN:109,_ZN9__gnu_cxx13new_allocatorINSt8__detail10_Hash_nodeISt4pairIKiPN14raptor_physics7vg_metaEELb0EEEE10deallocateEPS9_m
FN:109,_ZN9__gnu_cxx13new_allocatorIPNSt8__detail15_Hash_node_baseEE10deallocateEPS3_m
FN:109,_ZN9__gnu_cxx13new_allocatorISt13_Rb_tree_nodeISt4pairIKPN14raptor_physics7vg_metaEPNS3_14collision_infoEEEE10deallocateEPSA_m
FN:109,_ZN9__gnu_cxx13new_allocatorIPSt4pairIPN14raptor_physics7vg_metaEfEE10deallocateEPS6_m
FN:109,_ZN9__gnu_cxx13new_allocatorISt13_Rb_tree_nodeISt4pairIKPN14raptor_physics7vg_metaEPNS3_13tracking_infoIS4_EEEEE10deallocateEPSB_m
FN:109,_ZN9__gnu_cxx13new_allocatorIP8triangleE10deallocateEPS2_m
FN:109,_ZN9__gnu_cxx13new_allocatorIP10force_infoE10deallocateEPS2_m
FN:109,_ZN9__gnu_cxx13new_allocatorIiE10deallocateEPim
FN:113,_ZNK9__gnu_cxx13new_allocatorIP10force_infoE8max_sizeEv
FN:113,_ZNK9__gnu_cxx13new_allocatorINSt8__detail10_Hash_nodeISt4pairIKiPN14raptor_physics7vg_metaEELb0EEEE8max_sizeEv
FN:113,_ZNK9__gnu_cxx13new_allocatorIP8triangleE8max_sizeEv
FN:113,_ZNK9__gnu_cxx13new_allocatorIiE8max_sizeEv
FN:113,_ZNK9__gnu_cxx13new_allocatorIPNSt8__detail15_Hash_node_baseEE8max_sizeEv
FN:119,_ZN9__gnu_cxx13new_allocatorIiE9constructIiIRKiEEEvPT_DpOT0_
FN:119,_ZN9__gnu_cxx13new_allocatorIP10force_infoE9constructIS2_IS2_EEEvPT_DpOT0_
FN:119,_ZN9__gnu_cxx13new_allocatorIP8triangleE9constructIS2_IS2_EEEvPT_DpOT0_
FN:119,_ZN9__gnu_cxx13new_allocatorINSt8__detail10_Hash_nodeISt4pairIKiPN14raptor_physics7vg_metaEELb0EEEE9constructIS9_IS3_IiS7_EEEEvPT_DpOT0_
FN:124,_ZN9__gnu_cxx13new_allocatorISt13_Rb_tree_nodeISt4pairIKPN14raptor_physics7vg_metaEPNS3_14collision_infoEEEE7destroyISA_EEvPT_
FN:124,_ZN9__gnu_cxx13new_allocatorIiE7destroyIiEEvPT_
FN:124,_ZN9__gnu_cxx13new_allocatorINSt8__detail10_Hash_nodeISt4pairIKiPN14raptor_physics7vg_metaEELb0EEEE7destroyIS9_EEvPT_
FN:124,_ZN9__gnu_cxx13new_allocatorISt13_Rb_tree_nodeISt4pairIKPN14raptor_physics7vg_metaEPNS3_13tracking_infoIS4_EEEEE7destroyISB_EEvPT_
FN:124,_ZN9__gnu_cxx13new_allocatorIP10force_infoE7destroyIS2_EEvPT_
FN:124,_ZN9__gnu_cxx13new_allocatorIP8triangleE7destroyIS2_EEvPT_
FNDA:32,_ZN9__gnu_cxx13new_allocatorINSt8__detail10_Hash_nodeISt4pairIKiPN14raptor_physics7vg_metaEELb0EEEEC2Ev
FNDA:4,_ZN9__gnu_cxx13new_allocatorIP8triangleEC2Ev
FNDA:96,_ZN9__gnu_cxx13new_allocatorIPSt4pairIPN14raptor_physics7vg_metaEfEEC2Ev
FNDA:32,_ZN9__gnu_cxx13new_allocatorISt13_Rb_tree_nodeISt4pairIKPN14raptor_physics7vg_metaEPNS3_13tracking_infoIS4_EEEEEC2Ev
FNDA:72,_ZN9__gnu_cxx13new_allocatorIP10force_infoEC2Ev
FNDA:64,_ZN9__gnu_cxx13new_allocatorIPNSt8__detail15_Hash_node_baseEEC2Ev
FNDA:32,_ZN9__gnu_cxx13new_allocatorISt4pairIKiPN14raptor_physics7vg_metaEEEC2Ev
FNDA:0,_ZN9__gnu_cxx13new_allocatorIiEC2Ev
FNDA:0,_ZN9__gnu_cxx13new_allocatorIcEC2Ev
FNDA:128,_ZN9__gnu_cxx13new_allocatorIiEC2ERKS1_
FNDA:0,_ZN9__gnu_cxx13new_allocatorIcEC2ERKS1_
FNDA:4,_ZN9__gnu_cxx13new_allocatorIP8triangleED2Ev
FNDA:0,_ZN9__gnu_cxx13new_allocatorISt13_Rb_tree_nodeISt4pairIKPN14raptor_physics7vg_metaEPNS3_14collision_infoEEEED2Ev
FNDA:64,_ZN9__gnu_cxx13new_allocatorIPNSt8__detail15_Hash_node_baseEED2Ev
FNDA:96,_ZN9__gnu_cxx13new_allocatorIPSt4pairIPN14raptor_physics7vg_metaEfEED2Ev
FNDA:32,_ZN9__gnu_cxx13new_allocatorISt13_Rb_tree_nodeISt4pairIKPN14raptor_physics7vg_metaEPNS3_13tracking_infoIS4_EEEEED2Ev
FNDA:32,_ZN9__gnu_cxx13new_allocatorINSt8__detail10_Hash_nodeISt4pairIKiPN14raptor_physics7vg_metaEELb0EEEED2Ev
FNDA:32,_ZN9__gnu_cxx13new_allocatorISt4pairIKiPN14raptor_physics7vg_metaEEED2Ev
FNDA:0,_ZN9__gnu_cxx13new_allocatorIiED2Ev
FNDA:0,_ZN9__gnu_cxx13new_allocatorIcED2Ev
FNDA:72,_ZN9__gnu_cxx13new_allocatorINSt8__detail10_Hash_nodeISt4pairIKiPN14raptor_physics7vg_metaEELb0EEEE8allocateEmPKv
FNDA:32,_ZN9__gnu_cxx13new_allocatorIPNSt8__detail15_Hash_node_baseEE8allocateEmPKv
FNDA:16,_ZN9__gnu_cxx13new_allocatorIP10force_infoE8allocateEmPKv
FNDA:24,_ZN9__gnu_cxx13new_allocatorIP8triangleE8allocateEmPKv
FNDA:0,_ZN9__gnu_cxx13new_allocatorIiE8allocateEmPKv
FNDA:0,_ZN9__gnu_cxx13new_allocatorISt13_Rb_tree_nodeISt4pairIKPN14raptor_physics7vg_metaEPNS3_14collision_infoEEEE10deallocateEPSA_m
FNDA:0,_ZN9__gnu_cxx13new_allocatorISt13_Rb_tree_nodeISt4pairIKPN14raptor_physics7vg_metaEPNS3_13tracking_infoIS4_EEEEE10deallocateEPSB_m
FNDA:72,_ZN9__gnu_cxx13new_allocatorINSt8__detail10_Hash_nodeISt4pairIKiPN14raptor_physics7vg_metaEELb0EEEE10deallocateEPS9_m
FNDA:24,_ZN9__gnu_cxx13new_allocatorIP8triangleE10deallocateEPS2_m
FNDA:0,_ZN9__gnu_cxx13new_allocatorIPSt4pairIPN14raptor_physics7vg_metaEfEE10deallocateEPS6_m
FNDA:0,_ZN9__gnu_cxx13new_allocatorIP10force_infoE10deallocateEPS2_m
FNDA:0,_ZN9__gnu_cxx13new_allocatorIiE10deallocateEPim
FNDA:32,_ZN9__gnu_cxx13new_allocatorIPNSt8__detail15_Hash_node_baseEE10deallocateEPS3_m
FNDA:72,_ZNK9__gnu_cxx13new_allocatorINSt8__detail10_Hash_nodeISt4pairIKiPN14raptor_physics7vg_metaEELb0EEEE8max_sizeEv
FNDA:32,_ZNK9__gnu_cxx13new_allocatorIPNSt8__detail15_Hash_node_baseEE8max_sizeEv
FNDA:48,_ZNK9__gnu_cxx13new_allocatorIP10force_infoE8max_sizeEv
FNDA:72,_ZNK9__gnu_cxx13new_allocatorIP8triangleE8max_sizeEv
FNDA:0,_ZNK9__gnu_cxx13new_allocatorIiE8max_sizeEv
FNDA:72,_ZN9__gnu_cxx13new_allocatorINSt8__detail10_Hash_nodeISt4pairIKiPN14raptor_physics7vg_metaEELb0EEEE9constructIS9_IS3_IiS7_EEEEvPT_DpOT0_
FNDA:16,_ZN9__gnu_cxx13new_allocatorIP10force_infoE9constructIS2_IS2_EEEvPT_DpOT0_
FNDA:96,_ZN9__gnu_cxx13new_allocatorIP8triangleE9constructIS2_IS2_EEEvPT_DpOT0_
FNDA:0,_ZN9__gnu_cxx13new_allocatorIiE9constructIiIRKiEEEvPT_DpOT0_
FNDA:0,_ZN9__gnu_cxx13new_allocatorIP10force_infoE7destroyIS2_EEvPT_
FNDA:0,_ZN9__gnu_cxx13new_allocatorIP8triangleE7destroyIS2_EEvPT_
FNDA:0,_ZN9__gnu_cxx13new_allocatorISt13_Rb_tree_nodeISt4pairIKPN14raptor_physics7vg_metaEPNS3_14collision_infoEEEE7destroyISA_EEvPT_
FNDA:72,_ZN9__gnu_cxx13new_allocatorINSt8__detail10_Hash_nodeISt4pairIKiPN14raptor_physics7vg_metaEELb0EEEE7destroyIS9_EEvPT_
FNDA:0,_ZN9__gnu_cxx13new_allocatorIiE7destroyIiEEvPT_
FNDA:0,_ZN9__gnu_cxx13new_allocatorISt13_Rb_tree_nodeISt4pairIKPN14raptor_physics7vg_metaEPNS3_13tracking_infoIS4_EEEEE7destroyISB_EEvPT_
FNF:48
FNH:29
DA:79,332
DA:81,128
DA:86,260
DA:99,144
DA:101,144
DA:102,0
DA:104,144
DA:109,128
DA:110,128
DA:113,224
DA:114,224
DA:119,184
DA:120,184
DA:124,72
LF:14
LH:13
end_of_record
SF:/usr/include/c++/4.8/initializer_list
FN:71,_ZNKSt16initializer_listIiE4sizeEv
FN:75,_ZNKSt16initializer_listIiE5beginEv
FN:79,_ZNKSt16initializer_listIiE3endEv
FNDA:128,_ZNKSt16initializer_listIiE4sizeEv
FNDA:256,_ZNKSt16initializer_listIiE5beginEv
FNDA:128,_ZNKSt16initializer_listIiE3endEv
FNF:3
FNH:3
DA:71,128
DA:75,256
DA:79,128
LF:3
LH:3
end_of_record
SF:/usr/include/c++/4.8/iostream
DA:74,4
LF:1
LH:1
end_of_record
SF:/usr/include/c++/4.8/limits
FN:1561,_ZNSt14numeric_limitsIfE3maxEv
FN:1599,_ZNSt14numeric_limitsIfE8infinityEv
FNDA:0,_ZNSt14numeric_limitsIfE3maxEv
FNDA:0,_ZNSt14numeric_limitsIfE8infinityEv
FNF:2
FNH:0
DA:1561,0
DA:1599,0
LF:2
LH:0
end_of_record
SF:/usr/include/c++/4.8/new
FN:109,_ZnwmPv
FN:115,_ZdlPvS_
FNDA:0,_ZnwmPv
FNDA:0,_ZdlPvS_
FNF:2
FNH:0
DA:109,0
DA:110,0
DA:115,0
LF:3
LH:0
end_of_record
SF:/usr/include/c++/4.8/tuple
FN:94,_ZNSt10_Head_baseILm1ESt14default_deleteISt6vectorIP8triangleSaIS3_EEELb1EEC2IS6_vEEOT_
FN:121,_ZNSt10_Head_baseILm1ESt14default_deleteISt6vectorIP8triangleSaIS3_EEELb1EE7_M_headERS7_
FN:139,_ZNSt10_Head_baseILm0EPSt6vectorIP8triangleSaIS2_EELb0EEC2IRS5_vEEOT_
FN:167,_ZNSt10_Head_baseILm0EPSt6vectorIP8triangleSaIS2_EELb0EE7_M_headERS6_
FN:170,_ZNSt10_Head_baseILm0EPSt6vectorIP8triangleSaIS2_EELb0EE7_M_headERKS6_
FN:195,_ZNSt11_Tuple_implILm2EIEEC2Ev
FN:239,_ZNSt11_Tuple_implILm0EIPSt6vectorIP8triangleSaIS2_EESt14default_deleteIS4_EEE7_M_headERS8_
FN:239,_ZNSt11_Tuple_implILm1EISt14default_deleteISt6vectorIP8triangleSaIS3_EEEEE7_M_headERS7_
FN:242,_ZNSt11_Tuple_implILm0EIPSt6vectorIP8triangleSaIS2_EESt14default_deleteIS4_EEE7_M_headERKS8_
FN:260,_ZNSt11_Tuple_implILm1EISt14default_deleteISt6vectorIP8triangleSaIS3_EEEEEC2IS6_IEvEEOT_DpOT0_
FN:260,_ZNSt11_Tuple_implILm0EIPSt6vectorIP8triangleSaIS2_EESt14default_deleteIS4_EEEC2IRS5_IS7_EvEEOT_DpOT0_
FN:537,_ZNSt5tupleIIPSt6vectorIP8triangleSaIS2_EESt14default_deleteIS4_EEEC2IRS5_S7_vEEOT_OT0_
FN:742,_ZSt12__get_helperILm1ESt14default_deleteISt6vectorIP8triangleSaIS3_EEEIEENSt9__add_refIT0_E4typeERSt11_Tuple_implIXT_EIS8_DpT1_EE
FN:742,_ZSt12__get_helperILm0EPSt6vectorIP8triangleSaIS2_EEISt14default_deleteIS4_EEENSt9__add_refIT0_E4typeERSt11_Tuple_implIXT_EIS9_DpT1_EE
FN:747,_ZSt12__get_helperILm0EPSt6vectorIP8triangleSaIS2_EEISt14default_deleteIS4_EEENSt11__add_c_refIT0_E4typeERKSt11_Tuple_implIXT_EIS9_DpT1_EE
